000000  254000 000001    5@   !    +????    JRST	0,1
000001  777760 000020    __P  0    ?????    CONSO	774,@20
000002  710600 000060    Y&   P    r????    CONO	104,60
000003  710740 000010    Y'@  (    r????    CONSO	104,10
000004  254000 000021    5@   1    +????    JRST	0,21
000005  710440 000026    Y$@  6    r????    DATAI	104,26
000006  710740 000010    Y'@  (    r????    CONSO	104,10
000007  254000 000024    5@   4    +????    JRST	0,24
000010  254000 037400    5@ #\     +????    JRST	0,37400
000011  254000 000021    5@   1    +????    JRST	0,21
000012  254000 000760    5@  'P    +???x    JRST	0,760
000013  201100 777310    0) _[(     $?~d    MOVEI	2,777310
000014  271100 002221    7)  21    .$??H    ADDI	2,2221
000015  010500 005420    !%  L0    ?????    UUO10	12,5420
000016  607000 010000    PX !      a`???    TLNN	0,10000
000017  254000 000116    5@  !.    +???'    JRST	0,116
000020  772676 026674    _6^"V\    ~[p-^    CONI	724,@26674(16)
000021  000000 037577       #]_    ?????    UUO00	0,37577
000022  523750 016041    J?H!PA    T~@??    HLLOS	17,16041(10)
000023  777776 033776    __^#?^    ??p7?    CONSO	774,@33776(16)
000024  000000 033776       #?^    ???7?    UUO00	0,33776
000025  777777 033776    ___#?^    ??x7?    CONSO	774,@33776(17)
000026  777767 303765    __W8?U    ??;?z    CONSO	774,@303765(7)
000027  777137 034000    _Y?#@     ?ex8?    BLKO	770,@34000(17)
000030  264000 035422    6@ #L2    -??;?    JSR	0,35422
000031  254000 035026    5@ #H6    +??:?    JRST	0,35026
000032  251700 037175    5/ #Y]    *<?>>    BLT	16,37175
000033  254000 037401    5@ #\!    +????    JRST	0,37401
000034  271320 034657    7+0#FO    .-?9W    ADDI	6,@34657
000035  550400 000006    M$   &    Z????    HRRZ	10,6
000036  553000 000010    M8   (    Z`???    HRRZS	0,10
000037  260040 034630    6 @#F8    ,??9L    PUSHJ	1,34630
000040  622340 000004    R3@  $    dN???    TRZE	7,4
000041  254000 034036    5@ #@>    +??8?    JRST	0,34036
000042  260040 034246    6 @#BF    ,??8S    PUSHJ	1,34246
000043  273300 034641    7; #FA    .l?9P    ADDB	6,34641
000044  270300 000014    7#   ,    .????    ADD	6,14
000045  500300 034641    H# #FA    P??9P    HLL	6,34641
000046  403600 034641    @> #FA    @x?9P    SETZB	14,34641
000047  305400 000041    8L   A    10???    CAIGE	10,41
000050  344400 034006    <D #@&    9??8?    AOJA	10,34006
000051  305400 000047    8L   G    10???    CAIGE	10,47
000052  202310 036043    03(#PC     L@<?    MOVEM	6,36043(10)
000053  301400 000047    8,   G    00???    CAIL	10,47
000054  202310 000000    03(        L@??    MOVEM	6,0(10)
000055  602740 000200    P7@ "     `^??@    TRNE	17,200
000056  344400 034006    <D #@&    9??8?    AOJA	10,34006
000057  313400 034642    9< #FB    2p?9Q    CAMLE	10,34642
000060  552400 034642    M4 #FB    ZP?9Q    HRRZM	10,34642
000061  550100 000011    M!   )    Z????    HRRZ	2,11
000062  313100 034642    99 #FB    2d?9Q    CAMLE	2,34642
000063  344400 034006    <D #@&    9??8?    AOJA	10,34006
000064  006000 634345     P SCE    ?@?8r    UUO06	0,634345
000065  254000 035033    5@ #H;    +??:?    JRST	0,35033
000066  260040 034221    6 @#B1    ,??8H    PUSHJ	1,34221
000067  602340 000002    P3@  "    `N???    TRNE	7,2
000070  254000 034206    5@ #B&    +??8C    JRST	0,34206
000071  245300 000003    4K   #    ),???    ROTC	6,3
000072  504400 000007    HD   '    Q????    HRL	10,7
000073  332200 034651    ;2 #FI    6H?9T    SKIPE	4,34651
000074  402000 034651    @0 #FI    @@?9T    SETZM	0,34651
000075  137200 036042    +Z #PB    ?h?<?    DPB	4,36042
000076  325240 034063    :J@#@S    5*?8?    JUMPGE	5,34063
000077  603140 200000    P9@0      `f???    TLNE	3,200000
000100  254000 034056    5@ #@N    +??8?    JRST	0,34056
000101  602740 000010    P7@  (    `^???    TRNE	17,10
000102  254000 034067    5@ #@W    +??8?    JRST	0,34067
000103  260040 034256    6 @#BN    ,??8W    PUSHJ	1,34256
000104  202405 000000    04%        P(??    MOVEM	10,0(5)
000105  254000 034006    5@ #@&    +??8?    JRST	0,34006
000106  200305 000001    0#%  !     ?(??    MOVE	6,1(5)
000107  260040 034170    6 @#AX    ,??8<    PUSHJ	1,34170
000110  272300 034641    73 #FA    .L?9P    ADDM	6,34641
000111  272340 000014    73@  ,    .N???    ADDM	7,14
000112  254000 034006    5@ #@&    +??8?    JRST	0,34006
000113  200300 000010    0#   (     ????    MOVE	6,10
000114  661100 400000    V) @      l$???    TLO	2,400000
000115  606740 000010    PW@  (    a^???    TRNN	17,10
000116  254000 034263    5@ #BS    +??8Y    JRST	0,34263
000117  005000 654741     H UGA    ? ?Yp    UUO05	0,654741
000120  254000 034006    5@ #@&    +??8?    JRST	0,34006
000121  661100 600000    V) P      l$???    TLO	2,600000
000122  606740 000420    PW@ $0    a^???    TRNN	17,420
000123  603100 040000    P9 $      `d?@?    TLNE	2,40000
000124  254000 034264    5@ #BT    +??8Z    JRST	0,34264
000125  254000 034112    5@ #A*    +??8%    JRST	0,34112
000126  660340 000010    V#@  (    l????    TRO	7,10
000127  245300 000003    4K   #    ),???    ROTC	6,3
000130  260040 034246    6 @#BF    ,??8S    PUSHJ	1,34246
000131  261040 034055    6(@#@M    ,"?8?    PUSH	1,34055
000132  202300 034653    03 #FK     L?9U    MOVEM	6,34653
000133  325240 034071    :J@#@Y    5*?8?    JUMPGE	5,34071
000134  607140 200000    PY@0      af???    TLNN	3,200000
000135  254000 034135    5@ #A=    +??8.    JRST	0,34135
000136  602340 000100    P3@ !     `N??     TRNE	7,100
000137  202305 000001    03%  !     L(??    MOVEM	6,1(5)
000140  312305 000001    93%  !    2L(??    CAME	6,1(5)
000141  005000 554447     H MDG    ? ?Y?    UUO05	0,554447
000142  620740 000400    R'@ $     d????    TRZ	17,400
000143  263040 000000    68@       ,b???    POPJ	1,0
000144  261040 034132    6(@#A:    ,"?8-    PUSH	1,34132
000145  550200 000005    M"   %    Z????    HRRZ	4,5
000146  274200 034654    7B #FL    /??9V    SUB	4,34654
000147  507000 000004    HX   $    Q`???    HRLS	0,4
000150  542200 034130    L2 #A8    XH?8,    HRRM	4,34130
000151  250440 000004    5$@  $    *????    EXCH	11,4
000152  270440 000004    7$@  $    .????    ADD	11,4
000153  211204 000000    1*$       "( ??    MOVNI	4,0(4)
000154  270200 034654    7" #FL    .??9V    ADD	4,34654
000155  207000 000004    0X   $    !`???    MOVSS	0,4
000156  540200 034654    L" #FL    X??9V    HRR	4,34654
000157  370000 000004    ?    $    >????    SOS	0,4
000160  262204 034130    62$#A8    ,H 8,    POP	4,34130(4)
000161  325200 034130    :J #A8    5(?8,    JUMPGE	4,34130
000162  263040 034133    68@#A;    ,b?8-    POPJ	1,34133
000163  260040 034231    6 @#B9    ,??8L    PUSHJ	1,34231
000164  325240 034071    :J@#@Y    5*?8?    JUMPGE	5,34071
000165  552240 034654    M2@#FL    ZJ?9V    HRRZM	5,34654
000166  200300 034653    0# #FK     ??9U    MOVE	6,34653
000167  252240 034114    52@#A,    *J?8&    AOBJP	5,34114
000170  335145 000000    ;IE       7&(??    SKIPGE	3,0(5)
000171  254000 034114    5@ #A,    +??8&    JRST	0,34114
000172  500400 000003    H$   #    P????    HLL	10,3
000173  553000 000003    M8   #    Z`???    HRRZS	0,3
000174  305140 000041    8I@  A    1&???    CAIGE	3,41
000175  254000 034136    5@ #A>    +??8/    JRST	0,34136
000176  627400 100000    R\ (      ep???    TLZN	10,100000
000177  254000 034160    5@ #AP    +??88    JRST	0,34160
000200  261040 034157    6(@#AO    ,"?87    PUSH	1,34157
000201  305140 000047    8I@  G    1&???    CAIGE	3,47
000202  271140 036043    7)@#PC    .&?<?    ADDI	3,36043
000203  504303 000000    HC#       Q????    HRL	6,0(3)
000204  542303 000000    L3#       XL???    HRRM	6,0(3)
000205  554140 000006    MA@  &    [????    HLRZ	3,6
000206  326140 034151    :Q@#AI    5F?84    JUMPN	3,34151
000207  263040 034136    68@#A>    ,b?8/    POPJ	1,34136
000210  305140 000047    8I@  G    1&???    CAIGE	3,47
000211  271140 036043    7)@#PC    .&?<?    ADDI	3,36043
000212  260040 034170    6 @#AX    ,??8<    PUSHJ	1,34170
000213  270303 000000    7##       .????    ADD	6,0(3)
000214  270340 000006    7#@  &    .????    ADD	7,6
000215  540300 000007    L#   '    X????    HRR	6,7
000216  202303 000000    03#        L???    MOVEM	6,0(3)
000217  254000 034136    5@ #A>    +??8/    JRST	0,34136
000220  201340 000000    0+@        .???    MOVEI	7,0
000221  603400 000010    P<   (    `p???    TLNE	10,10
000222  213000 000006    18   &    "`???    MOVNS	0,6
000223  135200 036042    +J #PB    ?(?<?    LDB	4,36042
000224  332000 000004    ;0   $    6@???    SKIPE	0,4
000225  220300 000004    2#   $    $????    IMUL	6,4
000226  135200 036043    +J #PC    ?(?<?    LDB	4,36043
000227  603400 000004    P<   $    `p???    TLNE	10,4
000230  207000 000006    0X   &    !`???    MOVSS	0,6
000231  256004 034202    5P$#B"    +@ 8A    XCT	0,34202(4)
000232  263040 000000    68@       ,b???    POPJ	1,0
000233  250300 000007    5#   '    *????    EXCH	6,7
000234  513000 000006    I8   &    R`???    HLLZS	0,6
000235  241300 000005    4+   %    (,???    ROT	6,5
000236  606340 000001    PS@  !    aN???    TRNN	7,1
000237  254000 034274    5@ #B\    +??8^    JRST	0,34274
000240  260040 034630    6 @#F8    ,??9L    PUSHJ	1,34630
000241  254027 034212    5@7#B*    +?88E    JRST	0,@34212(7)
000242  000000 034077       #@_    ???8?    UUO00	0,34077
000243  000000 034340       #C@    ???8p    UUO00	0,34340
000244  000000 034313       #C+    ???8e    UUO00	0,34313
000245  000000 034333       #C;    ???8m    UUO00	0,34333
000246  000000 034076       #@^    ???8?    UUO00	0,34076
000247  000000 034336       #C>    ???8o    UUO00	0,34336
000250  000000 034342       #CB    ???8q    UUO00	0,34342
000251  260040 034412    6 @#D*    ,??9?    PUSHJ	1,34412
000252  200100 000006    0!   &     ????    MOVE	2,6
000253  200240 000011    0"@  )     ????    MOVE	5,11
000254  201150 000000    0)H        &@??    MOVEI	3,0(10)
000255  606740 000200    PW@ "     a^??@    TRNN	17,200
000256  202140 034661    01@#FQ     F?9X    MOVEM	3,34661
000257  625100 700000    RI X      e$???    TLZA	2,700000
000260  200240 036044    0"@#PD     ??<?    MOVE	5,36044
000261  200145 000000    0!E        ?(??    MOVE	3,0(5)
000262  621140 600000    R)@P      d&???    TLZ	3,600000
000263  316140 000002    9Q@  "    3F???    CAMN	3,2
000264  254000 034244    5@ #BD    +??8R    JRST	0,34244
000265  252240 034242    52@#BB    *J?8Q    AOBJP	5,34242
000266  252240 034242    52@#BB    *J?8Q    AOBJP	5,34242
000267  335145 000000    ;IE       7&(??    SKIPGE	3,0(5)
000270  254000 034232    5@ #B:    +??8M    JRST	0,34232
000271  254000 034236    5@ #B>    +??8O    JRST	0,34236
000272  302240 034666    82@#FV    0J?9[    CAIE	5,34666
000273  254000 034230    5@ #B8    +??8L    JRST	0,34230
000274  200145 000000    0!E        ?(??    MOVE	3,0(5)
000275  263040 000000    68@       ,b???    POPJ	1,0
000276  260040 034412    6 @#D*    ,??9?    PUSHJ	1,34412
000277  554200 000006    MB   &    [????    HLRZ	4,6
000300  602340 000001    P3@  !    `N???    TRNE	7,1
000301  270300 034657    7# #FO    .??9W    ADD	6,34657
000302  602340 000002    P3@  "    `N???    TRNE	7,2
000303  270200 034657    7" #FO    .??9W    ADD	4,34657
000304  504300 000004    HC   $    Q????    HRL	6,4
000305  263040 000000    68@       ,b???    POPJ	1,0
000306  504200 000011    HB   )    Q????    HRL	4,11
000307  274440 036045    7D@#PE    /??<?    SUB	11,36045
000310  540200 000011    L"   )    X????    HRR	4,11
000311  251205 777777    5*%___    *(/??    BLT	4,777777(5)
000312  254000 034267    5@ #BW    +??8[    JRST	0,34267
000313  261040 034055    6(@#@M    ,"?8?    PUSH	1,34055
000314  274440 036046    7D@#PF    /??<?    SUB	11,36046
000315  202111 000000    01)        DH??    MOVEM	2,0(11)
000316  202311 000001    03)  !     LH??    MOVEM	6,1(11)
000317  550200 000011    M"   )    Z????    HRRZ	4,11
000320  606740 000200    PW@ "     a^??@    TRNN	17,200
000321  313200 034642    9: #FB    2h?9Q    CAMLE	4,34642
000322  254000 035207    5@ #J'    +??:C    JRST	0,35207
000323  254000 034034    5@ #@<    +??8?    JRST	0,34034
000324  260040 034412    6 @#D*    ,??9?    PUSHJ	1,34412
000325  603300 100000    P; (      `l???    TLNE	6,100000
000326  270300 034657    7# #FO    .??9W    ADD	6,34657
000327  505300 100000    HK (      Q,???    HRLI	6,100000
000330  325240 034064    :J@#@T    5*?8?    JUMPGE	5,34064
000331  200145 000000    0!E        ?(??    MOVE	3,0(5)
000332  603140 200000    P9@0      `f???    TLNE	3,200000
000333  254000 034307    5@ #C'    +??8c    JRST	0,34307
000334  260040 034256    6 @#BN    ,??8W    PUSHJ	1,34256
000335  202305 000000    03%        L(??    MOVEM	6,0(5)
000336  254000 034006    5@ #@&    +??8?    JRST	0,34006
000337  550140 000006    M!@  &    Z????    HRRZ	3,6
000340  200305 000001    0#%  !     ?(??    MOVE	6,1(5)
000341  260040 034151    6 @#AI    ,??84    PUSHJ	1,34151
000342  254000 034006    5@ #@&    +??8?    JRST	0,34006
000343  325240 034006    :J@#@&    5*?8?    JUMPGE	5,34006
000344  200300 000005    0#   %     ????    MOVE	6,5
000345  661100 040000    V) $      l$?@?    TLO	2,40000
000346  260040 034223    6 @#B3    ,??8I    PUSHJ	1,34223
000347  436106 000000    CQ&       GD0??    IORM	2,0(6)
000350  325240 034006    :J@#@&    5*?8?    JUMPGE	5,34006
000351  607140 200000    PY@0      af???    TLNN	3,200000
000352  254000 034006    5@ #@&    +??8?    JRST	0,34006
000353  200145 000001    0!E  !     ?(??    MOVE	3,1(5)
000354  202140 034653    01@#FK     F?9U    MOVEM	3,34653
000355  552240 034654    M2@#FL    ZJ?9V    HRRZM	5,34654
000356  271240 000002    7*@  "    .*???    ADDI	5,2
000357  260040 034115    6 @#A-    ,??8&    PUSHJ	1,34115
000360  200240 000011    0"@  )     ????    MOVE	5,11
000361  261040 034055    6(@#@M    ,"?8?    PUSH	1,34055
000362  254000 034133    5@ #A;    +??8-    JRST	0,34133
000363  321240 034006    :*@#@&    4*?8?    JUMPL	5,34006
000364  201300 000000    0+         ,???    MOVEI	6,0
000365  254000 034064    5@ #@T    +??8?    JRST	0,34064
000366  202300 034651    03 #FI     L?9T    MOVEM	6,34651
000367  254000 034006    5@ #@&    +??8?    JRST	0,34006
000370  270600 034652    7& #FJ    .??9U    ADD	14,34652
000371  254000 034013    5@ #@+    +??8?    JRST	0,34013
000372  201320 034224    0+0#B4     -?8J    MOVEI	6,@34224
000373  660740 000400    V'@ $     l????    TRO	17,400
000374  254000 034101    5@ #A!    +??8     JRST	0,34101
000375  660740 001000    V'@ (     l????    TRO	17,1000
000376  254000 034404    5@ #D$    +??9?    JRST	0,34404
000377  306100 000012    8Q   *    1D???    CAIN	2,12
000400  254000 034407    5@ #D'    +??9?    JRST	0,34407
000401  553000 000006    M8   &    Z`???    HRRZS	0,6
000402  306100 000001    8Q   !    1D???    CAIN	2,1
000403  302300 000005    83   %    0L???    CAIE	6,5
000404  306100 000011    8Q   )    1D???    CAIN	2,11
000405  350000 034655    =  #FM    :??9V    AOS	0,34655
000406  254000 034411    5@ #D)    +??9?    JRST	0,34411
000407  602740 001000    P7@ (     `^???    TRNE	17,1000
000410  254000 034347    5@ #CG    +??8s    JRST	0,34347
000411  306100 000005    8Q   %    1D???    CAIN	2,5
000412  254000 034405    5@ #D%    +??9?    JRST	0,34405
000413  260040 034412    6 @#D*    ,??9?    PUSHJ	1,34412
000414  306100 000004    8Q   $    1D???    CAIN	2,4
000415  607300 040000    P[ $      al?@?    TLNN	6,40000
000416  254000 034411    5@ #D)    +??9?    JRST	0,34411
000417  254000 034410    5@ #D(    +??9?    JRST	0,34410
000420  660740 000100    V'@ !     l???     TRO	17,100
000421  260040 034412    6 @#D*    ,??9?    PUSHJ	1,34412
000422  325300 034371    :K #CY    5,?8|    JUMPGE	6,34371
000423  620740 000100    R'@ !     d???     TRZ	17,100
000424  260040 034222    6 @#B2    ,??8I    PUSHJ	1,34222
000425  325240 034401    :J@#D!    5*?9?    JUMPGE	5,34401
000426  602740 001000    P7@ (     `^???    TRNE	17,1000
000427  254000 034402    5@ #D"    +??9?    JRST	0,34402
000430  603140 200000    P9@0      `f???    TLNE	3,200000
000431  641300 200000    T+ 0      h,???    TLC	6,200000
000432  603300 200000    P; 0      `l???    TLNE	6,200000
000433  254000 034370    5@ #CX    +??8|    JRST	0,34370
000434  402000 034655    @0 #FM    @@?9V    SETZM	0,34655
000435  260040 034412    6 @#D*    ,??9?    PUSHJ	1,34412
000436  325300 034374    :K #C\    5,?8~    JUMPGE	6,34374
000437  375000 034655    ?H #FM    ? ?9V    SOSGE	0,34655
000440  620740 001100    R'@ )     d???     TRZ	17,1100
000441  261040 034411    6(@#D)    ,"?9?    PUSH	1,34411
000442  371000 034644    ?( #FD    > ?9R    SOSL	0,34644
000443  254000 034615    5@ #F-    +??9F    JRST	0,34615
000444  260040 034615    6 @#F-    ,??9F    PUSHJ	1,34615
000445  346500 034666    <U #FV    9T?9[    AOJN	12,34666
000446  254013 000000    5@+       +?X??    JRST	0,0(13)
000447  260040 034615    6 @#F-    ,??9F    PUSHJ	1,34615
000450  135100 036047    +I #PG    ?$?<?    LDB	2,36047
000451  202100 034644    01 #FD     D?9R    MOVEM	2,34644
000452  205100 770000    0I _      !$?p?    MOVSI	2,770000
000453  412100 034646    A1 #FF    BD?9S    ANDCAM	2,34646
000454  135100 036050    +I #PH    ?$?<?    LDB	2,36050
000455  200040 034647    0 @#FG     ??9S    MOVE	1,34647
000456  323300 035647    :; #NG    4l?;S    JUMPLE	6,35647
000457  303100 000013    89   +    0d???    CAILE	2,13
000460  254000 035246    5@ #JF    +??:S    JRST	0,35246
000461  602740 000100    P7@ !     `^??     TRNE	17,100
000462  254000 034357    5@ #CO    +??8w    JRST	0,34357
000463  254022 034434    5@2#D<    +??9?    JRST	0,@34434(2)
000464  000000 035246       #JF    ???:S    UUO00	0,35246
000465  000000 034452       #DJ    ???9?    UUO00	0,34452
000466  000000 034005       #@%    ???8?    UUO00	0,34005
000467  000000 034004       #@$    ???8?    UUO00	0,34004
000470  000000 034565       #EU    ???9:    UUO00	0,34565
000471  000000 034404       #D$    ???9?    UUO00	0,34404
000472  000000 035246       #JF    ???:S    UUO00	0,35246
000473  000000 034447       #DG    ???9?    UUO00	0,34447
000474  000000 034544       #ED    ???92    UUO00	0,34544
000475  000000 034345       #CE    ???8r    UUO00	0,34345
000476  400000 034411    @  #D)    @??9?    SETZ	0,34411
000477  260040 034412    6 @#D*    ,??9?    PUSHJ	1,34412
000500  202300 034654    03 #FL     L?9V    MOVEM	6,34654
000501  201300 000000    0+         ,???    MOVEI	6,0
000502  271300 034471    7+ #DY    .,?9?    ADDI	6,34471
000503  542300 034470    L3 #DX    XL?9?    HRRM	6,34470
000504  241300 000004    4+   $    (,???    ROT	6,4
000505  137300 036051    +[ #PI    ?l?<?    DPB	6,36051
000506  660740 000210    V'@ "(    l???D    TRO	17,210
000507  542400 034627    L4 #F7    XP?9K    HRRM	10,34627
000510  201160 034224    0)P#B4     '?8J    MOVEI	3,@34224
000511  202140 034661    01@#FQ     F?9X    MOVEM	3,34661
000512  201400 034653    0, #FK     0?9U    MOVEI	10,34653
000513  265540 034006    6M@#@&    -6?8?    JSP	13,34006
000514  620740 000210    R'@ "(    d???D    TRZ	17,210
000515  550400 034627    M$ #F7    Z??9K    HRRZ	10,34627
000516  403600 034641    @> #FA    @x?9P    SETZB	14,34641
000517  200240 034653    0"@#FK     ??9U    MOVE	5,34653
000520  254020 034470    5@0#DX    +??9?    JRST	0,@34470
000521  000000 034535       #E=    ???9.    UUO00	0,34535
000522  000000 034501       #E!    ???9     UUO00	0,34501
000523  000000 034505       #E%    ???9"    UUO00	0,34505
000524  000000 035345       #KE    ???:r    UUO00	0,35345
000525  000000 034513       #E+    ???9%    UUO00	0,34513
000526  000000 034516       #E.    ???9'    UUO00	0,34516
000527  000000 034522       #E2    ???9)    UUO00	0,34522
000530  000000 034524       #E4    ???9*    UUO00	0,34524
000531  322240 034503    :2@#E#    4J?9!    JUMPE	5,34503
000532  202240 034643    02@#FC     J?9Q    MOVEM	5,34643
000533  201540 034417    0-@#D/     6?9?    MOVEI	13,34417
000534  254000 034417    5@ #D/    +??9?    JRST	0,34417
000535  660740 000020    V'@  0    l????    TRO	17,20
000536  542240 034621    L2@#F1    XJ?9H    HRRM	5,34621
000537  200400 000005    0$   %     ????    MOVE	10,5
000540  201240 034621    0*@#F1     *?9H    MOVEI	5,34621
000541  542240 034004    L2@#@$    XJ?8?    HRRM	5,34004
000542  254000 034503    5@ #E#    +??9!    JRST	0,34503
000543  620740 000020    R'@  0    d????    TRZ	17,20
000544  201240 034657    0*@#FO     *?9W    MOVEI	5,34657
000545  254000 034511    5@ #E)    +??9$    JRST	0,34511
000546  320240 034503    :"@#E#    4??9!    JUMP	5,34503
000547  660740 001100    V'@ )     l???     TRO	17,1100
000550  402000 034655    @0 #FM    @@?9V    SETZM	0,34655
000551  254000 034503    5@ #E#    +??9!    JRST	0,34503
000552  542240 034224    L2@#B4    XJ?8J    HRRM	5,34224
000553  254000 034503    5@ #E#    +??9!    JRST	0,34503
000554  200140 034653    0!@#FK     ??9U    MOVE	3,34653
000555  616140 036052    QQ@#PJ    cF?<?    TDNN	3,36052
000556  434140 036053    CA@#PK    G??<?    IOR	3,36053
000557  200200 034654    0" #FL     ??9V    MOVE	4,34654
000560  200240 034655    0"@#FM     ??9V    MOVE	5,34655
000561  256000 000003    5P   #    +@???    XCT	0,3
000562  202200 034663    02 #FS     H?9Y    MOVEM	4,34663
000563  202240 034665    02@#FU     J?9Z    MOVEM	5,34665
000564  254000 034503    5@ #E#    +??9!    JRST	0,34503
000565  200300 034654    0# #FL     ??9V    MOVE	6,34654
000566  260040 034222    6 @#B2    ,??8I    PUSHJ	1,34222
000567  200300 034653    0# #FK     ??9U    MOVE	6,34653
000570  201340 000100    0+@ !      .??     MOVEI	7,100
000571  660740 000400    V'@ $     l????    TRO	17,400
000572  260040 034102    6 @#A"    ,??8!    PUSHJ	1,34102
000573  254000 034503    5@ #E#    +??9!    JRST	0,34503
000574  210240 034644    1"@#FD    "??9R    MOVN	5,34644
000575  504200 000011    HB   )    Q????    HRL	4,11
000576  272240 000011    72@  )    .J???    ADDM	5,11
000577  540200 000011    L"   )    X????    HRR	4,11
000600  272240 033776    72@#?^    .J?7?    ADDM	5,33776
000601  517000 000005    IX   %    S`???    HRLZS	0,5
000602  273240 033776    7:@#?^    .j?7?    ADDB	5,33776
000603  251205 777777    5*%___    *(/??    BLT	4,777777(5)
000604  360240 000010    >"@  (    <????    SOJ	5,10
000605  260040 034412    6 @#D*    ,??9?    PUSHJ	1,34412
000606  135340 036054    +K@#PL    ?.?<?    LDB	7,36054
000607  621300 300000    R+ 8      d,???    TLZ	6,300000
000610  661300 100000    V+ (      l,???    TLO	6,100000
000611  261240 000006    6*@  &    ,*???    PUSH	5,6
000612  260040 034246    6 @#BF    ,??8S    PUSHJ	1,34246
000613  261240 000006    6*@  &    ,*???    PUSH	5,6
000614  254000 034555    5@ #EM    +??96    JRST	0,34555
000615  260040 034412    6 @#D*    ,??9?    PUSHJ	1,34412
000616  200100 000006    0!   &     ????    MOVE	2,6
000617  200300 034657    0# #FO     ??9W    MOVE	6,34657
000620  504300 000010    HC   (    Q????    HRL	6,10
000621  603100 040000    P9 $      `d?@?    TLNE	2,40000
000622  552400 034657    M4 #FO    ZP?9W    HRRZM	10,34657
000623  661100 740000    V) \      l$?@?    TLO	2,740000
000624  260040 034264    6 @#BT    ,??8Z    PUSHJ	1,34264
000625  200140 033776    0!@#?^     ??7?    MOVE	3,33776
000626  201251 777776    0*I__^     *O??    MOVEI	5,777776(11)
000627  504240 000011    HB@  )    Q????    HRL	5,11
000630  540440 000005    L$@  %    X????    HRR	11,5
000631  251243 777775    5*C__]    **??~    BLT	5,777775(3)
000632  550240 000011    M"@  )    Z????    HRRZ	5,11
000633  621100 140000    R) ,      d$?@?    TLZ	2,140000
000634  202103 777776    01#__^     D???    MOVEM	2,777776(3)
000635  202303 777777    03#___     L???    MOVEM	6,777777(3)
000636  260040 035146    6 @#IF    ,??:3    PUSHJ	1,35146
000637  205200 740000    0J \      !(?@?    MOVSI	4,740000
000640  331000 034444    ;( #DD    6 ?9?    SKIPL	0,34444
000641  412203 000000    A2#       BH???    ANDCAM	4,0(3)
000642  513000 034224    I8 #B4    R`?8J    HLLZS	0,34224
000643  260040 035332    6 @#K:    ,??:m    PUSHJ	1,35332
000644  254000 034411    5@ #D)    +??9?    JRST	0,34411
000645  260040 034622    6 @#F2    ,??9I    PUSHJ	1,34622
000646  255200 034617    5J #F/    +(?9G    JFCL	4,34617
000647  270500 000006    7%   &    .????    ADD	12,6
000650  255200 036055    5J #PM    +(?<?    JFCL	4,36055
000651  263040 000000    68@       ,b???    POPJ	1,0
000652  201300 200000    0+ 0       ,???    MOVEI	6,200000
000653  710740 000010    Y'@  (    r????    CONSO	104,10
000654  365300 034623    >K #F3    =,?9I    SOJGE	6,34623
000655  321300 034640    :+ #F@    4,?9P    JUMPL	6,34640
000656  710440 000006    Y$@  &    r????    DATAI	104,6
000657  263040 000000    68@       ,b???    POPJ	1,0
000660  134340 034646    +C@#FF    ???9S    ILDB	7,34646
000661  331000 034646    ;( #FF    6 ?9S    SKIPL	0,34646
000662  263040 000000    68@       ,b???    POPJ	1,0
000663  250300 034645    5# #FE    *??9R    EXCH	6,34645
000664  370000 034646    ?  #FF    >??9S    SOS	0,34646
000665  260040 034412    6 @#D*    ,??9?    PUSHJ	1,34412
000666  250300 034645    5# #FE    *??9R    EXCH	6,34645
000667  135340 034646    +K@#FF    ?.?9S    LDB	7,34646
000670  263040 000000    68@       ,b???    POPJ	1,0
000671  104025 102363    (@5(3S    ??)?y    XX104	0,@102363(5)
000672  777773 034646    __[#FF    ??X9S    CONSO	774,@34646(13)
000673  000300 034645     # #FE    ???9R    UUO00	6,34645
000674  000000 000000              ?????    UUO00	0,0
000675  000000 033776       #?^    ???7?    UUO00	0,33776
000676  000000 000000              ?????    UUO00	0,0
000677  000000 010000       !      ?????    UUO00	0,10000
000700  005542 737430     MB[\8    ?6???    UUO05	13,737430(2)
000701  776656 034656    _VN#FN    ?Zp9W    CONI	764,34656(16)
000702  675426 161000    WL6.(     o11b?    TSOA	10,@161000(6)
000703  000000 000100        !     ????     UUO00	0,100
000704  675545 050000    WME%      o6(P?    TSOA	13,50000(5)
000705  000000 000000              ?????    UUO00	0,0
000706  674523 664062    WE3V@R    o??h?    TDOA	12,@664062(3)
000707  000000 000000              ?????    UUO00	0,0
000710  674523 664063    WE3V@S    o??h?    TDOA	12,@664063(3)
000711  000000 000000              ?????    UUO00	0,0
000712  007000 435363     X CKS    ?`?:y    UUO07	0,435363
000713  254000 035033    5@ #H;    +??:?    JRST	0,35033
000714  000000 000000              ?????    UUO00	0,0
000715  261040 000004    6(@  $    ,"???    PUSH	1,4
000716  261040 000006    6(@  &    ,"???    PUSH	1,6
000717  261040 000007    6(@  '    ,"???    PUSH	1,7
000720  135200 036056    +J #PN    ?(?<?    LDB	4,36056
000721  465200 000007    FJ   '    M(???    ORCMI	4,7
000722  200340 036057    0#@#PO     ??<?    MOVE	7,36057
000723  260040 035315    6 @#K-    ,??:f    PUSHJ	1,35315
000724  342200 034710    <2 #G(    8H?9d    AOJE	4,34710
000725  260040 034736    6 @#G>    ,??9o    PUSHJ	1,34736
000726  550300 000010    M#   (    Z????    HRRZ	6,10
000727  260040 034741    6 @#GA    ,??9p    PUSHJ	1,34741
000730  342200 034710    <2 #G(    8H?9d    AOJE	4,34710
000731  260040 034736    6 @#G>    ,??9o    PUSHJ	1,34736
000732  260040 034715    6 @#G-    ,??9f    PUSHJ	1,34715
000733  346200 036060    <R #PP    9H?<?    AOJN	4,36060
000734  260040 034760    6 @#GP    ,??9x    PUSHJ	1,34760
000735  262040 000007    60@  '    ,B???    POP	1,7
000736  262040 000006    60@  &    ,B???    POP	1,6
000737  262040 000004    60@  $    ,B???    POP	1,4
000740  254120 034670    5A0#FX    +??9\    JRST	2,@34670
000741  200300 000002    0#   "     ????    MOVE	6,2
000742  607300 040000    P[ $      al?@?    TLNN	6,40000
000743  256500 034760    5U #GP    +T?9x    XCT	12,34760
000744  621300 740000    R+ \      d,?@?    TLZ	6,740000
000745  231300 000050    3+   H    &,???    IDIVI	6,50
000746  506341 000000    HSA       QN???    HRLM	7,0(1)
000747  322300 034725    :3 #G5    4L?9j    JUMPE	6,34725
000750  260040 034721    6 @#G1    ,??9h    PUSHJ	1,34721
000751  554301 000000    MC!       [????    HLRZ	6,0(1)
000752  271300 000257    7+  "O    .,??W    ADDI	6,257
000753  303300 000271    8;  "Y    0l??\    CAILE	6,271
000754  271300 000007    7+   '    .,???    ADDI	6,7
000755  303300 000332    8;  #:    0l??m    CAILE	6,332
000756  275300 000070    7K   X    /,???    SUBI	6,70
000757  306300 000243    8S  "C    1L??Q    CAIN	6,243
000760  201300 000256    0+  "N     ,??W    MOVEI	6,256
000761  306300 000257    8S  "O    1L??W    CAIN	6,257
000762  201300 000040    0+   @     ,???    MOVEI	6,40
000763  254000 034771    5@ #GY    +??9|    JRST	0,34771
000764  261040 035112    6(@#I*    ,"?:%    PUSH	1,35112
000765  334340 034554    ;C@#EL    7??96    SKIPA	7,34554
000766  201340 000012    0+@  *     .???    MOVEI	7,12
000767  542340 034746    L3@#GF    XN?9s    HRRM	7,34746
000770  246300 777735    4S __=    )L??n    LSHC	6,777735
000771  242340 777777    43@___    (N???    LSH	7,777777
000772  235300 000010    3K   (    ',???    DIVI	6,10
000773  506341 000000    HSA       QN???    HRLM	7,0(1)
000774  322300 034752    :3 #GJ    4L?9u    JUMPE	6,34752
000775  260040 034744    6 @#GD    ,??9r    PUSHJ	1,34744
000776  554301 000000    MC!       [????    HLRZ	6,0(1)
000777  271300 000260    7+  "P    .,??X    ADDI	6,260
001000  254000 034771    5@ #GY    +??9|    JRST	0,34771
001001  260040 034736    6 @#G>    ,??9o    PUSHJ	1,34736
001002  260040 034736    6 @#G>    ,??9o    PUSHJ	1,34736
001003  254000 034736    5@ #G>    +??9o    JRST	0,34736
001004  264640 035007    6F@#H'    -??:?    JSR	15,35007
001005  264500 035007    6E #H'    -??:?    JSR	12,35007
001006  263040 000000    68@       ,b???    POPJ	1,0
001007  201300 000012    0+   *     ,???    MOVEI	6,12
001010  622740 000002    R7@  "    d^???    TRZE	17,2
001011  254000 034775    5@ #G]    +??9~    JRST	0,34775
001012  712340 000040    Y3@  @    rN???    CONSO	120,40
001013  254000 034766    5@ #GV    +??9{    JRST	0,34766
001014  712040 000006    Y0@  &    rB???    DATAI	120,6
001015  405300 000177    @K  !_    A,???    ANDI	6,177
001016  302300 000176    83  !^    0L???    CAIE	6,176
001017  306300 000175    8S  !]    1L??>    CAIN	6,175
001020  254000 035005    5@ #H%    +??:?    JRST	0,35005
001021  712300 000020    Y3   0    rL???    CONSZ	120,20
001022  254000 034775    5@ #G]    +??9~    JRST	0,34775
001023  712140 000006    Y1@  &    rF???    DATAO	120,6
001024  712300 000040    Y3   @    rL???    CONSZ	120,40
001025  712040 000006    Y0@  &    rB???    DATAI	120,6
001026  302300 000377    83  #_    0L???    CAIE	6,377
001027  263040 000000    68@       ,b???    POPJ	1,0
001030  254000 035033    5@ #H;    +??:?    JRST	0,35033
001031  256200 034760    5R #GP    +H?9x    XCT	4,34760
001032  263040 000000    68@       ,b???    POPJ	1,0
001033  000000 000000              ?????    UUO00	0,0
001034  261040 000006    6(@  &    ,"???    PUSH	1,6
001035  200300 035007    0# #H'     ??:?    MOVE	6,35007
001036  135300 036061    +K #PQ    ?,?<?    LDB	6,36061
001037  260040 034771    6 @#GY    ,??9|    PUSHJ	1,34771
001040  262040 000006    60@  &    ,B???    POP	1,6
001041  254120 035007    5A0#H'    +??:?    JRST	2,@35007
001042  316100 036062    9Q #PR    3D?<?    CAMN	2,36062
001043  254000 035033    5@ #H;    +??:?    JRST	0,35033
001044  135300 000002    +K   "    ?,???    LDB	6,2
001045  270100 036063    7! #PS    .??<?    ADD	2,36063
001046  335000 000002    ;H   "    7 ???    SKIPGE	0,2
001047  274100 036064    7A #PT    /??<?    SUB	2,36064
001050  260040 034771    6 @#GY    ,??9|    PUSHJ	1,34771
001051  254000 035040    5@ #H@    +??:?    JRST	0,35040
001052  700200 635550    X" SMH    p??;4    CONO	0,635550
001053  205740 000001    0O@  !    !>???    MOVSI	17,1
001054  720200 000000    Z"        t????    CONO	200,0
001055  700200 003003    X"  8#    p????    CONO	0,3003
001056  700600 012260    X& !2P    p???X    CONO	4,12260
001057  200100 036062    0! #PR     ??<?    MOVE	2,36062
001060  202100 036031    01 #P9     D?<?    MOVEM	2,36031
001061  200040 036065    0 @#PU     ??<?    MOVE	1,36065
001062  260040 034760    6 @#GP    ,??9x    PUSHJ	1,34760
001063  620740 000002    R'@  "    d????    TRZ	17,2
001064  620740 000001    R'@  !    d????    TRZ	17,1
001065  260040 034763    6 @#GS    ,??9y    PUSHJ	1,34763
001066  306300 000177    8S  !_    1L???    CAIN	6,177
001067  254000 035016    5@ #H.    +??:?    JRST	0,35016
001070  136300 000002    +S   "    ?L???    IDPB	6,2
001071  316100 036066    9Q #PV    3D?<?    CAMN	2,36066
001072  254000 035016    5@ #H.    +??:?    JRST	0,35016
001073  306300 000015    8S   -    1L???    CAIN	6,15
001074  664740 000002    VG@  "    m????    TROA	17,2
001075  302300 000175    83  !]    0L??>    CAIE	6,175
001076  254000 035040    5@ #H@    +??:?    JRST	0,35040
001077  666740 000001    VW@  !    m^???    TRON	17,1
001100  254000 035041    5@ #HA    +??:?    JRST	0,35041
001101  260040 034760    6 @#GP    ,??9x    PUSHJ	1,34760
001102  201240 000000    0*@        *???    MOVEI	5,0
001103  620740 000004    R'@  $    d????    TRZ	17,4
001104  134300 036031    +C #P9    ???<?    ILDB	6,36031
001105  301300 000060    8+   P    0,???    CAIL	6,60
001106  303300 000071    8;   Y    0l???    CAILE	6,71
001107  254000 035070    5@ #HX    +??:?    JRST	0,35070
001110  242240 000003    42@  #    (J???    LSH	5,3
001111  271246 777720    7*F__0    .*7?h    ADDI	5,777720(6)
001112  660740 000004    V'@  $    l????    TRO	17,4
001113  254000 035060    5@ #HP    +??:?    JRST	0,35060
001114  306300 000007    8S   '    1L???    CAIN	6,7
001115  254000 035432    5@ #L:    +??;?    JRST	0,35432
001116  306300 000175    8S  !]    1L??>    CAIN	6,175
001117  254000 035033    5@ #H;    +??:?    JRST	0,35033
001120  301300 000074    8+   \    0,???    CAIL	6,74
001121  303300 000133    8;  !;    0l??-    CAILE	6,133
001122  254000 035056    5@ #HN    +??:?    JRST	0,35056
001123  231300 000004    3+   $    &,???    IDIVI	6,4
001124  135307 035406    +K'#L&    ?,8;?    LDB	6,35406(7)
001125  260046 035104    6 F#I$    ,?0:"    PUSHJ	1,35104(6)
001126  254000 035056    5@ #HN    +??:?    JRST	0,35056
001127  254000 035066    5@ #HV    +??:?    JRST	0,35066
001130  634200 000004    SB   $    g????    TDZA	4,4
001131  201200 000002    0*   "     (???    MOVEI	4,2
001132  602740 000004    P7@  $    `^???    TRNE	17,4
001133  321240 035114    :*@#I,    4*?:&    JUMPL	5,35114
001134  200240 034650    0"@#FH     ??9T    MOVE	5,34650
001135  254000 035114    5@ #I,    +??:&    JRST	0,35114
001136  252240 034760    52@#GP    *J?9x    AOBJP	5,34760
001137  252240 034760    52@#GP    *J?9x    AOBJP	5,34760
001140  331105 000000    ;)%       6$(??    SKIPL	2,0(5)
001141  254000 035113    5@ #I+    +??:%    JRST	0,35113
001142  135340 036067    +K@#PW    ?.?<?    LDB	7,36067
001143  465340 000007    FK@  '    M.???    ORCMI	7,7
001144  346340 035136    <S@#I>    9N?:/    AOJN	7,35136
001145  260040 034715    6 @#G-    ,??9f    PUSHJ	1,34715
001146  260040 034755    6 @#GM    ,??9v    PUSHJ	1,34755
001147  550305 000001    M#%  !    Z?(??    HRRZ	6,1(5)
001150  606740 000004    PW@  $    a^???    TRNN	17,4
001151  336000 000004    ;P   $    7@???    SKIPN	0,4
001152  200305 000001    0#%  !     ?(??    MOVE	6,1(5)
001153  260040 034740    6 @#G@    ,??9p    PUSHJ	1,34740
001154  606740 000004    PW@  $    a^???    TRNN	17,4
001155  254000 035112    5@ #I*    +??:%    JRST	0,35112
001156  252240 034760    52@#GP    *J?9x    AOBJP	5,34760
001157  335005 000001    ;H%  !    7 (??    SKIPGE	0,1(5)
001160  254000 035113    5@ #I+    +??:%    JRST	0,35113
001161  254000 035122    5@ #I2    +??:)    JRST	0,35122
001162  430340 000004    C#@  $    F????    XOR	7,4
001163  346340 035112    <S@#I*    9N?:%    AOJN	7,35112
001164  260040 034736    6 @#G>    ,??9o    PUSHJ	1,34736
001165  254000 035121    5@ #I1    +??:(    JRST	0,35121
001166  200140 033776    0!@#?^     ??7?    MOVE	3,33776
001167  550240 034650    M"@#FH    Z??9T    HRRZ	5,34650
001170  200440 000005    0$@  %     ????    MOVE	11,5
001171  660740 000040    V'@  @    l????    TRO	17,40
001172  306243 000000    8RC       1J???    CAIN	5,0(3)
001173  254000 035203    5@ #J#    +??:A    JRST	0,35203
001174  331105 000000    ;)%       6$(??    SKIPL	2,0(5)
001175  344240 035146    <B@#IF    9??:3    AOJA	5,35146
001176  607100 200000    PY 0      ad???    TLNN	2,200000
001177  344240 035151    <B@#II    9??:4    AOJA	5,35151
001200  603100 040000    P9 $      `d?@?    TLNE	2,40000
001201  602740 000040    P7@  @    `^???    TRNE	17,40
001202  603100 100000    P9 (      `d???    TLNE	2,100000
001203  344240 035151    <B@#II    9??:4    AOJA	5,35151
001204  606740 000040    PW@  @    a^???    TRNN	17,40
001205  331000 034444    ;( #DD    6 ?9?    SKIPL	0,34444
001206  254000 035167    5@ #IW    +??:;    JRST	0,35167
001207  552240 034654    M2@#FL    ZJ?9V    HRRZM	5,34654
001210  271240 000002    7*@  "    .*???    ADDI	5,2
001211  260040 034115    6 @#A-    ,??8&    PUSHJ	1,34115
001212  254000 035146    5@ #IF    +??:3    JRST	0,35146
001213  621100 740000    R) \      d$?@?    TLZ	2,740000
001214  200305 000001    0#%  !     ?(??    MOVE	6,1(5)
001215  205205 000002    0J%  "    !((??    MOVSI	4,2(5)
001216  540200 000005    L"   %    X????    HRR	4,5
001217  251203 777775    5*#__]    *(??~    BLT	4,777775(3)
001220  274140 036046    7A@#PF    /??<?    SUB	3,36046
001221  661100 040000    V) $      l$?@?    TLO	2,40000
001222  606740 000040    PW@  @    a^???    TRNN	17,40
001223  641100 140000    T) ,      h$?@?    TLC	2,140000
001224  202103 000000    01#        D???    MOVEM	2,0(3)
001225  202303 000001    03#  !     L???    MOVEM	6,1(3)
001226  254000 035146    5@ #IF    +??:3    JRST	0,35146
001227  202140 033776    01@#?^     F?7?    MOVEM	3,33776
001230  550200 000011    M"   )    Z????    HRRZ	4,11
001231  274200 000005    7B   %    /????    SUB	4,5
001232  506200 000011    HR   )    QH???    HRLM	4,11
001233  202440 034650    04@#FH     R?9T    MOVEM	11,34650
001234  263040 000000    68@       ,b???    POPJ	1,0
001235  602740 000004    P7@  $    `^???    TRNE	17,4
001236  202240 034643    02@#FC     J?9Q    MOVEM	5,34643
001237  260040 035433    6 @#L;    ,??;?    PUSHJ	1,35433
001240  254020 034643    5@0#FC    +??9Q    JRST	0,@34643
001241  334300 000005    ;C   %    7????    SKIPA	6,5
001242  200305 000000    0#%        ?(??    MOVE	6,0(5)
001243  254000 034740    5@ #G@    +??9p    JRST	0,34740
001244  550240 034650    M"@#FH    Z??9T    HRRZ	5,34650
001245  402000 000047    @0   G    @@???    SETZM	0,47
001246  200100 036070    0! #PX     ??<?    MOVE	2,36070
001247  251105 777777    5)%___    *$/??    BLT	2,777777(5)
001250  200100 036071    0! #PY     ??<?    MOVE	2,36071
001251  251100 036111    5) #Q)    *$?<$    BLT	2,36111
001252  402000 034642    @0 #FB    @@?9Q    SETZM	0,34642
001253  263040 035060    68@#HP    ,b?:?    POPJ	1,35060
001254  710600 000060    Y&   P    r????    CONO	104,60
001255  201100 034622    0) #F2     $?9I    MOVEI	2,34622
001256  254000 035270    5@ #JX    +??:\    JRST	0,35270
001257  200100 036062    0! #PR     ??<?    MOVE	2,36062
001260  202100 036031    01 #P9     D?<?    MOVEM	2,36031
001261  201040 036323    0(@#S3     "?<i    MOVEI	1,36323
001262  261040 035227    6(@#J7    ,"?:K    PUSH	1,35227
001263  202040 034647    00@#FG     B?9S    MOVEM	1,34647
001264  260040 035632    6 @#N:    ,??;M    PUSHJ	1,35632
001265  602300 000001    P3   !    `L???    TRNE	6,1
001266  263040 000000    68@       ,b???    POPJ	1,0
001267  202302 000001    03"  !     L???    MOVEM	6,1(2)
001270  312100 036066    91 #PV    2D?<?    CAME	2,36066
001271  344100 035240    <A #J@    9??:P    AOJA	2,35240
001272  334300 035346    ;C #KF    7??:s    SKIPA	6,35346
001273  200300 000077    0#   _     ????    MOVE	6,77
001274  260040 034771    6 @#GY    ,??9|    PUSHJ	1,34771
001275  254000 035033    5@ #H;    +??:?    JRST	0,35033
001276  622740 000004    R7@  $    d^???    TRZE	17,4
001277  260040 036010    6 @#P(    ,??<?    PUSHJ	1,36010
001300  260040 035773    6 @#O[    ,??;}    PUSHJ	1,35773
001301  260040 035761    6 @#OQ    ,??;x    PUSHJ	1,35761
001302  254000 035272    5@ #JZ    +??:]    JRST	0,35272
001303  202100 036040    01 #P@     D?<?    MOVEM	2,36040
001304  200140 036072    0!@#PZ     ??<?    MOVE	3,36072
001305  202140 035654    01@#NL     F?;V    MOVEM	3,35654
001306  402000 035653    @0 #NK    @@?;U    SETZM	0,35653
001307  200100 036073    0! #P[     ??<?    MOVE	2,36073
001310  202100 035651    01 #NI     D?;T    MOVEM	2,35651
001311  621740 000002    R/@  "    d>???    TLZ	17,2
001312  402000 035652    @0 #NJ    @@?;U    SETZM	0,35652
001313  201100 035632    0) #N:     $?;M    MOVEI	2,35632
001314  542100 034615    L1 #F-    XD?9F    HRRM	2,34615
001315  263040 000000    68@       ,b???    POPJ	1,0
001316  007000 465646     X FNF    ?`?kS    UUO07	0,465646
001317  254000 035033    5@ #H;    +??:?    JRST	0,35033
001320  622740 000004    R7@  $    d^???    TRZE	17,4
001321  260040 036010    6 @#P(    ,??<?    PUSHJ	1,36010
001322  201140 000027    0)@  7     &???    MOVEI	3,27
001323  201240 036122    0*@#Q2     *?<)    MOVEI	5,36122
001324  271240 000002    7*@  "    .*???    ADDI	5,2
001325  336205 000000    ;R%       7H(??    SKIPN	4,0(5)
001326  367140 035300    >Y@#K     =f?:`    SOJG	3,35300
001327  323140 034640    :9@#F@    4f?9P    JUMPLE	3,34640
001330  607200 770000    PZ _      ah?p?    TLNN	4,770000
001331  254000 035302    5@ #K"    +??:a    JRST	0,35302
001332  525340 000604    JK@ &$    U.??B    HRLOI	7,604
001333  260040 035315    6 @#K-    ,??:f    PUSHJ	1,35315
001334  260040 034736    6 @#G>    ,??9o    PUSHJ	1,34736
001335  606340 000001    PS@  !    aN???    TRNN	7,1
001336  254000 035307    5@ #K'    +??:c    JRST	0,35307
001337  260040 034760    6 @#GP    ,??9x    PUSHJ	1,34760
001340  254000 035302    5@ #K"    +??:a    JRST	0,35302
001341  134300 000007    +C   '    ?????    ILDB	6,7
001342  271300 000040    7+   @    .,???    ADDI	6,40
001343  603340 770000    P;@_      `n?p?    TLNE	7,770000
001344  370001 000000    ? !       >????    SOS	0,0(1)
001345  254000 034771    5@ #GY    +??9|    JRST	0,34771
001346  334200 034446    ;B #DF    7??9?    SKIPA	4,34446
001347  201200 034544    0* #ED     (?92    MOVEI	4,34544
001350  202200 034444    02 #DD     H?9?    MOVEM	4,34444
001351  200440 034650    0$@#FH     ??9T    MOVE	11,34650
001352  202040 034647    00@#FG     B?9S    MOVEM	1,34647
001353  403500 034644    @= #FD    @t?9R    SETZB	12,34644
001354  403600 034641    @> #FA    @x?9P    SETZB	14,34641
001355  261040 035336    6(@#K>    ,"?:o    PUSH	1,35336
001356  201100 034657    0) #FO     $?9W    MOVEI	2,34657
001357  542100 034004    L1 #@$    XD?8?    HRRM	2,34004
001360  624740 001770    RG@ /X    e???|    TRZA	17,1770
001361  202240 034657    02@#FO     J?9W    MOVEM	5,34657
001362  263040 034503    68@#E#    ,b?9!    POPJ	1,34503
001363  201440 033776    0,@#?^     2?7?    MOVEI	11,33776
001364  202440 033776    04@#?^     R?7?    MOVEM	11,33776
001365  254000 035207    5@ #J'    +??:C    JRST	0,35207
001366  334240 034652    ;B@#FJ    7??9U    SKIPA	5,34652
001367  550240 034643    M"@#FC    Z??9Q    HRRZ	5,34643
001370  354001 000000    =@!       ;????    AOSA	0,0(1)
001371  202240 034652    02@#FJ     J?9U    MOVEM	5,34652
001372  263040 000007    68@  '    ,b???    POPJ	1,7
001373  202240 034653    02@#FK     J?9U    MOVEM	5,34653
001374  260040 035437    6 @#L?    ,??;?    PUSHJ	1,35437
001375  260040 034222    6 @#B2    ,??8I    PUSHJ	1,34222
001376  200300 034653    0# #FK     ??9U    MOVE	6,34653
001377  660740 000400    V'@ $     l????    TRO	17,400
001400  622740 000004    R7@  $    d^???    TRZE	17,4
001401  254000 034103    5@ #A#    +??8!    JRST	0,34103
001402  254000 035344    5@ #KD    +??:r    JRST	0,35344
001403  542240 034224    L2@#B4    XJ?8J    HRRM	5,34224
001404  263040 000000    68@       ,b???    POPJ	1,0
001405  334240 034657    ;B@#FO    7??9W    SKIPA	5,34657
001406  550240 034650    M"@#FH    Z??9T    HRRZ	5,34650
001407  254000 035344    5@ #KD    +??:r    JRST	0,35344
001410  200400 034642    0$ #FB     ??9Q    MOVE	10,34642
001411  200100 033776    0! #?^     ??7?    MOVE	2,33776
001412  274100 036074    7A #P\    /??<?    SUB	2,36074
001413  275402 000000    7L"       /0???    SUBI	10,0(2)
001414  343400 035376    << #K^    8p?:?    AOJLE	10,35376
001415  006000 645563     P TMS    ?@?K9    UUO06	0,645563
001416  340400 000000    <$        8????    AOJ	10,0
001417  620400 000001    R$   !    d????    TRZ	10,1
001420  507000 000010    HX   (    Q`???    HRLS	0,10
001421  270100 000010    7!   (    .????    ADD	2,10
001422  250100 033776    5! #?^    *??7?    EXCH	2,33776
001423  504100 033776    HA #?^    Q??7?    HRL	2,33776
001424  207000 000002    0X   "    !`???    MOVSS	0,2
001425  251100 033663    5) #>S    *$?7Y    BLT	2,33663
001426  402000 034006    @0 #@&    @@?8?    SETZM	0,34006
001427  260040 035433    6 @#L;    ,??;?    PUSHJ	1,35433
001430  200700 036075    0' #P]     ??<?    MOVE	16,36075
001431  254000 034002    5@ #@"    +??8?    JRST	0,34002
001432  331106 035373    ;)&#K[    6$0:}    SKIPL	2,35373(6)
001433  221106 035373    2)&#K[    $$0:}    IMULI	2,35373(6)
001434  111106 035373    ))&#K[    ?$0:}    XX111	2,35373(6)
001435  001106 035373     )&#K[    ?$0:}    UUO01	2,35373(6)
001436  243111 143001    49),8!    (dIF?    XX243	2,143001(11)
001437  127143 255241    *YC5JA    ?f?ZP    XX127	3,255241(3)
001440  260256 170105    6"N/!%    ,?qp"    PUSHJ	5,170105(16)
001441  143143 143233    ,9C,:;    ?f?FM    FADB	3,143233(3)
001442  217146 216253    1YF1RK    #f2?U    MOVMS	3,216253(6)
001443  124236 231000    *B>3(     ??r2?    XX124	4,@231000(16)
001444  036143 143143    #QC,9C    ?F?F1    UUO36	3,143143(3)
001445  237143 114112    3YC)A*    'f??%    DIVB	3,114112(3)
001446  000000 000000              ?????    UUO00	0,0
001447  700600 011377    X& !+_    p????    CONO	4,11377
001450  201040 000005    0(@  %     "???    MOVEI	1,5
001451  200001 000041    0 !  A     ????    MOVE	0,41(1)
001452  250001 036104    5 !#Q$    *??<"    EXCH	0,36104(1)
001453  202001 000041    00!  A     @???    MOVEM	0,41(1)
001454  365040 035425    >H@#L5    ="?;?    SOJGE	1,35425
001455  254120 035422    5A0#L2    +??;?    JRST	2,@35422
001456  261040 035650    6(@#NH    ,"?;T    PUSH	1,35650
001457  607740 000001    P_@  !    a~???    TLNN	17,1
001460  254000 035433    5@ #L;    +??;?    JRST	0,35433
001461  262040 035422    60@#L2    ,B?;?    POP	1,35422
001462  254000 035423    5@ #L3    +??;?    JRST	0,35423
001463  205200 036411    0J #T)    !(?=?    MOVSI	4,36411
001464  205300 040000    0K $      !,?@?    MOVSI	6,40000
001465  134100 036031    +A #P9    ???<?    ILDB	2,36031
001466  306100 000052    8Q   J    1D???    CAIN	2,52
001467  621300 040000    R+ $      d,?@?    TLZ	6,40000
001470  306100 000052    8Q   J    1D???    CAIN	2,52
001471  254000 035441    5@ #LA    +??;?    JRST	0,35441
001472  306100 000076    8Q   ^    1D???    CAIN	2,76
001473  254000 034222    5@ #B2    +??8I    JRST	0,34222
001474  275100 000057    7I   O    /$???    SUBI	2,57
001475  301100 000022    8)   2    0$???    CAIL	2,22
001476  275100 000007    7I   '    /$???    SUBI	2,7
001477  325100 035457    :I #LO    5$?;?    JUMPGE	2,35457
001500  271100 000061    7)   Q    .$???    ADDI	2,61
001501  306100 000060    8Q   P    1D???    CAIN	2,60
001502  201100 000045    0)   E     $???    MOVEI	2,45
001503  231200 000050    3*   H    &(???    IDIVI	4,50
001504  220100 000004    2!   $    $????    IMUL	2,4
001505  272100 000006    71   &    .D???    ADDM	2,6
001506  254000 035441    5@ #LA    +??;?    JRST	0,35441
001507  000000 000000              ?????    UUO00	0,0
001510  721340 000700    Z+@ '     t.??`    CONSO	210,700
001511  603740 000010    P?@  (    `~???    TLNE	17,10
001512  254000 035501    5@ #M!    +??;     JRST	0,35501
001513  261040 000006    6(@  &    ,"???    PUSH	1,6
001514  200300 035652    0# #NJ     ??;U    MOVE	6,35652
001515  307300 000400    8[  $     1l???    CAIG	6,400
001516  260040 035670    6 @#NX    ,??;\    PUSHJ	1,35670
001517  721340 000700    Z+@ '     t.??`    CONSO	210,700
001520  372000 036035    ?0 #P=    >@?<?    SOSE	0,36035
001521  254000 035500    5@ #M     +??;     JRST	0,35500
001522  721200 005002    Z*  H"    t(???    CONO	210,5002
001523  661740 000010    V/@  (    l>???    TLO	17,10
001524  262040 000006    60@  &    ,B???    POP	1,6
001525  700300 010000    X# !      p????    CONSZ	0,10000
001526  007000 515455     X ILM    ?`???    UUO07	0,515455
001527  700200 431443    X" C,C    p??3?    CONO	0,431443
001530  254520 035463    5E0#LS    +??;?    JRST	12,@35463
001531  000000 000000              ?????    UUO00	0,0
001532  720040 035506    Z @#M&    t??;#    DATAI	200,35506
001533  350000 035506    =  #M&    :??;#    AOS	0,35506
001534  373000 036032    ?8 #P:    >`?<?    SOSLE	0,36032
001535  254520 035505    5E0#M%    +??;"    JRST	12,@35505
001536  700600 001100    X&  )     p???     CONO	4,1100
001537  720200 000001    Z"   !    t????    CONO	200,1
001540  254520 035505    5E0#M%    +??;"    JRST	12,@35505
001541  721700 000016    Z/   .    t<???    CONSZ	214,16
001542  254000 035543    5@ #MC    +??;1    JRST	0,35543
001543  202100 036033    01 #P;     D?<?    MOVEM	2,36033
001544  202140 036034    01@#P<     F?<?    MOVEM	3,36034
001545  201100 000020    0)   0     $???    MOVEI	2,20
001546  720040 000003    Z @  #    t????    DATAI	200,3
001547  275140 035523    7I@#M3    /&?;)    SUBI	3,35523
001550  322140 035551    :1@#MI    4F?;4    JUMPE	3,35551
001551  607740 000004    P_@  $    a~???    TLNN	17,4
001552  374000 000003    ?@   #    ?????    SOSA	0,3
001553  350000 000003    =    #    :????    AOS	0,3
001554  202140 036041    01@#PA     F?<?    MOVEM	3,36041
001555  271140 000003    7)@  #    .&???    ADDI	3,3
001556  321140 035535    :)@#M=    4&?;.    JUMPL	3,35535
001557  307140 000006    8Y@  &    1f???    CAIG	3,6
001560  254000 035546    5@ #MF    +??;3    JRST	0,35546
001561  627740 000004    R_@  $    e~???    TLZN	17,4
001562  660100 002000    V!  0     l????    TRO	2,2000
001563  303140 000002    89@  "    0f???    CAILE	3,2
001564  644100 012000    TA !0     i????    TRCA	2,12000
001565  661740 000004    V/@  $    l>???    TLO	17,4
001566  721202 320202    Z*":""    t(? A    CONO	210,320202(2)
001567  720200 004011    Z"  @)    t????    CONO	200,4011
001570  254000 035565    5@ #MU    +??;:    JRST	0,35565
001571  660100 003000    V!  8     l????    TRO	2,3000
001572  607740 000004    P_@  $    a~???    TLNN	17,4
001573  660100 010000    V! !      l????    TRO	2,10000
001574  254000 035542    5@ #MB    +??;1    JRST	0,35542
001575  332000 036041    ;0 #PA    6@?<?    SKIPE	0,36041
001576  254000 035545    5@ #ME    +??;2    JRST	0,35545
001577  200140 036037    0!@#P?     ??<?    MOVE	3,36037
001600  607740 000004    P_@  $    a~???    TLNN	17,4
001601  664100 010000    VA !      m????    TROA	2,10000
001602  275140 000177    7I@ !_    /&???    SUBI	3,177
001603  202140 035506    01@#M&     F?;#    MOVEM	3,35506
001604  721202 360302    Z*">#"    t(?`a    CONO	210,360302(2)
001605  205100 350000    0I =      !$?P?    MOVSI	2,350000
001606  607740 000004    P_@  $    a~???    TLNN	17,4
001607  205100 370000    0I ?      !$?p?    MOVSI	2,370000
001610  502100 035507    H1 #M'    PD?;#    HLLM	2,35507
001611  200100 036033    0! #P;     ??<?    MOVE	2,36033
001612  200140 036034    0!@#P<     ??<?    MOVE	3,36034
001613  254520 035505    5E0#M%    +??;"    JRST	12,@35505
001614  000000 000000              ?????    UUO00	0,0
001615  261040 000002    6(@  "    ,"???    PUSH	1,2
001616  721300 004000    Z+  @     t,???    CONSZ	210,4000
001617  721740 000020    Z/@  0    t>???    CONSO	214,20
001620  254000 035601    5@ #N!    +??;@    JRST	0,35601
001621  661740 000001    V/@  !    l>???    TLO	17,1
001622  621740 000010    R/@  (    d>???    TLZ	17,10
001623  721200 000000    Z*        t(???    CONO	210,0
001624  254000 035620    5@ #N0    +??;H    JRST	0,35620
001625  721740 000017    Z/@  /    t>???    CONSO	214,17
001626  254000 035620    5@ #N0    +??;H    JRST	0,35620
001627  721340 000700    Z+@ '     t.??`    CONSO	210,700
001630  254000 035577    5@ #M_    +??;?    JRST	0,35577
001631  700740 000100    X'@ !     p???     CONSO	4,100
001632  721700 000016    Z/   .    t<???    CONSZ	214,16
001633  254000 035622    5@ #N2    +??;I    JRST	0,35622
001634  201100 000200    0)  "      $??@    MOVEI	2,200
001635  272100 035652    71 #NJ    .D?;U    ADDM	2,35652
001636  201100 000030    0)   8     $???    MOVEI	2,30
001637  202100 036035    01 #P=     D?<?    MOVEM	2,36035
001640  721240 000002    Z*@  "    t*???    CONI	210,2
001641  620100 000700    R!  '     d???`    TRZ	2,700
001642  721202 000000    Z*"       t(???    CONO	210,0(2)
001643  700600 004020    X&  @0    p????    CONO	4,4020
001644  262040 000002    60@  "    ,B???    POP	1,2
001645  254520 035570    5E0#MX    +??;<    JRST	12,@35570
001646  550100 035521    M! #M1    Z??;(    HRRZ	2,35521
001647  721700 000002    Z/   "    t<???    CONSZ	214,2
001650  627740 000004    R_@  $    e~???    TLZN	17,4
001651  665740 000004    VO@  $    m>???    TLOA	17,4
001652  660100 010000    V! !      l????    TRO	2,10000
001653  721202 323202    Z*"::"    t(?&A    CONO	210,323202(2)
001654  260040 035740    6 @#O@    ,??;p    PUSHJ	1,35740
001655  254000 035620    5@ #N0    +??;H    JRST	0,35620
001656  336000 035652    ;P #NJ    7@?;U    SKIPN	0,35652
001657  254000 035644    5@ #ND    +??;R    JRST	0,35644
001660  370000 035652    ?  #NJ    >??;U    SOS	0,35652
001661  350300 035651    =# #NI    :??;T    AOS	6,35651
001662  553000 000006    M8   &    Z`???    HRRZS	0,6
001663  301300 037144    8+ #YD    0,?>2    CAIL	6,37144
001664  201300 036344    0+ #SD     ,?<r    MOVEI	6,36344
001665  542300 035651    L3 #NI    XL?;T    HRRM	6,35651
001666  200306 000000    0#&        ?0??    MOVE	6,0(6)
001667  263040 000000    68@       ,b???    POPJ	1,0
001670  603740 000002    P?@  "    `~???    TLNE	17,2
001671  332000 035652    ;0 #NJ    6@?;U    SKIPE	0,35652
001672  254000 035632    5@ #N:    +??;M    JRST	0,35632
001673  200040 034647    0 @#FG     ??9S    MOVE	1,34647
001674  263040 037400    68@#\     ,b???    POPJ	1,37400
001675  000000 000000              ?????    UUO00	0,0
001676  000000 000600        &     ????@    UUO00	0,600
001677  000000 000000              ?????    UUO00	0,0
001700  000500 036201     % #R!    ???<@    UUO00	12,36201
001701  205240 050000    0J@%      !*?P?    MOVSI	5,50000
001702  270240 035654    7"@#NL    .??;V    ADD	5,35654
001703  335000 000005    ;H   %    7 ???    SKIPGE	0,5
001704  274240 036064    7B@#PT    /??<?    SUB	5,36064
001705  202240 035654    02@#NL     J?;V    MOVEM	5,35654
001706  135300 000005    +K   %    ?,???    LDB	6,5
001707  263040 000000    68@       ,b???    POPJ	1,0
001710  350340 035653    =#@#NK    :??;U    AOS	7,35653
001711  134300 035654    +C #NL    ???;V    ILDB	6,35654
001712  370340 035653    ?#@#NK    >??;U    SOS	7,35653
001713  260040 035655    6 @#NM    ,??;V    PUSHJ	1,35655
001714  603740 000002    P?@  "    `~???    TLNE	17,2
001715  263040 000000    68@       ,b???    POPJ	1,0
001716  202540 036123    05@#Q3     V?<)    MOVEM	13,36123
001717  200540 036076    0%@#P^     ??<?    MOVE	13,36076
001720  251540 036122    5-@#Q2    *6?<)    BLT	13,36122
001721  403100 000003    @9   #    @d???    SETZB	2,3
001722  335000 035653    ;H #NK    7 ?;U    SKIPGE	0,35653
001723  201100 000002    0)   "     $???    MOVEI	2,2
001724  200200 036040    0" #P@     ??<?    MOVE	4,36040
001725  256002 035664    5P"#NT    +@?;Z    XCT	0,35664(2)
001726  200540 035654    0%@#NL     ??;V    MOVE	13,35654
001727  256002 035665    5P"#NU    +@?;Z    XCT	0,35665(2)
001730  602340 777777    P3@___    `N???    TRNE	7,777777
001731  306300 000037    8S   ?    1L???    CAIN	6,37
001732  254000 035750    5@ #OH    +??;t    JRST	0,35750
001733  302304 000000    83$       0L ??    CAIE	6,0(4)
001734  254000 035701    5@ #O!    +??;`    JRST	0,35701
001735  542340 035523    L3@#M3    XN?;)    HRRM	7,35523
001736  550140 035521    M!@#M1    Z??;(    HRRZ	3,35521
001737  623740 000001    R?@  !    d~???    TLZE	17,1
001740  260040 035732    6 @#O:    ,??;m    PUSHJ	1,35732
001741  554200 035651    MB #NI    [??;T    HLRZ	4,35651
001742  271200 000200    7*  "     .(??@    ADDI	4,200
001743  542200 036037    L2 #P?    XH?<?    HRRM	4,36037
001744  303200 036743    8: #WC    0h?=q    CAILE	4,36743
001745  201200 036343    0* #SC     (?<q    MOVEI	4,36343
001746  506200 035651    HR #NI    QH?;T    HRLM	4,35651
001747  721240 000003    Z*@  #    t*???    CONI	210,3
001750  626140 000700    RQ@ '     eF??`    TRZN	3,700
001751  721203 000200    Z*# "     t(??@    CONO	210,200(3)
001752  260040 035740    6 @#O@    ,??;p    PUSHJ	1,35740
001753  204540 036076    0E@#P^    !??<?    MOVS	13,36076
001754  251540 000013    5-@  +    *6???    BLT	13,13
001755  263040 000000    68@       ,b???    POPJ	1,0
001756  661740 000004    V/@  $    l>???    TLO	17,4
001757  331000 035653    ;( #NK    6 ?;U    SKIPL	0,35653
001760  625740 000004    RO@  $    e>???    TLZA	17,4
001761  275140 010000    7I@!      /&???    SUBI	3,10000
001762  721203 333202    Z*#;:"    t(?6A    CONO	210,333202(3)
001763  263040 000000    68@       ,b???    POPJ	1,0
001764  720200 004011    Z"  @)    t????    CONO	200,4011
001765  200100 036077    0! #P_     ??<?    MOVE	2,36077
001766  202100 035506    01 #M&     D?;#    MOVEM	2,35506
001767  201100 000200    0)  "      $??@    MOVEI	2,200
001770  202100 036032    01 #P:     D?<?    MOVEM	2,36032
001771  476000 036041    GP #PA    O@?<?    SETOM	0,36041
001772  700600 002300    X&  3     p???`    CONO	4,2300
001773  263040 000000    68@       ,b???    POPJ	1,0
001774  260040 035761    6 @#OQ    ,??;x    PUSHJ	1,35761
001775  254000 035756    5@ #ON    +??;w    JRST	0,35756
001776  202100 036040    01 #P@     D?<?    MOVEM	2,36040
001777  205140 400000    0I@@      !&???    MOVSI	3,400000
002000  432140 035653    C1@#NK    FF?;U    XORM	3,35653
002001  254000 035675    5@ #N]    +??;^    JRST	0,35675
002002  202540 035654    05@#NL     V?;V    MOVEM	13,35654
002003  661740 000002    V/@  "    l>???    TLO	17,2
002004  254000 035727    5@ #O7    +??;k    JRST	0,35727
002005  515100 777751    II __I    S$??t    HRLZI	2,777751
002006  201340 036122    0+@#Q2     .?<)    MOVEI	7,36122
002007  271340 000002    7+@  "    ..???    ADDI	7,2
002010  316147 000000    9QG       3F8??    CAMN	3,0(7)
002011  312207 000001    92'  !    2H8??    CAME	4,1(7)
002012  253100 035763    59 #OS    *d?;y    AOBJN	2,35763
002013  627100 777777    RY ___    ed???    TLZN	2,777777
002014  263040 000000    68@       ,b???    POPJ	1,0
002015  344100 035344    <A #KD    9??:r    AOJA	2,35344
002016  334140 000004    ;A@  $    7????    SKIPA	3,4
002017  205140 400000    0I@@      !&???    MOVSI	3,400000
002020  205200 400000    0J @      !(???    MOVSI	4,400000
002021  200100 036100    0! #Q      ??<     MOVE	2,36100
002022  134300 036031    +C #P9    ???<?    ILDB	6,36031
002023  306300 000175    8S  !]    1L??>    CAIN	6,175
002024  174247 171710    /BG//(    ??9sd    FDVR	5,171710(7)
002025  777747 036000    __G#P     ?~8<?    CONSO	774,36000(7)
002026  263040 000000    68@       ,b???    POPJ	1,0
002027  640300 000040    T#   @    h????    TRC	6,40
002030  322300 035772    :3 #OZ    4L?;}    JUMPE	6,35772
002031  306300 000077    8S   _    1L???    CAIN	6,77
002032  201300 000000    0+         ,???    MOVEI	6,0
002033  312100 036101    91 #Q!    2D?<     CAME	2,36101
002034  136300 000002    +S   "    ?L???    IDPB	6,2
002035  254000 035776    5@ #O^    +??;?    JRST	0,35776
002036  607740 000001    P_@  !    a~???    TLNN	17,1
002037  254000 036010    5@ #P(    +??<?    JRST	0,36010
002040  661740 000004    V/@  $    l>???    TLO	17,4
002041  242240 000003    42@  #    (J???    LSH	5,3
002042  405240 000070    @J@  X    A*???    ANDI	5,70
002043  542240 035521    L2@#M1    XJ?;(    HRRM	5,35521
002044  201140 036323    0)@#S3     &?<i    MOVEI	3,36323
002045  542140 036037    L1@#P?    XF?<?    HRRM	3,36037
002046  202140 035652    01@#NJ     F?;U    MOVEM	3,35652
002047  201100 000100    0)  !      $??     MOVEI	2,100
002050  542100 035523    L1 #M3    XD?;)    HRRM	2,35523
002051  721205 322202    Z*%:2"    t(+$A    CONO	210,322202(5)
002052  621740 000001    R/@  !    d>???    TLZ	17,1
002053  260040 035740    6 @#O@    ,??;p    PUSHJ	1,35740
002054  721340 000700    Z+@ '     t.??`    CONSO	210,700
002055  263040 000000    68@       ,b???    POPJ	1,0
002056  254000 036026    5@ #P6    +??<?    JRST	0,36026
002057  472102 421052    G1"B(J    ND?"?    ORCBM	2,421052(2)
002060  777735 036037    __=#P?    ?}h<?    CONSZ	774,@36037(15)
002061  720040 000000    Z @       t????    DATAI	200,0
002062  000000 000000              ?????    UUO00	0,0
002063  777777 777777    ______    ?????    CONSO	774,@777777(17)
002064  261200 000010    6*   (    ,(???    PUSH	4,10
002065  220200 000010    2"   (    $????    IMUL	4,10
002066  777770 034656    __X#FN    ??@9W    CONSO	774,@34656(10)
002067  000001 000001      !  !    ?????    UUO00	0,1(1)
002070  000002 000002      "  "    ?????    UUO00	0,2(2)
002071  220700 000006    2'   &    $????    IMUL	16,6
002072  310700 000006    9'   &    2????    CAM	16,6
002073  330300 034516    ;# #E.    6??9'    SKIP	6,34516
002074  000757 777777     'O___    ?????    UUO00	17,777777(17)
002075  000200 000005     "   %    ?????    UUO00	4,5
002076  410300 000006    A#   &    B????    ANDCA	6,6
002077  344500 034621    <E #F1    9??9H    AOJA	12,34621
002100  330300 000040    ;#   @    6????    SKIP	6,40
002101  220600 000040    2&   @    $????    IMUL	14,40
002102  254220 034707    5B0#G'    +??9c    JRST	4,@34707
002103  270606 777777    7&&___    .?7??    ADD	14,777777(6)
002104  010700 037143    !' #YC    ???>1    UUO10	16,37143
002105  070000 000000    '         ?????    UUO70	0,0
002106  430000 000001    C    !    F????    XOR	0,1
002107  777760 036323    __P#S3    ???<i    CONSO	774,@36323
002110  010700 037175    !' #Y]    ???>>    UUO10	16,37175
002111  410300 000002    A#   "    B????    ANDCA	6,2
002112  000047 000050      G  H    ??8??    UUO00	1,50(7)
002113  036103 036104    #Q##Q$    ?D?<"    UUO36	2,36104(3)
002114  000500 036201     % #R!    ???<@    UUO00	12,36201
002115  036343 036343    #SC#SC    ?N?<q    UUO36	7,36343(3)
002116  000112 000112     !* !*    ??P?%    UUO00	2,112(12)
002117  034006 034007    #@&#@'    ??08?    UUO34	0,34007(6)
002120  000002 036112      "#Q*    ???<%    UUO00	0,36112(2)
002121  254000 035515    5@ #M-    +??;&    JRST	0,35515
002122  000600 000003     &   #    ?????    UUO00	14,3
002123  000600 000004     &   $    ?????    UUO00	14,4
002124  470525 251260    G%55*P    N?*RX    ORCB	12,@251260(5)
002125  777772 036104    __Z#Q$    ??P<"    CONSO	774,@36104(12)
002126  264000 034670    6@ #FX    -??9\    JSR	0,34670
002127  264000 035505    6@ #M%    -??;"    JSR	0,35505
002130  000000 000000              ?????    UUO00	0,0
002131  264000 035570    6@ #MX    -??;<    JSR	0,35570
002132  000000 000000              ?????    UUO00	0,0
002133  264000 035463    6@ #LS    -??;?    JSR	0,35463
002134  503206 622605    H:&R6%    Ph6%B    HLLS	4,622605(6)
002135  777774 036124    __\#Q4    ??`<*    CONSO	774,@36124(14)
002136  565700 000000    NO        ]<???    HLROI	16,0
002137  465154 450000    FILE      M&dP?    ORCMI	3,450000(14)
002140  445162 454300    DIREC     I'?X`    EQVI	3,@454300(2)
002141  645762 710000    TORY      i????    TLCA	17,@710000(2)
002142  164113 243315    .A+4;-    ??ZFf    FMPR	2,243315(13)
002143  777777 036202    ___#R"    ??x<A    CONSO	774,@36202(17)
002144  757367 573674    ][WO>\    {o=w^    CONSO	570,@573674(7)
002145  757365 670301    ][UW#!    {o.p`    CONSO	570,@670301(5)
002146  777777 036213    ___#R+    ??x<E    CONSO	774,@36213(17)
002147  660000 000000    V         l????    TRO	0,0
002150  657776 074427    U_^'D7    k?py?    TSCN	17,@74427(16)
002151  777752 036323    __J#S3    ?~P<i    CONSO	774,36323(12)
002152  777777 777777    ______    ?????    CONSO	774,@777777(17)
002153  700200 635550    X" SMH    p??;4    CONO	0,635550
002154  201100 000100    0)  !      $??     MOVEI	2,100
002155  202100 034657    01 #FO     D?9W    MOVEM	2,34657
002156  201100 010000    0) !       $???    MOVEI	2,10000
002157  202100 034652    01 #FJ     D?9U    MOVEM	2,34652
002160  201100 000000    0)         $???    MOVEI	2,0
002161  542100 034224    L1 #B4    XD?8J    HRRM	2,34224
002162  201100 034657    0) #FO     $?9W    MOVEI	2,34657
002163  542100 034004    L1 #@$    XD?8?    HRRM	2,34004
002164  201040 036324    0(@#S4     "?<j    MOVEI	1,36324
002165  260040 035337    6 @#K?    ,??:o    PUSHJ	1,35337
002166  200100 036347    0! #SG     ??<s    MOVE	2,36347
002167  251100 037775    5) #_]    *$??~    BLT	2,37775
002170  200100 036350    0! #SH     ??<t    MOVE	2,36350
002171  202100 037777    01 #__     D???    MOVEM	2,37777
002172  264000 035422    6@ #L2    -??;?    JSR	0,35422
002173  254000 035026    5@ #H6    +??:?    JRST	0,35026
002174  467731 750210    F_9]"(    M}OPD    ORCMB	16,@750210(11)
002175  422501 243772    B5!4?Z    DT?G}    ANDCMM	12,243772(1)
002176  036345 037774    #SE#_\    ?N(?~    UUO36	7,37774(5)
002177  000700 037773     ' #_[    ????}    UUO00	16,37773
002200  310767 130663    9'W+&S    2?91Y    CAM	17,@130663(7)
002201  777772 037177    __Z#Y_    ??P>?    CONSO	774,@37177(12)
002202  637163 474556    SYSGEN    gg?y7    TSZN	3,@474556(3)
002203  425156 000000    BIN       E&p??    SETAI	3,0(16)
002204  510000 000000    I         R????    HLLZ	0,0
002205  212200 000000    12        "H???    MOVNM	4,0
002206  000000 000000              ?????    UUO00	0,0
002207  777777 000010    ___  (    ??x??    CONSO	774,@10(17)
002210  642726 546674    T76LV\    h]5M^    TRCE	16,@546674(6)
002211  777672 037231    _^Z#Z9    ?{P>L    CONI	774,@37231(12)
002212  400000 000000    @         @????    SETZ	0,0
002213  444464 000000    DDT       I? ??    EQV	11,@0(4)
002214  400000 000000    @         @????    SETZ	0,0
002215  545163 600000    LISP      Y'???    HLRI	3,@600000(3)
002216  400000 000000    @         @????    SETZ	0,0
002217  674162 000000    WAR       o????    TDOA	3,@0(2)
002220  400000 000000    @         @????    SETZ	0,0
002221  224745 646321    2GETS1    %?.Lh    MUL	17,646321(5)
002222  400000 000000    @         @????    SETZ	0,0
002223  576044 446400    OPDDT     _B$M?    HLREM	1,446400(4)
002224  400000 000000    @         @????    SETZ	0,0
002225  636451 565300    STINK     gRMj`    TDZN	11,565300(11)
002226  400000 000000    @         @????    SETZ	0,0
002227  576044 444464    OPDDDT    _B$I?    HLREM	1,444464(4)
002230  400000 000000    @         @????    SETZ	0,0
002231  554162 530000    MARK      [??0?    HLRZ	3,@530000(2)
002232  400000 000000    @         @????    SETZ	0,0
002233  555144 416300    MIDAS     [&$?`    HLRZI	3,416300(4)
002234  400000 000000    @         @????    SETZ	0,0
002235  644543 570000    TECO      i??p?    TRCA	13,570000(3)
002236  757367 573674    ][WO>\    {o=w^    CONSO	570,@573674(7)
002237  573675 736756    O>][WN    ^{o=w    HRRES	15,@736756(15)
002240  573675 736756    O>][WN    ^{o=w    HRRES	15,@736756(15)
002241  573675 736756    O>][WN    ^{o=w    HRRES	15,@736756(15)
002242  573675 736756    O>][WN    ^{o=w    HRRES	15,@736756(15)
002243  573675 736756    O>][WN    ^{o=w    HRRES	15,@736756(15)
002244  573675 736756    O>][WN    ^{o=w    HRRES	15,@736756(15)
002245  573675 736756    O>][WN    ^{o=w    HRRES	15,@736756(15)
002246  573675 773674    O>]_>\    ^{ow^    HRRES	15,@773674(15)
002247  673675 736756    W>][WN    n{o=w    TSOE	15,@736756(15)
002250  573675 732654    O>][6L    ^{o5V    HRRES	15,@732654(15)
002251  553265 532654    M:UK6L    Zk-5V    HRRZS	5,@532654(5)
002252  553265 532654    M:UK6L    Zk-5V    HRRZS	5,@532654(5)
002253  553265 532654    M:UK6L    Zk-5V    HRRZS	5,@532654(5)
002254  553265 532654    M:UK6L    Zk-5V    HRRZS	5,@532654(5)
002255  553265 532654    M:UK6L    Zk-5V    HRRZS	5,@532654(5)
002256  553265 532654    M:UK6L    Zk-5V    HRRZS	5,@532654(5)
002257  553265 532654    M:UK6L    Zk-5V    HRRZS	5,@532654(5)
002260  553265 532654    M:UK6L    Zk-5V    HRRZS	5,@532654(5)
002261  553265 532654    M:UK6L    Zk-5V    HRRZS	5,@532654(5)
002262  553265 532652    M:UK6J    Zk-5U    HRRZS	5,@532652(5)
002263  512245 122450    I2E*4H    RJ)%?    HLLZM	5,122450(5)
002264  512245 122450    I2E*4H    RJ)%?    HLLZM	5,122450(5)
002265  511634 716346    I.<YSF    R9g?s    HLLZI	14,@716346(14)
002266  471634 512244    G.<I2D    N9e?R    ORCBI	14,@512244(14)
002267  451224 512244    E*4I2D    J)%?R    SETCAI	4,@512244(4)
002270  451214 302040    E*,80@    J(c??    SETCAI	4,302040(14)
002271  410204 102040    A"$(0@    B?!??    ANDCA	4,102040(4)
002272  410204 102040    A"$(0@    B?!??    ANDCA	4,102040(4)
002273  410204 102040    A"$(0@    B?!??    ANDCA	4,102040(4)
002274  410204 102040    A"$(0@    B?!??    ANDCA	4,102040(4)
002275  410204 101736    A"$(/>    B?!?o    ANDCA	4,101736(4)
002276  367573 675737    >][WO?    =w^{o    SOJG	13,@675737(13)
002277  367573 675737    >][WO?    =w^{o    SOJG	13,@675737(13)
002300  367573 675737    >][WO?    =w^{o    SOJG	13,@675737(13)
002301  367573 675737    >][WO?    =w^{o    SOJG	13,@675737(13)
002302  367573 675737    >][WO?    =w^{o    SOJG	13,@675737(13)
002303  367573 675737    >][WO?    =w^{o    SOJG	13,@675737(13)
002304  367573 675737    >][WO?    =w^{o    SOJG	13,@675737(13)
002305  367573 675737    >][WO?    =w^{o    SOJG	13,@675737(13)
002306  367573 675737    >][WO?    =w^{o    SOJG	13,@675737(13)
002307  367573 675737    >][WO?    =w^{o    SOJG	13,@675737(13)
002310  367573 675737    >][WO?    =w^{o    SOJG	13,@675737(13)
002311  367573 471635    >][G.=    =w\sN    SOJG	13,@471635(13)
002312  347163 471635    <YSG.=    9g?sN    AOJG	3,@471635(3)
002313  347163 471635    <YSG.=    9g?sN    AOJG	3,@471635(3)
002314  340420 200105    <$00!%    8???"    AOJ	10,@200105
002315  001000 400201     ( @"!    ? ??@    UUO01	0,400201
002316  040020 010004    $ 0! $    ?????    UUO40	0,@10004
002317  001000 400000     ( @      ? ???    UUO01	0,400000
002320  755335 050137    ]K=%!?    {-hP/    CONSZ	550,@50137(15)
002321  777404 037376    _\$#[^    ?p >?    BLKI	774,37376(4)
002322  777777 212653    ___16K    ??z?U    CONSO	774,@212653(17)
002323  000000 000040         @    ?????    UUO00	0,40
002324  402000 037777    @0 #__    @@???    SETZM	0,37777
002325  700200 635550    X" SMH    p??;4    CONO	0,635550
002326  265300 037525    6K #]5    -,??*    JSP	6,37525
002327  201200 037762    0* #_R     (??y    MOVEI	4,37762
002330  403100 037176    @9 #Y^    @d?>?    SETZB	2,37176
002331  250104 000001    5!$  !    *? ??    EXCH	2,1(4)
002332  253100 037406    59 #\&    *d???    AOBJN	2,37406
002333  201202 777777    0*"___     (???    MOVEI	4,777777(2)
002334  326200 037404    :R #\$    5H???    JUMPN	4,37404
002335  200540 037764    0%@#_T     ???z    MOVE	13,37764
002336  403600 000000    @>        @x???    SETZB	14,0
002337  211500 000001    1-   !    "4???    MOVNI	12,1
002340  205040 400000    0H@@      !"???    MOVSI	1,400000
002341  250140 000001    5!@  !    *????    EXCH	3,1
002342  205040 400000    0H@@      !"???    MOVSI	1,400000
002343  205240 020600    0J@"&     !*?!@    MOVSI	5,20600
002344  721200 000000    Z*        t(???    CONO	210,0
002345  134120 037400    +A0#\     ?????    ILDB	2,@37400
002346  326100 037435    :Q #\=    5D???    JUMPN	2,37435
002347  205340 770000    0K@_      !.?p?    MOVSI	7,770000
002350  201640 000001    0.@  !     :???    MOVEI	15,1
002351  211300 000030    1+   8    ",???    MOVNI	6,30
002352  211400 000001    1,   !    "0???    MOVNI	10,1
002353  200700 037765    0' #_U     ???z    MOVE	16,37765
002354  713200 000100    Y:  !     rh??     CONO	130,100
002355  712340 000040    Y3@  @    rN???    CONSO	120,40
002356  254000 037463    5@ #\S    +????    JRST	0,37463
002357  712040 000002    Y0@  "    rB???    DATAI	120,2
002360  265300 037527    6K #]7    -,??+    JSP	6,37527
002361  465100 000177    FI  !_    M$???    ORCMI	2,177
002362  342100 037400    <1 #\     8D???    AOJE	2,37400
002363  340100 000007    <!   '    8????    AOJ	2,7
002364  345100 037536    <I #]>    9$??/    AOJGE	2,37536
002365  271100 000135    7)  !=    .$??.    ADDI	2,135
002366  321100 037541    :) #]A    4$??0    JUMPL	2,37541
002367  322100 037415    :1 #\-    4D???    JUMPE	2,37415
002370  603240 770015    P:@_ -    `j?p?    TLNE	5,770015
002371  136100 000005    +Q   %    ?D???    IDPB	2,5
002372  254000 037421    5@ #\1    +????    JRST	0,37421
002373  205700 747375    0O \[]    !<?N~    MOVSI	16,747375
002374  612646 037304    Q6F#[$    bZ0>b    TDNE	15,37304(6)
002375  271700 000200    7/  "     .<??@    ADDI	16,200
002376  612646 037333    Q6F#[;    bZ0>m    TDNE	15,37333(6)
002377  271700 000100    7/  !     .<??     ADDI	16,100
002400  211100 000004    1)   $    "$???    MOVNI	2,4
002401  713300 002000    Y;  0     rl???    CONSZ	130,2000
002402  254000 037564    5@ #]T    +???:    JRST	0,37564
002403  322300 037421    :3 #\1    4L???    JUMPE	6,37421
002404  271400 000002    7,   "    .0???    ADDI	10,2
002405  650700 037766    U' #_V    j???{    TDC	16,37766
002406  612350 037176    Q3H#Y^    bN@>?    TDNE	7,37176(10)
002407  713140 000016    Y9@  .    rf???    DATAO	130,16
002410  201440 000034    0,@  <     2???    MOVEI	11,34
002411  367440 037465    >\@#\U    =r???    SOJG	11,37465
002412  256002 037474    5P"#\\    +@???    XCT	0,37474(2)
002413  344100 037461    <A #\Q    9????    AOJA	2,37461
002414  200710 037176    0'(#Y^     ?@>?    MOVE	16,37176(10)
002415  201700 757575    0/ ]]]     <?_>    MOVEI	16,757575
002416  200710 037177    0'(#Y_     ?@>?    MOVE	16,37177(10)
002417  201700 757575    0/ ]]]     <?_>    MOVEI	16,757575
002420  344300 037447    <C #\G    9????    AOJA	6,37447
002421  303600 000055    8>   M    0x???    CAILE	14,55
002422  267600 037515    6^ #]-    -x??&    JRA	14,37515
002423  721200 000000    Z*        t(???    CONO	210,0
002424  321600 037504    :. #]$    48??"    JUMPL	14,37504
002425  542200 037503    L2 #]#    XH??!    HRRM	4,37503
002426  326600 037402    :V #\"    5X???    JUMPN	14,37402
002427  254000 036324    5@ #S4    +??<j    JRST	0,36324
002430  563000 033777    N8 #?_    \`?7?    HRROS	0,33777
002431  254000 034000    5@ #@     +??8?    JRST	0,34000
002432  201200 037176    0* #Y^     (?>?    MOVEI	4,37176
002433  402000 000040    @0   @    @@???    SETZM	0,40
002434  200140 037767    0!@#_W     ???{    MOVE	3,37767
002435  306600 000064    8V   T    1X???    CAIN	14,64
002436  200220 033777    0"0#?_     ??7?    MOVE	4,@33777
002437  606600 000003    PV   #    aX???    TRNN	14,3
002440  251144 777777    5)D___    *&'??    BLT	3,777777(4)
002441  265640 037627    6N@#^7    -:??K    JSP	15,37627
002442  265300 037654    6K #^L    -,??V    JSP	6,37654
002443  316340 000004    9S@  $    3N???    CAMN	7,4
002444  254000 037515    5@ #]-    +???&    JRST	0,37515
002445  322140 037402    :1@#\"    4F???    JUMPE	3,37402
002446  336240 000012    ;R@  *    7J???    SKIPN	5,12
002447  344500 037756    <E #_N    9???w    AOJA	12,37756
002450  334300 037421    ;C #\1    7????    SKIPA	6,37421
002451  334100 037444    ;A #\D    7????    SKIPA	2,37444
002452  334100 037437    ;A #\?    7????    SKIPA	2,37437
002453  336000 037777    ;P #__    7@???    SKIPN	0,37777
002454  712140 000002    Y1@  "    rF???    DATAO	120,2
002455  712300 000020    Y3   0    rL???    CONSZ	120,20
002456  254000 037531    5@ #]9    +???,    JRST	0,37531
002457  325106 000000    :I&       5$0??    JUMPGE	2,0(6)
002460  201100 000012    0)   *     $???    MOVEI	2,12
002461  254000 037527    5@ #]7    +???+    JRST	0,37527
002462  607040 004040    PX@ @@    ab???    TLNN	1,4040
002463  135600 000005    +N   %    ?8???    LDB	14,5
002464  326600 037732    :V #_:    5X??m    JUMPN	14,37732
002465  342100 037444    <1 #\D    8D???    AOJE	2,37444
002466  205400 777750    0L __H    !0??t    MOVSI	10,777750
002467  340400 037622    <$ #^2    8???I    AOJ	10,37622
002470  336010 037176    ;P(#Y^    7@@>?    SKIPN	0,37176(10)
002471  332450 037177    ;4H#Y_    6R@>?    SKIPE	11,37177(10)
002472  634440 000011    SD@  )    g????    TDZA	11,11
002473  542400 037555    L4 #]M    XP??6    HRRM	10,37555
002474  316150 037176    9QH#Y^    3F@>?    CAMN	3,37176(10)
002475  312050 037177    90H#Y_    2B@>?    CAME	1,37177(10)
002476  253400 037543    5< #]C    *p??1    AOBJN	10,37543
002477  321400 037560    :, #]P    40??8    JUMPL	10,37560
002500  323500 037524    := #]4    4t??*    JUMPLE	12,37524
002501  201400 000031    0,   9     0???    MOVEI	10,31
002502  332010 037177    ;0(#Y_    6@@>?    SKIPE	0,37177(10)
002503  254000 037524    5@ #]4    +???*    JRST	0,37524
002504  336000 000012    ;P   *    7@???    SKIPN	0,12
002505  403040 000003    @8@  #    @b???    SETZB	1,3
002506  202150 037176    01H#Y^     F@>?    MOVEM	3,37176(10)
002507  202050 037177    00H#Y_     B@>?    MOVEM	1,37177(10)
002510  201410 000001    0,(  !     0@??    MOVEI	10,1(10)
002511  242400 777777    44 ___    (P???    LSH	10,777777
002512  323500 037571    := #]Y    4t??<    JUMPLE	12,37571
002513  412510 037254    A5(#ZL    BT@>V    ANDCAM	12,37254(10)
002514  436510 037303    CU(#[#    GT@>a    IORM	12,37303(10)
002515  602500 000004    P5   $    `T???    TRNE	12,4
002516  364000 037506    >@ #]&    =???#    SOJA	0,37506
002517  200100 037770    0! #_X     ???|    MOVE	2,37770
002520  201340 037763    0+@#_S     .??y    MOVEI	7,37763
002521  332002 000000    ;0"       6@???    SKIPE	0,0(2)
002522  254000 037602    5@ #^"    +???A    JRST	0,37602
002523  253100 037575    59 #]]    *d??>    AOBJN	2,37575
002524  603100 777776    P9 __^    `d???    TLNE	2,777776
002525  254000 037575    5@ #]]    +???>    JRST	0,37575
002526  202100 000004    01   $     D???    MOVEM	2,4
002527  336002 000000    ;P"       7@???    SKIPN	0,0(2)
002530  332002 000001    ;0"  !    6@???    SKIPE	0,1(2)
002531  334000 000000    ;@        7????    SKIPA	0,0
002532  254000 037612    5@ #^*    +???E    JRST	0,37612
002533  253100 037603    59 #^#    *d??A    AOBJN	2,37603
002534  603100 777776    P9 __^    `d???    TLNE	2,777776
002535  254000 037603    5@ #^#    +???A    JRST	0,37603
002536  274200 000002    7B   "    /????    SUB	4,2
002537  271202 000000    7*"       .(???    ADDI	4,0(2)
002540  202207 000000    02'        H8??    MOVEM	4,0(7)
002541  200340 000002    0#@  "     ????    MOVE	7,2
002542  603100 777777    P9 ___    `d???    TLNE	2,777777
002543  254000 037575    5@ #]]    +???>    JRST	0,37575
002544  200340 037771    0#@#_Y     ???|    MOVE	7,37771
002545  201200 037763    0* #_S     (??y    MOVEI	4,37763
002546  265300 037654    6K #^L    -,??V    JSP	6,37654
002547  255000 000007    5H   '    + ???    JFCL	0,7
002550  200204 000000    0"$        ? ??    MOVE	4,0(4)
002551  325200 037651    :J #^I    5(??T    JUMPGE	4,37651
002552  334640 037543    ;F@#]C    7???1    SKIPA	15,37543
002553  316200 037771    9R #_Y    3H??|    CAMN	4,37771
002554  661440 400000    V,@@      l2???    TLO	11,400000
002555  265300 037654    6K #^L    -,??V    JSP	6,37654
002556  200340 000004    0#@  $     ????    MOVE	7,4
002557  325440 037627    :L@#^7    52??K    JUMPGE	11,37627
002560  325200 037475    :J #\]    5(???    JUMPGE	4,37475
002561  325600 037642    :N #^B    58??Q    JUMPGE	14,37642
002562  564300 000004    NC   $    ]????    HLRO	6,4
002563  270300 000004    7#   $    .????    ADD	6,4
002564  273320 033777    7;0#?_    .m?7?    ADDB	6,@33777
002565  540200 000006    L"   &    X????    HRR	4,6
002566  241340 000001    4+@  !    (.???    ROT	7,1
002567  265300 037654    6K #^L    -,??V    JSP	6,37654
002570  270344 000000    7#D       .? ??    ADD	7,0(4)
002571  253200 037642    5: #^B    *h??Q    AOBJN	4,37642
002572  603200 777776    P: __^    `h???    TLNE	4,777776
002573  254000 037642    5@ #^B    +???Q    JRST	0,37642
002574  254015 000000    5@-       +?h??    JRST	0,0(15)
002575  321500 037402    :- #\"    44???    JUMPL	12,37402
002576  265300 037654    6K #^L    -,??V    JSP	6,37654
002577  624500 037503    RE #]#    e???!    TRZA	12,37503
002600  341240 037701    <*@#_!    8*??`    AOJL	5,37701
002601  354000 000011    =@   )    ;????    AOSA	0,11
002602  137040 000013    +X@  +    ?b???    DPB	1,13
002603  134100 000013    +A   +    ?????    ILDB	2,13
002604  306100 000037    8Q   ?    1D???    CAIN	2,37
002605  254000 037521    5@ #]1    +???(    JRST	0,37521
002606  661112 777777    V)*___    l$W??    TLO	2,777777(12)
002607  302402 000000    84"       0P???    CAIE	10,0(2)
002610  326100 037655    :Q #^M    5D??V    JUMPN	2,37655
002611  137400 000013    +\   +    ?p???    DPB	10,13
002612  322500 037656    :5 #^N    4T??W    JUMPE	12,37656
002613  560140 037377    N!@#[_    \??>?    HRRO	3,37377
002614  721700 000040    Z/   @    t<???    CONSZ	214,40
002615  254000 037670    5@ #^X    +???\    JRST	0,37670
002616  477100 000001    GY   !    Od???    SETOB	2,1
002617  606040 400001    PP@@ !    aB???    TRNN	1,400001
002620  644140 010000    TA@!      i????    TRCA	3,10000
002621  721340 200000    Z+@0      t.???    CONSO	210,200000
002622  660140 002000    V!@ 0     l????    TRO	3,2000
002623  721203 220200    Z*#2"     t(? @    CONO	210,220200(3)
002624  720202 004011    Z"" @)    t????    CONO	200,4011(2)
002625  721700 000006    Z/   &    t<???    CONSZ	214,6
002626  254000 037524    5@ #]4    +???*    JRST	0,37524
002627  720340 001000    Z#@ (     t????    CONSO	200,1000
002630  254000 037701    5@ #_!    +???`    JRST	0,37701
002631  321252 037727    :*J#_7    4*P?k    JUMPL	5,37727(12)
002632  720040 000001    Z @  !    t????    DATAI	200,1
002633  620140 002000    R!@ 0     d????    TRZ	3,2000
002634  275051 000000    7HI       /"H??    SUBI	1,0(11)
002635  602140 010000    P1@!      `F???    TRNE	3,10000
002636  640040 777776    T @__^    h????    TRC	1,777776
002637  326040 037673    :P@#^[    5B??]    JUMPN	1,37673
002640  211240 000200    1*@ "     "*??@    MOVNI	5,200
002641  660140 000100    V!@ !     l???     TRO	3,100
002642  323500 037677    := #^_    4t??_    JUMPLE	12,37677
002643  211100 000401    1)  $!    "$???    MOVNI	2,401
002644  660140 000400    V!@ $     l????    TRO	3,400
002645  254000 037677    5@ #^_    +???_    JRST	0,37677
002646  720040 000016    Z @  .    t????    DATAI	200,16
002647  312726 000000    976       2]0??    CAME	16,@0(6)
002650  254000 037524    5@ #]4    +???*    JRST	0,37524
002651  254006 000000    5@&       +?0??    JRST	0,0(6)
002652  720066 000000    Z V       t?0??    DATAI	200,@0(6)
002653  254006 000000    5@&       +?0??    JRST	0,0(6)
002654  720166 000000    Z!V       t?0??    DATAO	200,@0(6)
002655  254006 000000    5@&       +?0??    JRST	0,0(6)
002656  201100 000044    0)   D     $???    MOVEI	2,44
002657  265300 037527    6K #]7    -,??+    JSP	6,37527
002660  302600 000053    86   K    0X???    CAIE	14,53
002661  306600 000044    8V   D    1X???    CAIN	14,44
002662  343500 037735    <= #_=    8t??n    AOJLE	12,37735
002663  306600 000047    8V   G    1X???    CAIN	14,47
002664  254020 037503    5@0#]#    +???!    JRST	0,@37503
002665  306600 000062    8V   R    1X???    CAIN	14,62
002666  254000 000020    5@   0    +????    JRST	0,20
002667  306600 000051    8V   I    1X???    CAIN	14,51
002670  211500 000005    1-   %    "4???    MOVNI	12,5
002671  303600 000031    8>   9    0x???    CAILE	14,31
002672  254000 037414    5@ #\,    +????    JRST	0,37414
002673  242040 000003    40@  #    (B???    LSH	1,3
002674  246000 000003    4P   #    )@???    LSHC	0,3
002675  326040 037747    :P@#_G    5B??s    JUMPN	1,37747
002676  303000 000007    88   '    0`???    CAILE	0,7
002677  267200 037475    6Z #\]    -h???    JRA	4,37475
002700  242000 000003    40   #    (@???    LSH	0,3
002701  202000 037377    00 #[_     @?>?    MOVEM	0,37377
002702  201440 000100    0,@ !      2??     MOVEI	11,100
002703  265300 037667    6K #^W    -,??[    JSP	6,37667
002704  255005 037377    5H%#[_    + (>?    JFCL	0,37377(5)
002705  341240 037701    <*@#_!    8*??`    AOJL	5,37701
002706  254000 037402    5@ #\"    +????    JRST	0,37402
002707  000000 000000              ?????    UUO00	0,0
002710  000500 037254     % #ZL    ???>V    UUO00	12,37254
002711  034156 261770    #AN6/X    ??rc|    UUO34	3,261770(16)
002712  404040 404040    @@@@@@    A????    AND	1,404040
002713  000040 000041      @  A    ?????    UUO00	1,41
002714  740623 000020    \&3  0    x????    CONO	404,@20(3)
002715  254000 000001    5@   !    +????    JRST	0,1
002716  672577 677212    W5_WZ*    nW~~E    TDOE	13,@677212(17)
002717  324000 037400    :@ #\     5????    JUMPA	0,37400
002720  777542 000000    _]B       ?v???    DATAO	774,0(2)
002721  015315 513316    !K-I;.    ?,m?g    UUO15	6,513316(15)
002722  777542 000000    _]B       ?v???    DATAO	774,0(2)
002723  125623 411000    *N3A(     ?9???    XX125	14,@411000(3)
002724  000000 000000              ?????    UUO00	0,0
002725  114152 000000    )AJ       ??P??    XX114	3,0(12)
002726  000000 000000              ?????    UUO00	0,0
002727  111117 400000    ))/@      ?$|??    XX111	2,400000(17)
002730  000000 000001         !    ?????    UUO00	0,1
002731  110310 700000    )#(X      ??G??    XX110	6,700000(10)
002732  000000 000002         "    ?????    UUO00	0,2
002733  111726 100000    )/6(      ?=1??    XX111	16,@100000(6)
002734  000000 000003         #    ?????    UUO00	0,3
002735  112534 600000    )5<P      ?Uf??    XX112	12,@600000(14)
002736  000000 000004         $    ?????    UUO00	0,4
002737  113343 300000    );C8      ?n???    XX113	7,300000(3)
002740  000000 000005         %    ?????    UUO00	0,5
002741  123654 200000    *>L0      ?zb??    XX123	15,200000(14)
002742  000000 000006         &    ?????    UUO00	0,6
002743  112252 221000    )2J2(     ?JR"?    XX112	5,221000(12)
002744  000000 000007         '    ?????    UUO00	0,7
002745  114451 041000    )DI$(     ??HB?    XX114	11,41000(11)
002746  000000 000010         (    ?????    UUO00	0,10
002747  111453 475750    ),KGOH    ?2\{t    XX111	11,475750(13)
002750  000000 000011         )    ?????    UUO00	0,11
002751  131560 705730    +-PXO8    ?7??l    XX131	13,@705730
002752  000000 000012         *    ?????    UUO00	0,12
002753  124236 075400    *B>'L     ??p{?    XX124	4,@75400(16)
002754  000000 000013         +    ?????    UUO00	0,13
002755  112205 720000    )2%Z      ?H/ ?    XX112	4,720000(5)
002756  000000 000014         ,    ?????    UUO00	0,14
002757  124462 700000    *DRX      ?????    XX124	11,@700000(2)
002760  000000 000015         -    ?????    UUO00	0,15
002761  114760 500000    )GPH      ?????    XX114	17,@500000
002762  000000 000016         .    ?????    UUO00	0,16
002763  121215 745000    **-\H     ?(oJ?    XX121	4,745000(15)
002764  000000 000020         0    ?????    UUO00	0,20
002765  112754 626000    )7LRP     ?^f,?    XX112	17,626000(14)
002766  000000 034000       #@     ???8?    UUO00	0,34000
002767  121216 577360    **.O[P    ?(u~x    XX121	4,577360(16)
002770  000000 037175       #Y]    ???>>    UUO00	0,37175
002771  116065 035200    )PU#J     ?C(:@    XX116	1,@35200(5)
002772  000000 037175       #Y]    ???>>    UUO00	0,37175
002773  114544 257000    )ED5X     ??"^?    XX114	13,257000(4)
002774  000000 037176       #Y^    ???>?    UUO00	0,37176
002775  127065 064000    *XU&@     ?c(h?    XX127	1,@64000(5)
002776  000000 037177       #Y_    ???>?    UUO00	0,37177
002777  127070 472631    *XXG69    ?cDuL    XX127	1,@472631(10)
003000  000000 037377       #[_    ???>?    UUO00	0,37377
003001  111346 234400    )+F3D     ?.29?    XX111	7,234400(6)
003002  000000 037400       #\     ?????    UUO00	0,37400
003003  111346 105000    )+F(H     ?.1??    XX111	7,105000(6)
003004  000000 037402       #\"    ?????    UUO00	0,37402
003005  111346 113200    )+F):     ?.1?@    XX111	7,113200(6)
003006  000000 037404       #\$    ?????    UUO00	0,37404
003007  127441 137000    *\A+X     ?r?>?    XX127	11,137000(1)
003010  000000 037414       #\,    ?????    UUO00	0,37414
003011  126500 630630    *U S&8    ?T?1L    XX126	12,630630
003012  000000 037415       #\-    ?????    UUO00	0,37415
003013  122471 757600    *4Y]^     ?SO_@    XX122	11,@757600(11)
003014  000000 037421       #\1    ?????    UUO00	0,37421
003015  125474 662000    *L\V0     ?3fd?    XX125	11,@662000(14)
003016  000000 037435       #\=    ?????    UUO00	0,37435
003017  111347 372600    )+G?6     ?.;u@    XX111	7,372600(7)
003020  000000 037437       #\?    ?????    UUO00	0,37437
003021  122471 757720    *4Y]_0    ?SO_h    XX122	11,@757720(11)
003022  000000 037444       #\D    ?????    UUO00	0,37444
003023  113073 244200    )8[4B     ?cZH@    XX113	1,@244200(13)
003024  000000 037447       #\G    ?????    UUO00	0,37447
003025  113064 052000    )8T%0     ?c T?    XX113	1,@52000(4)
003026  000000 037460       #\P    ?????    UUO00	0,37460
003027  113063 460000    )8SF      ?c?`?    XX113	1,@460000(3)
003030  000000 037461       #\Q    ?????    UUO00	0,37461
003031  115350 233510    )KH3=(    ?.B7$    XX115	7,233510(10)
003032  000000 037463       #\S    ?????    UUO00	0,37463
003033  126550 014000    *UH!@     ?V@??    XX126	13,14000(10)
003034  000000 037474       #\\    ?????    UUO00	0,37474
003035  117377 137500    )[_+]     ?oy?     XX117	7,@137500(17)
003036  000000 037475       #\]    ?????    UUO00	0,37475
003037  126257 105400    *RO(L     ?Jy??    XX126	5,105400(17)
003040  000000 037503       #]#    ????!    UUO00	0,37503
003041  112754 713100    )7LY9     ?^g?     XX112	17,713100(14)
003042  000000 037504       #]$    ????"    UUO00	0,37504
003043  121210 525010    **(JH(    ?(E*?    XX121	4,525010(10)
003044  000000 037506       #]&    ????#    UUO00	0,37506
003045  121210 522600    **(J6     ?(E%@    XX121	4,522600(10)
003046  000000 037515       #]-    ????&    UUO00	0,37515
003047  112764 544700    )7TLG     ?_%I`    XX112	17,@544700(4)
003050  000000 037521       #]1    ????(    UUO00	0,37521
003051  113773 514000    )?[I@     ??]??    XX113	17,@514000(13)
003052  000000 037524       #]4    ????*    UUO00	0,37524
003053  112356 314000    )3N9@     ?Ns??    XX112	7,314000(16)
003054  000000 037525       #]5    ????*    UUO00	0,37525
003055  127442 515000    *\BIH     ?r???    XX127	11,515000(2)
003056  000000 037527       #]7    ????+    UUO00	0,37527
003057  110647 166046    )&G.PF    ??9l?    XX110	15,166046(7)
003060  000000 037536       #]>    ????/    UUO00	0,37536
003061  112110 434566    )1(CEV    ?DD9;    XX112	2,434566(10)
003062  000000 037541       #]A    ????0    UUO00	0,37541
003063  121306 652000    *+&U0     ?,6T?    XX121	6,652000(6)
003064  000000 037543       #]C    ????1    UUO00	0,37543
003065  114577 141700    )E_,/     ??yC`    XX114	13,@141700(17)
003066  000000 037555       #]M    ????6    UUO00	0,37555
003067  111346 133520    )+F+=0    ?.17(    XX111	7,133520(6)
003070  000000 037560       #]P    ????8    UUO00	0,37560
003071  111346 136050    )+F+PH    ?.1<?    XX111	7,136050(6)
003072  000000 037564       #]T    ????:    UUO00	0,37564
003073  111346 133533    )+F+=;    ?.17-    XX111	7,133533(6)
003074  000000 037571       #]Y    ????<    UUO00	0,37571
003075  113221 204200    ):10B     ?i??@    XX113	4,@204200(1)
003076  000000 037573       #][    ????=    UUO00	0,37573
003077  113103 560200    )9#N"     ?d?`@    XX113	2,560200(3)
003100  000000 037575       #]]    ????>    UUO00	0,37575
003101  113103 561210    )9#N*(    ?d?bD    XX113	2,561210(3)
003102  000000 037602       #^"    ????A    UUO00	0,37602
003103  113103 561140    )9#N)@    ?d?b0    XX113	2,561140(3)
003104  000000 037603       #^#    ????A    UUO00	0,37603
003105  113103 561070    )9#N(X    ?d?b?    XX113	2,561070(3)
003106  000000 037612       #^*    ????E    UUO00	0,37612
003107  113103 563300    )9#N;     ?d?f`    XX113	2,563300(3)
003110  000000 037620       #^0    ????H    UUO00	0,37620
003111  113103 567270    )9#NZX    ?d?n\    XX113	2,567270(3)
003112  000000 037622       #^2    ????I    UUO00	0,37622
003113  113103 566400    )9#NT     ?d?m?    XX113	2,566400(3)
003114  000000 037624       #^4    ????J    UUO00	0,37624
003115  121211 400562    **)@%R    ?(L?9    XX121	4,400562(11)
003116  000000 037627       #^7    ????K    UUO00	0,37627
003117  113103 574600    )9#OF     ?d?y@    XX113	2,574600(3)
003120  000000 037642       #^B    ????Q    UUO00	0,37642
003121  127175 434700    *Y]CG     ?gl9`    XX127	3,@434700(15)
003122  000000 037651       #^I    ????T    UUO00	0,37651
003123  130222 344560    +"2<EP    ???I8    XX130	4,@344560(2)
003124  000000 037654       #^L    ????V    UUO00	0,37654
003125  122010 240720    *0(4'0    ?@BAh    XX122	0,240720(10)
003126  000000 037655       #^M    ????V    UUO00	0,37655
003127  122010 240722    *0(4'2    ?@BAi    XX122	0,240722(10)
003130  000000 037656       #^N    ????W    UUO00	0,37656
003131  125464 137500    *LT+]     ?3!?     XX125	11,@137500(4)
003132  000000 037667       #^W    ????[    UUO00	0,37667
003133  125457 132000    *LO+0     ?2y4?    XX125	11,132000(17)
003134  000000 037673       #^[    ????]    UUO00	0,37673
003135  125462 655000    *LRUH     ?3?Z?    XX125	11,@655000(2)
003136  000000 037677       #^_    ????_    UUO00	0,37677
003137  130222 344562    +"2<ER    ???I9    XX130	4,@344562(2)
003140  000000 037701       #_!    ????`    UUO00	0,37701
003141  116756 430160    )WNC!P    ?^t08    XX116	17,430160(16)
003142  000000 037727       #_7    ????k    UUO00	0,37727
003143  110647 136760    )&G+WP    ??9=x    XX110	15,136760(7)
003144  000000 037732       #_:    ????m    UUO00	0,37732
003145  123451 447620    *<ID^0    ?rLOH    XX123	11,447620(11)
003146  000000 037754       #_L    ????v    UUO00	0,37754
003147  112264 170620    )2T/&0    ?K!qH    XX112	5,@170620(4)
003150  000000 037756       #_N    ????w    UUO00	0,37756
003151  126504 045600    *U$$N     ?T K@    XX126	12,45600(4)
003152  000000 037763       #_S    ????y    UUO00	0,37763
003153  112320 234760    )303GP    ?M?9x    XX112	6,@234760
003154  000000 037764       #_T    ????z    UUO00	0,37764
003155  112320 026514    )30"U,    ?M?-&    XX112	6,@26514
003156  000000 037777       #__    ?????    UUO00	0,37777
003157  323645 177005    :>E/X%    4z)~?    JUMPLE	15,177005(5)
003160  324000 037400    :@ #\     5????    JUMPA	0,37400
