1000000
000020  710600 000060    CONO PTR,60                        Y&   P    r????    
000021  710740 000010    CONSO PTR,10                       Y'@  (    r????    
000022  254000 000021    JRST 21                            5@   1    +????    
000023  710440 000026    DATAI PTR,26                       Y$@  6    r????    
000024  710740 000010    CONSO PTR,10                       Y'@  (    r????    
000025  254000 000024    JRST 24                            5@   4    +????    
000026  254000 000001    JRST 1                             5@   !    +????    
000027  254000 000021    JRST 21                            5@   1    +????    
000030  710740 000010    CONSO PTR,10                       Y'@  (    r????    
000031  254000 000030    JRST 30                            5@   8    +????    
000032  254014 000000    JRST 0(14)                         5@,       +?`??    
000033  710440 000016    DATAI PTR,16                       Y$@  .    r????    
000034  316640 000016    CAMN 15,16                         9V@  .    3Z???    
000035  324000 000001    JUMPA 1                            :@   !    5????    
000036  254200 000000    JRST 4,0                           5B        +????    
000037  000000 037577                                          #]_    ?????    
000040  000000 000000                                                 ?????    
000041  264000 033723    JSR 33723                          6@ #?3    -??7i    
000044  264000 001317    JSR 1317                           6@  +/    -???g    
000045  264000 001317    JSR 1317                           6@  +/    -???g    
000046  264000 033123    JSR 33123                          6@ #93    -??6)    
000047  000000 000000                                                 ?????    
000050  264000 033075    JSR 33075                          6@ #8]    -??6?    
000051  000000 000000                                                 ?????    
000052  264000 032772    JSR 32772                          6@ #7Z    -??5}    
000053  000000 000000                                                 ?????    
000054  264000 032243    JSR 32243                          6@ #2C    -??4Q    
000055  000000 000000                                                 ?????    
000056  713100 034067    BLKO DIS,34067                     Y9 #@W    rd?8?    
000057  254200 000057    JRST 4,57                          5B   O    +????    
000100  254000 027534    JRST 27534                         5@ "]<    +??/.    
000101  254000 027552    JRST 27552                         5@ "]J    +??/5    
000102  201100 000040    MOVEI 2,40                         0)   @     $???    
000103  261040 000002    PUSH 1,2                           6(@  "    ,"???    
000104  306100 000013    CAIN 2,13                          8Q   +    1D???    
000105  254000 000171    JRST 171                           5@  !Y    +???<    
000106  306100 000011    CAIN 2,11                          8Q   )    1D???    
000107  254000 000165    JRST 165                           5@  !U    +???:    
000110  302100 000012    CAIE 2,12                          81   *    0D???    
000111  306100 000014    CAIN 2,14                          8Q   ,    1D???    
000112  254000 000203    JRST 203                           5@  "#    +???A    
000113  305100 000140    CAIGE 2,140                        8I  !@    1$??0    
000114  254000 000121    JRST 121                           5@  !1    +???(    
000115  303100 000173    CAILE 2,173                        89  ![    0d??=    
000116  306100 000177    CAIN 2,177                         8Q  !_    1D???    
000117  254000 000157    JRST 157                           5@  !O    +???7    
000120  201100 000044    MOVEI 2,44                         0)   D     $???    
000121  476000 000222    SETOM 222                          GP  "2    O@??I    
000122  302100 000015    CAIE 2,15                          81   -    0D???    
000123  354000 000220    AOSA 220                           =@  "0    ;???H    
000124  402000 000220    SETZM 220                          @0  "0    @@??H    
000125  306100 000012    CAIN 2,12                          8Q   *    1D???    
000126  350000 000221    AOS 221                            =   "1    :???H    
000127  306100 000014    CAIN 2,14                          8Q   ,    1D???    
000130  402000 000221    SETZM 221                          @0  "1    @@??H    
000131  301100 000040    CAIL 2,40                          8)   @    0$???    
000132  254000 000144    JRST 144                           5@  !D    +???2    
000133  301100 000011    CAIL 2,11                          8)   )    0$???    
000134  303100 000015    CAILE 2,15                         89   -    0d???    
000135  354000 000220    AOSA 220                           =@  "0    ;???H    
000136  254000 000144    JRST 144                           5@  !D    +???2    
000137  201100 000136    MOVEI 2,136                        0)  !>     $??/    
000140  261040 001261    PUSH 1,1261                        6(@ *Q    ,"??X    
000141  261041 777777    PUSH 1,777777(1)                   6(A___    ,"???    
000142  254000 000144    JRST 144                           5@  !D    +???2    
000143  660100 000100    TRO 2,100                          V!  !     l???     
000144  275100 000040    SUBI 2,40                          7I   @    /$???    
000145  337000 000217    SKIPG 217                          ;X  "/    7`??G    
000146  254000 000145    JRST 145                           5@  !E    +???2    
000147  136100 000223    IDPB 2,223                         +Q  "3    ?D??I    
000150  550100 000223    HRRZ 2,223                         M!  "3    Z???I    
000151  306100 001260    CAIN 2,1260                        8Q  *P    1D??X    
000152  201100 000261    MOVEI 2,261                        0)  "Q     $??X    
000153  542100 000223    HRRM 2,223                         L1  "3    XD??I    
000154  370000 000217    SOS 217                            ?   "/    >???G    
000155  712740 000007    CONSO LPT,7                        Y7@  '    r^???    
000156  712600 000004    CONO LPT,4                         Y6   $    rX???    
000157  262040 000002    POP 1,2                            60@  "    ,B???    
000160  263040 000000    POPJ 1,                            68@       ,b???    
000161  200100 000217    MOVE 2,217                         0!  "/     ???G    
000162  302100 004773    CAIE 2,4773                        81  G[    0D??}    
000163  254000 000161    JRST 161                           5@  !Q    +???8    
000164  263040 000000    POPJ 1,                            68@       ,b???    
000165  260040 000102    PUSHJ 1,102                        6 @ !"    ,???!    
000166  135100 001262    LDB 2,1262                         +I  *R    ?$??Y    
000167  326100 000165    JUMPN 2,165                        :Q  !U    5D??:    
000170  254000 000157    JRST 157                           5@  !O    +???7    
000171  261040 000220    PUSH 1,220                         6(@ "0    ,"??H    
000172  402000 000220    SETZM 220                          @0  "0    @@??H    
000173  201100 000012    MOVEI 2,12                         0)   *     $???    
000174  260040 000103    PUSHJ 1,103                        6 @ !#    ,???!    
000175  135100 001263    LDB 2,1263                         +I  *S    ?$??Y    
000176  326100 000173    JUMPN 2,173                        :Q  ![    5D??=    
000177  262040 000220    POP 1,220                          60@ "0    ,B??H    
000200  201100 000012    MOVEI 2,12                         0)   *     $???    
000201  260040 000103    PUSHJ 1,103                        6 @ !#    ,???!    
000202  254000 000157    JRST 157                           5@  !O    +???7    
000203  261040 000220    PUSH 1,220                         6(@ "0    ,"??H    
000204  201100 000015    MOVEI 2,15                         0)   -     $???    
000205  356000 000222    AOSN 222                           =P  "2    ;@??I    
000206  332000 000220    SKIPE 220                          ;0  "0    6@??H    
000207  260040 000103    PUSHJ 1,103                        6 @ !#    ,???!    
000210  375001 000000    SOSGE 0(1)                         ?H!       ? ???    
000211  254000 000214    JRST 214                           5@  ",    +???F    
000212  260040 000102    PUSHJ 1,102                        6 @ !"    ,???!    
000213  254000 000210    JRST 210                           5@  "(    +???D    
000214  262040 000002    POP 1,2                            60@  "    ,B???    
000215  200101 000000    MOVE 2,0(1)                        0!!        ????    
000216  254000 000125    JRST 125                           5@  !5    +???*    
000217  000000 004773                                           G[    ????}    
000223  000700 000260                                        '  "P    ????X    
000224  000700 000260                                        '  "P    ????X    
000225  306100 000155    CAIN 2,155                         8Q  !M    1D??6    
000226  254000 000234    JRST 234                           5@  "<    +???N    
000227  306100 000152    CAIN 2,152                         8Q  !J    1D??5    
000230  201100 000400    MOVEI 2,400                        0)  $      $???    
000231  306100 000154    CAIN 2,154                         8Q  !L    1D??6    
000232  201100 000401    MOVEI 2,401                        0)  $!     $???    
000233  254000 000250    JRST 250                           5@  "H    +???T    
000234  712600 000014    CONO LPT,14                        Y6   ,    rX???    
000235  254000 000251    JRST 251                           5@  "I    +???T    
000236  712700 000007    CONSZ LPT,7                        Y7   '    r\???    
000237  712700 000010    CONSZ LPT,10                       Y7   (    r\???    
000240  254000 033101    JRST 33101                         5@ #9!    +??6     
000241  261040 000002    PUSH 1,2                           6(@  "    ,"???    
000242  201100 004773    MOVEI 2,4773                       0)  G[     $??}    
000243  317100 000217    CAMG 2,217                         9Y  "/    3d??G    
000244  254000 000256    JRST 256                           5@  "N    +???W    
000245  134100 000224    ILDB 2,224                         +A  "4    ????J    
000246  602100 000100    TRNE 2,100                         P1  !     `D??     
000247  254000 000225    JRST 225                           5@  "5    +???J    
000250  712540 000002    DATAO LPT,2                        Y5@  "    rV???    
000251  550100 000224    HRRZ 2,224                         M!  "4    Z???J    
000252  306100 001260    CAIN 2,1260                        8Q  *P    1D??X    
000253  201100 000261    MOVEI 2,261                        0)  "Q     $??X    
000254  542100 000224    HRRM 2,224                         L1  "4    XD??J    
000255  354000 000217    AOSA 217                           =@  "/    ;???G    
000256  712600 000000    CONO LPT,0                         Y6        rX???    
000257  262040 000002    POP 1,2                            60@  "    ,B???    
000260  254000 000236    JRST 236                           5@  ">    +???O    
001261  000000 000143                                           !C    ????1    
001262  000300 000220                                        #  "0    ????H    
001263  000300 000221                                        #  "1    ????H    
001264  331000 002406    SKIPL 2406                         ;(  4&    6 ???    
001265  254000 001264    JRST 1264                          5@  *T    +???Z    
001266  402000 001274    SETZM 1274                         @0  *\    @@??^    
001267  336000 001274    SKIPN 1274                         ;P  *\    7@??^    
001270  254000 001267    JRST 1267                          5@  *W    +???[    
001271  331000 002405    SKIPL 2405                         ;(  4%    6 ???    
001272  254000 001271    JRST 1271                          5@  *Y    +???\    
001273  263040 000000    POPJ 1,                            68@       ,b???    
001274  000000 000000                                                 ?????    
001275  331000 002415    SKIPL 2415                         ;(  4-    6 ???    
001276  331000 002405    SKIPL 2405                         ;(  4%    6 ???    
001277  254120 001274    JRST 2,@1274                       5A0 *\    +???^    
001300  261040 001316    PUSH 1,1316                        6(@ +.    ,"??g    
001301  402000 002404    SETZM 2404                         @0  4$    @@???    
001302  261040 000002    PUSH 1,2                           6(@  "    ,"???    
001303  261040 000003    PUSH 1,3                           6(@  #    ,"???    
001304  200140 002426    MOVE 3,2426                        0!@ 46     ????    
001305  331000 002410    SKIPL 2410                         ;(  4(    6 ???    
001306  207000 000003    MOVSS 3                            0X   #    !`???    
001307  260040 001602    PUSHJ 1,1602                       6 @ ."    ,???A    
001310  207000 000003    MOVSS 3                            0X   #    !`???    
001311  260040 001602    PUSHJ 1,1602                       6 @ ."    ,???A    
001312  376000 002412    SOSN 2412                          ?P  4*    ?@???    
001313  254000 001614    JRST 1614                          5@  .,    +???F    
001314  262040 000003    POP 1,3                            60@  #    ,B???    
001315  262040 000002    POP 1,2                            60@  "    ,B???    
001316  263040 001277    POPJ 1,1277                        68@ *_    ,b??_    
001321  370000 001320    SOS 1320                           ?   +0    >???h    
001322  355000 001362    AOSGE 1362                         =H  +R    ; ??y    
001323  254520 001317    JRST 12,@1317                      5E0 +/    +???g    
001324  700600 001040    CONO PI,1040                       X&  (@    p????    
001325  336000 002410    SKIPN 2410                         ;P  4(    7@???    
001326  720200 000002    CONO DC,2                          Z"   "    t????    
001327  254520 001317    JRST 12,@1317                      5E0 +/    +???g    
001330  202100 001363    MOVEM 2,1363                       01  +S     D??y    
001331  202140 001364    MOVEM 3,1364                       01@ +T     F??z    
001332  721700 000016    CONSZ MT,16                        Z/   .    t<???    
001333  254000 001357    JRST 1357                          5@  +O    +???w    
001334  201100 000020    MOVEI 2,20                         0)   0     $???    
001335  720040 000003    DATAI DC,3                         Z @  #    t????    
001336  553000 000003    HRRZS 0,3                          M8   #    Z`???    
001337  275140 001337    SUBI 3,1337                        7I@ +?    /&??o    
001340  322140 001371    JUMPE 3,1371                       :1@ +Y    4F??|    
001341  331000 002407    SKIPL 2407                         ;(  4'    6 ???    
001342  374000 000003    SOSA 3                             ?@   #    ?????    
001343  350000 000003    AOS 3                              =    #    :????    
001344  202140 002411    MOVEM 3,2411                       01@ 4)     F???    
001345  271140 000003    ADDI 3,3                           7)@  #    .&???    
001346  321140 001351    JUMPL 3,1351                       :)@ +I    4&??t    
001347  307140 000006    CAIG 3,6                           8Y@  &    1f???    
001350  254000 001366    JRST 1366                          5@  +V    +???{    
001351  352000 002407    AOSE 2407                          =0  4'    :@???    
001352  660100 002000    TRO 2,2000                         V!  0     l????    
001353  303140 000002    CAILE 3,2                          89@  "    0f???    
001354  644100 012000    TRCA 2,12000                       TA !0     i????    
001355  476000 002407    SETOM 2407                         GP  4'    O@???    
001356  721202 320204    CONO UTS,320204(2)                 Z*":"$    t(? B    
001357  720200 004012    CONO DC,4012                       Z"  @*    t????    
001360  254000 001410    JRST 1410                          5@  ,(    +????    
001361  720100 000000    BLKO DC,0                          Z!        t????    
001365  660100 003000    TRO 2,3000                         V!  8     l????    
001366  331000 002407    SKIPL 2407                         ;(  4'    6 ???    
001367  660100 010000    TRO 2,10000                        V! !      l????    
001370  254000 001356    JRST 1356                          5@  +N    +???w    
001371  332000 002411    SKIPE 2411                         ;0  4)    6@???    
001372  254000 001365    JRST 1365                          5@  +U    +???z    
001373  200140 001361    MOVE 3,1361                        0!@ +Q     ???x    
001374  335000 002410    SKIPGE 2410                        ;H  4(    7 ???    
001375  664100 000400    TROA 2,400                         VA  $     m????    
001376  621140 000100    TLZ 3,100                          R)@ !     d&??     
001377  331000 002407    SKIPL 2407                         ;(  4'    6 ???    
001400  664100 010000    TROA 2,10000                       VA !      m????    
001401  254000 001413    JRST 1413                          5@  ,+    +????    
001402  270140 002427    ADD 3,2427                         7!@ 47    .????    
001403  202140 001320    MOVEM 3,1320                       01@ +0     F??h    
001404  577000 001362    HLRES 0,1362                       OX  +R    _`??y    
001405  721202 360304    CONO UTS,360304(2)                 Z*">#$    t(?`b    
001406  335000 002410    SKIPGE 2410                        ;H  4(    7 ???    
001407  720200 003412    CONO DC,3412                       Z"  <*    t????    
001410  200100 001363    MOVE 2,1363                        0!  +S     ???y    
001411  200140 001364    MOVE 3,1364                        0!@ +T     ???z    
001412  254520 001317    JRST 12,@1317                      5E0 +/    +???g    
001413  541140 001362    HRRI 3,1362                        L)@ +R    X&??y    
001414  202140 000044    MOVEM 3,44                         01@  D     F???    
001415  201140 001324    MOVEI 3,1324                       0)@ +4     &??j    
001416  542140 001320    HRRM 3,1320                        L1@ +0    XF??h    
001417  254000 001405    JRST 1405                          5@  ,%    +????    
001420  700740 000040    CONSO PI,40                        X'@  @    p????    
001421  352000 002416    AOSE 2416                          =0  4.    :@???    
001422  254000 001424    JRST 1424                          5@  ,4    +????    
001423  254000 001457    JRST 1457                          5@  ,O    +????    
001424  721700 000002    CONSZ MT,2                         Z/   "    t<???    
001425  352000 002407    AOSE 2407                          =0  4'    :@???    
001426  476000 002407    SETOM 2407                         GP  4'    O@???    
001427  550100 001334    HRRZ 2,1334                        M!  +<    Z???n    
001430  331000 002407    SKIPL 2407                         ;(  4'    6 ???    
001431  660100 010000    TRO 2,10000                        V! !      l????    
001432  721202 323204    CONO UTS,323204(2)                 Z*"::$    t(?&B    
001433  260040 001474    PUSHJ 1,1474                       6 @ ,\    ,????    
001434  262040 000002    POP 1,2                            60@  "    ,B???    
001435  254120 001436    JRST 2,@1436                       5A0 ,>    +????    
001436  000000 000000                                                 ?????    
001437  261040 000002    PUSH 1,2                           6(@  "    ,"???    
001440  721300 004000    CONSZ UTS,4000                     Z+  @     t,???    
001441  721740 000020    CONSO MT,20                        Z/@  0    t>???    
001442  254000 001447    JRST 1447                          5@  ,G    +????    
001443  476000 002406    SETOM 2406                         GP  4&    O@???    
001444  402000 002415    SETZM 2415                         @0  4-    @@???    
001445  721200 000000    CONO UTS,0                         Z*        t(???    
001446  254000 001434    JRST 1434                          5@  ,<    +????    
001447  721300 000007    CONSZ UTS,7                        Z+   '    t,???    
001450  721740 000017    CONSO MT,17                        Z/@  /    t>???    
001451  254000 001434    JRST 1434                          5@  ,<    +????    
001452  721340 000700    CONSO UTS,700                      Z+@ '     t.??`    
001453  254000 001510    JRST 1510                          5@  -(    +???$    
001454  700740 000040    CONSO PI,40                        X'@  @    p????    
001455  721700 000016    CONSZ MT,16                        Z/   .    t<???    
001456  254000 001420    JRST 1420                          5@  ,0    +????    
001457  201100 000200    MOVEI 2,200                        0)  "      $??@    
001460  272100 000002    ADDM 2,2                           71   "    .D???    
001461  201100 000030    MOVEI 2,30                         0)   8     $???    
001462  202100 002412    MOVEM 2,2412                       01  4*     D???    
001463  721240 000002    CONI UTS,2                         Z*@  "    t*???    
001464  620100 000700    TRZ 2,700                          R!  '     d???`    
001465  721202 000000    CONO UTS,0(2)                      Z*"       t(???    
001466  260040 001301    PUSHJ 1,1301                       6 @ +!    ,???`    
001467  331000 002404    SKIPL 2404                         ;(  4$    6 ???    
001470  476000 002405    SETOM 2405                         GP  4%    O@???    
001471  254000 001434    JRST 1434                          5@  ,<    +????    
001472  211100 000012    MOVNI 2,12                         1)   *    "$???    
001473  202100 002416    MOVEM 2,2416                       01  4.     D???    
001474  402000 002405    SETZM 2405                         @0  4%    @@???    
001475  205100 777600    MOVSI 2,777600                     0I _^     !$??@    
001476  202100 002411    MOVEM 2,2411                       01  4)     D???    
001477  540100 001361    HRR 2,1361                         L!  +Q    X???x    
001500  202100 001362    MOVEM 2,1362                       01  +R     D??y    
001501  200100 000045    MOVE 2,45                          0!   E     ????    
001502  202100 000044    MOVEM 2,44                         01   D     D???    
001503  200100 002430    MOVE 2,2430                        0!  48     ????    
001504  202100 001320    MOVEM 2,1320                       01  +0     D??h    
001505  720200 004012    CONO DC,4012                       Z"  @*    t????    
001506  700600 002240    CONO PI,2240                       X&  2@    p???P    
001507  263040 000000    POPJ 1,                            68@       ,b???    
001510  476000 002415    SETOM 2415                         GP  4-    O@???    
001511  721200 005004    CONO UTS,5004                      Z*  H$    t(???    
001512  476000 002412    SETOM 2412                         GP  4*    O@???    
001513  254000 001434    JRST 1434                          5@  ,<    +????    
001514  331000 001562    SKIPL 1562                         ;(  -R    6 ??9    
001515  254000 001520    JRST 1520                          5@  -0    +???(    
001516  336000 001566    SKIPN 1566                         ;P  -V    7@??;    
001517  263040 000000    POPJ 1,                            68@       ,b???    
001520  336000 001566    SKIPN 1566                         ;P  -V    7@??;    
001521  254000 001514    JRST 1514                          5@  -,    +???&    
001522  370000 001566    SOS 1566                           ?   -V    >???;    
001523  350100 001565    AOS 2,1565                         =!  -U    :???:    
001524  301100 002660    CAIL 2,2660                        8)  6P    0$??X    
001525  254000 001530    JRST 1530                          5@  -8    +???,    
001526  200102 000000    MOVE 2,0(2)                        0!"        ????    
001527  254000 002042    JRST 2042                          5@  0B    +????    
001530  201100 000201    MOVEI 2,201                        0)  "!     $??@    
001531  272100 001524    ADDM 2,1524                        71  -4    .D??*    
001532  350100 001565    AOS 2,1565                         =!  -U    :???:    
001533  305100 014530    CAIGE 2,14530                      8I !E8    1$??,    
001534  254000 001526    JRST 1526                          5@  -6    +???+    
001535  201100 002660    MOVEI 2,2660                       0)  6P     $??X    
001536  542100 001524    HRRM 2,1524                        L1  -4    XD??*    
001537  201100 002460    MOVEI 2,2460                       0)  4P     $???    
001540  542100 001565    HRRM 2,1565                        L1  -U    XD??:    
001541  254000 001526    JRST 1526                          5@  -6    +???+    
001542  335000 001573    SKIPGE 1573                        ;H  -[    7 ??=    
001543  263040 000000    POPJ 1,                            68@       ,b???    
001544  336000 001577    SKIPN 1577                         ;P  -_    7@???    
001545  254000 001542    JRST 1542                          5@  -B    +???1    
001546  261040 000002    PUSH 1,2                           6(@  "    ,"???    
001547  370000 001577    SOS 1577                           ?   -_    >????    
001550  350100 001576    AOS 2,1576                         =!  -^    :????    
001551  301100 026530    CAIL 2,26530                       8) "U8    0$?-,    
001552  254000 001555    JRST 1555                          5@  -M    +???6    
001553  262042 000000    POP 1,0(2)                         60B       ,B???    
001554  254000 001526    JRST 1526                          5@  -6    +???+    
001555  201100 014530    MOVEI 2,14530                      0) !E8     $??,    
001556  542100 001576    HRRM 2,1576                        L1  -^    XD???    
001557  254000 001553    JRST 1553                          5@  -K    +???5    
001560  000000 002457                                           4O    ?????    
001561  000000 002457                                           4O    ?????    
001562  777777 777777    CONSO 774,@777777(17)              ______    ?????    
001563  303100 011600    CAILE 2,11600                      89 !.     0d??@    
001564  002456 014326                                        4N!C6    ?Rp?k    
001565  000000 000000                                                 ?????    
001566  000000 012000                                          !0     ?????    
001571  000000 014527                                          !E7    ????+    
001572  000000 014527                                          !E7    ????+    
001573  777777 777777    CONSO 774,@777777(17)              ______    ?????    
001574  303100 011600    CAILE 2,11600                      89 !.     0d??@    
001575  014527 026327                                       !E7"S7    ??8,k    
001576  000000 000000                                                 ?????    
001577  000000 012000                                          !0     ?????    
001600  000035 000000                                         =       ??h??    
001601  000500 026611                                        % "V)    ???-D    
001602  200103 000002    MOVE 2,2(3)                        0!#  "     ????    
001603  331003 777776    SKIPL 777776(3)                    ;(#__^    6 ???    
001604  256003 777777    XCT 777777(3)                      5P#___    +@???    
001605  263040 000000    POPJ 1,                            68@       ,b???    
001606  262041 000000    POP 1,0(1)                         60A       ,B???    
001607  135100 002431    LDB 2,2431                         +I  49    ?$???    
001610  242100 000003    LSH 2,3                            41   #    (D???    
001611  312100 002406    CAME 2,2406                        91  4&    2D???    
001612  335000 002406    SKIPGE 2406                        ;H  4&    7 ???    
001613  254000 001632    JRST 1632                          5@  .:    +???M    
001614  476000 002415    SETOM 2415                         GP  4-    O@???    
001615  721200 005004    CONO UTS,5004                      Z*  H$    t(???    
001616  254000 001314    JRST 1314                          5@  +,    +???f    
001617  350243 000003    AOS 5,3(3)                         ="C  #    :????    
001620  134103 000004    ILDB 2,4(3)                        +A#  $    ?????    
001621  263040 000000    POPJ 1,                            68@       ,b???    
001622  370243 000003    SOS 5,3(3)                         ?"C  #    >????    
001623  205100 050000    MOVSI 2,50000                      0I %      !$?P?    
001624  270103 000004    ADD 2,4(3)                         7!#  $    .????    
001625  335000 000002    SKIPGE 2                           ;H   "    7 ???    
001626  274100 002432    SUB 2,2432                         7A  4:    /????    
001627  202103 000004    MOVEM 2,4(3)                       01#  $     D???    
001630  135100 000002    LDB 2,2                            +I   "    ?$???    
001631  263040 000000    POPJ 1,                            68@       ,b???    
001632  476000 002410    SETOM 2410                         GP  4(    O@???    
001633  202240 002457    MOVEM 5,2457                       02@ 4O     J???    
001634  200240 002433    MOVE 5,2433                        0"@ 4;     ????    
001635  251240 002456    BLT 5,2456                         5*@ 4N    **???    
001636  135100 002431    LDB 2,2431                         +I  49    ?$???    
001637  261040 002425    PUSH 1,2425                        6(@ 45    ,"???    
001640  260040 002306    PUSHJ 1,2306                       6 @ 3&    ,???c    
001641  201100 001622    MOVEI 2,1622                       0)  .2     $??I    
001642  331203 000003    SKIPL 4,3(3)                       ;*#  #    6(???    
001643  201100 001617    MOVEI 2,1617                       0)  ./     $??G    
001644  542100 001655    HRRM 2,1655                        L1  .M    XD??V    
001645  241200 000011    ROT 4,11                           4*   )    ((???    
001646  620200 777740    TRZ 4,777740                       R" __@    d???p    
001647  201100 000006    MOVEI 2,6                          0)   &     $???    
001650  202100 002413    MOVEM 2,2413                       01  4+     D???    
001651  606200 000037    TRNN 4,37                          PR   ?    aH???    
001652  254000 001655    JRST 1655                          5@  .M    +???V    
001653  402000 002410    SETZM 2410                         @0  4(    @@???    
001654  402000 002413    SETZM 2413                         @0  4+    @@???    
001655  260040 001617    PUSHJ 1,1617                       6 @ ./    ,???G    
001656  602240 777777    TRNE 5,777777                      P2@___    `J???    
001657  306100 000037    CAIN 2,37                          8Q   ?    1D???    
001660  254000 001734    JRST 1734                          5@  /<    +???n    
001661  302104 000000    CAIE 2,0(4)                        81$       0D ??    
001662  374000 002413    SOSA 2413                          ?@  4+    ?????    
001663  373000 002413    SOSLE 2413                         ?8  4+    >`???    
001664  254000 001655    JRST 1655                          5@  .M    +???V    
001665  241200 000011    ROT 4,11                           4*   )    ((???    
001666  137203 000004    DPB 4,4(3)                         +Z#  $    ?h???    
001667  200103 000003    MOVE 2,3(3)                        0!#  #     ????    
001670  542100 001337    HRRM 2,1337                        L1  +?    XD??o    
001671  201103 000002    MOVEI 2,2(3)                       0)#  "     $???    
001672  542100 001460    HRRM 2,1460                        L1  ,P    XD???    
001673  241200 777776    ROT 4,777776                       4* __^    ((???    
001674  405200 000070    ANDI 4,70                          @J   X    A(???    
001675  542200 001334    HRRM 4,1334                        L2  +<    XH??n    
001676  312200 002406    CAME 4,2406                        92  4&    2H???    
001677  260040 001725    PUSHJ 1,1725                       6 @ /5    ,???j    
001700  476000 002404    SETOM 2404                         GP  4$    O@???    
001701  200103 777774    MOVE 2,777774(3)                   0!#__\     ???~    
001702  542100 001361    HRRM 2,1361                        L1  +Q    XD??x    
001703  200243 000000    MOVE 5,0(3)                        0"C        ????    
001704  271100 000200    ADDI 2,200                         7)  "     .$??@    
001705  303105 000000    CAILE 2,0(5)                       89%       0d(??    
001706  554100 000005    HLRZ 2,5                           MA   %    [????    
001707  336000 002410    SKIPN 2410                         ;P  4(    7@???    
001710  350000 000002    AOS 2                              =    "    :????    
001711  202103 777774    MOVEM 2,777774(3)                  01#__\     D??~    
001712  721240 000004    CONI UTS,4                         Z*@  $    t*???    
001713  622200 000700    TRZE 4,700                         R2  '     dH??`    
001714  254000 001717    JRST 1717                          5@  //    +???g    
001715  435200 000200    IORI 4,200                         CJ  "     G(??@    
001716  721204 000000    CONO UTS,0(4)                      Z*$       t( ??    
001717  260040 001472    PUSHJ 1,1472                       6 @ ,Z    ,????    
001720  262040 000002    POP 1,2                            60@  "    ,B???    
001721  260040 002306    PUSHJ 1,2306                       6 @ 3&    ,???c    
001722  204240 002433    MOVS 5,2433                        0B@ 4;    !????    
001723  251240 000005    BLT 5,5                            5*@  %    **???    
001724  254000 001314    JRST 1314                          5@  +,    +???f    
001725  202200 002406    MOVEM 4,2406                       02  4&     H???    
001726  476000 002407    SETOM 2407                         GP  4'    O@???    
001727  331003 000003    SKIPL 3(3)                         ;(#  #    6 ???    
001730  354000 002407    AOSA 2407                          =@  4'    ;????    
001731  275200 010000    SUBI 4,10000                       7J !      /(???    
001732  721204 333204    CONO UTS,333204(4)                 Z*$;:$    t(#6B    
001733  263040 000000    POPJ 1,                            68@       ,b???    
001734  336100 002410    SKIPN 2,2410                       ;Q  4(    7D???    
001735  254000 001745    JRST 1745                          5@  /E    +???r    
001736  260040 002141    PUSHJ 1,2141                       6 @ 1A    ,???0    
001737  335000 001573    SKIPGE 1573                        ;H  -[    7 ??=    
001740  254000 001720    JRST 1720                          5@  /0    +???h    
001741  200140 002455    MOVE 3,2455                        0!@ 4M     ????    
001742  205100 400000    MOVSI 2,400000                     0I @      !$???    
001743  432103 000003    XORM 2,3(3)                        C1#  #    FD???    
001744  254000 001641    JRST 1641                          5@  .A    +???P    
001745  550140 000004    HRRZ 3,4                           M!@  $    Z????    
001746  260040 001766    PUSHJ 1,1766                       6 @ /V    ,???{    
001747  254000 001753    JRST 1753                          5@  /K    +???u    
001750  137200 002434    DPB 4,2434                         +Z  4<    ?h???    
001751  137200 002435    DPB 4,2435                         +Z  4=    ?h???    
001752  254000 001741    JRST 1741                          5@  /A    +???p    
001753  476000 001562    SETOM 1562                         GP  -R    O@??9    
001754  254000 001720    JRST 1720                          5@  /0    +???h    
001755  200103 777775    MOVE 2,777775(3)                   0!#__]     ???~    
001756  202103 000001    MOVEM 2,1(3)                       01#  !     D???    
001757  202103 777774    MOVEM 2,777774(3)                  01#__\     D??~    
001760  205100 400000    MOVSI 2,400000                     0I @      !$???    
001761  412103 000003    ANDCAM 2,3(3)                      A1#  #    BD???    
001762  513003 000003    HLLZS 0,3(3)                       I8#  #    R`???    
001763  200100 002424    MOVE 2,2424                        0!  44     ????    
001764  202103 000004    MOVEM 2,4(3)                       01#  $     D???    
001765  263040 000000    POPJ 1,                            68@       ,b???    
001766  205200 777751    MOVSI 4,777751                     0J __I    !(??t    
001767  334240 002423    SKIPA 5,2423                       ;B@ 43    7????    
001770  271240 000002    ADDI 5,2                           7*@  "    .*???    
001771  312105 000000    CAME 2,0(5)                        91%       2D(??    
001772  316100 002436    CAMN 2,2436                        9Q  4>    3D???    
001773  254000 001775    JRST 1775                          5@  /]    +???~    
001774  253200 001770    AOBJN 4,1770                       5:  /X    *h??|    
001775  325200 002002    JUMPGE 4,2002                      :J  0"    5(???    
001776  312145 000001    CAME 3,1(5)                        91E  !    2F(??    
001777  316140 002436    CAMN 3,2436                        9Q@ 4>    3F???    
002000  254000 002002    JRST 2002                          5@  0"    +????    
002001  253200 001770    AOBJN 4,1770                       5:  /X    *h??|    
002002  627200 777777    TLZN 4,777777                      RZ ___    eh???    
002003  263040 000000    POPJ 1,                            68@       ,b???    
002004  350000 000004    AOS 4                              =    $    :????    
002005  254000 002042    JRST 2042                          5@  0B    +????    
002006  260040 002032    PUSHJ 1,2032                       6 @ 0:    ,????    
002007  476000 001562    SETOM 1562                         GP  -R    O@??9    
002010  260040 001264    PUSHJ 1,1264                       6 @ *T    ,???Z    
002011  260040 001766    PUSHJ 1,1766                       6 @ /V    ,???{    
002012  254000 002036    JRST 2036                          5@  0>    +????    
002013  200140 002425    MOVE 3,2425                        0!@ 45     ????    
002014  242140 000005    LSH 3,5                            41@  %    (F???    
002015  516140 001567    HRLZM 3,1567                       IQ@ -W    SF??;    
002016  137200 002434    DPB 4,2434                         +Z  4<    ?h???    
002017  137200 002435    DPB 4,2435                         +Z  4=    ?h???    
002020  402000 001566    SETZM 1566                         @0  -V    @@??;    
002021  201140 001564    MOVEI 3,1564                       0)@ -T     &??:    
002022  260040 001755    PUSHJ 1,1755                       6 @ /M    ,???v    
002023  200100 002437    MOVE 2,2437                        0!  4?     ????    
002024  202100 002421    MOVEM 2,2421                       01  41     D???    
002025  201100 002660    MOVEI 2,2660                       0)  6P     $??X    
002026  542100 001524    HRRM 2,1524                        L1  -4    XD??*    
002027  402000 001562    SETZM 1562                         @0  -R    @@??9    
002030  254000 002040    JRST 2040                          5@  0@    +????    
002031  370001 777777    SOS 777777(1)                      ? !___    >????    
002032  202240 002453    MOVEM 5,2453                       02@ 4K     J???    
002033  200240 002440    MOVE 5,2440                        0"@ 4@     ????    
002034  251240 002452    BLT 5,2452                         5*@ 4J    **???    
002035  263040 000000    POPJ 1,                            68@       ,b???    
002036  402000 002450    SETZM 2450                         @0  4H    @@???    
002037  370001 000000    SOS 0(1)                           ? !       >????    
002040  204240 002440    MOVS 5,2440                        0B@ 4@    !????    
002041  251240 000005    BLT 5,5                            5*@  %    **???    
002042  350001 000000    AOS 0(1)                           = !       :????    
002043  263040 000000    POPJ 1,                            68@       ,b???    
002044  260040 002032    PUSHJ 1,2032                       6 @ 0:    ,????    
002045  135100 002441    LDB 2,2441                         +I  4A    ?$???    
002046  261040 002425    PUSH 1,2425                        6(@ 45    ,"???    
002047  260040 002306    PUSHJ 1,2306                       6 @ 3&    ,???c    
002050  200100 002450    MOVE 2,2450                        0!  4H     ????    
002051  261040 000003    PUSH 1,3                           6(@  #    ,"???    
002052  261040 000002    PUSH 1,2                           6(@  "    ,"???    
002053  260040 002271    PUSHJ 1,2271                       6 @ 2Y    ,???\    
002054  201100 000141    MOVEI 2,141                        0)  !A     $??0    
002055  201140 000004    MOVEI 3,4                          0)@  $     &???    
002056  260040 002366    PUSHJ 1,2366                       6 @ 3V    ,???{    
002057  255000 000000    JFCL 0                             5H        + ???    
002060  367140 002056    SOJG 3,2056                        >Y@ 0N    =f???    
002061  200100 002442    MOVE 2,2442                        0!  4B     ????    
002062  135140 002443    LDB 3,2443                         +I@ 4C    ?&???    
002063  322140 002067    JUMPE 3,2067                       :1@ 0W    4F???    
002064  260040 001544    PUSHJ 1,1544                       6 @ -D    ,???2    
002065  254000 002106    JRST 2106                          5@  1&    +???#    
002066  254000 002062    JRST 2062                          5@  0R    +????    
002067  201140 012000    MOVEI 3,12000                      0)@!0      &???    
002070  312140 001577    CAME 3,1577                        91@ -_    2F???    
002071  254000 002070    JRST 2070                          5@  0X    +????    
002072  260040 002141    PUSHJ 1,2141                       6 @ 1A    ,???0    
002073  402000 000002    SETZM 2                            @0   "    @@???    
002074  201140 000105    MOVEI 3,105                        0)@ !%     &??"    
002075  260040 001766    PUSHJ 1,1766                       6 @ /V    ,???{    
002076  254000 002036    JRST 2036                          5@  0>    +????    
002077  262045 000000    POP 1,0(5)                         60E       ,B(??    
002100  262045 000001    POP 1,1(5)                         60E  !    ,B(??    
002101  260040 002122    PUSHJ 1,2122                       6 @ 12    ,???)    
002102  260040 002167    PUSHJ 1,2167                       6 @ 1W    ,???;    
002103  262040 000002    POP 1,2                            60@  "    ,B???    
002104  260040 002306    PUSHJ 1,2306                       6 @ 3&    ,???c    
002105  254000 002040    JRST 2040                          5@  0@    +????    
002106  370001 777775    SOS 777775(1)                      ? !__]    >???~    
002107  254000 002072    JRST 2072                          5@  0Z    +????    
002110  260040 002032    PUSHJ 1,2032                       6 @ 0:    ,????    
002111  403100 000003    SETZB 2,3                          @9   #    @d???    
002112  260040 001766    PUSHJ 1,1766                       6 @ /V    ,???{    
002113  254000 002036    JRST 2036                          5@  0>    +????    
002114  201140 000105    MOVEI 3,105                        0)@ !%     &??"    
002115  260040 002271    PUSHJ 1,2271                       6 @ 2Y    ,???\    
002116  201200 000000    MOVEI 4,0                          0*         (???    
002117  260040 002154    PUSHJ 1,2154                       6 @ 1L    ,???6    
002120  260040 002122    PUSHJ 1,2122                       6 @ 12    ,???)    
002121  254000 002040    JRST 2040                          5@  0@    +????    
002122  201100 012000    MOVEI 2,12000                      0) !0      $???    
002123  202100 001577    MOVEM 2,1577                       01  -_     D???    
002124  201140 001575    MOVEI 3,1575                       0)@ -]     &??>    
002125  260040 001755    PUSHJ 1,1755                       6 @ /M    ,???v    
002126  200100 002444    MOVE 2,2444                        0!  4D     ????    
002127  202100 002422    MOVEM 2,2422                       01  42     D???    
002130  201100 000005    MOVEI 2,5                          0)   %     $???    
002131  202100 002420    MOVEM 2,2420                       01  40     D???    
002132  200100 002425    MOVE 2,2425                        0!  45     ????    
002133  137100 002441    DPB 2,2441                         +Y  4A    ?d???    
002134  201100 000105    MOVEI 2,105                        0)  !%     $??"    
002135  202100 002414    MOVEM 2,2414                       01  4,     D???    
002136  402000 002417    SETZM 2417                         @0  4/    @@???    
002137  402000 001573    SETZM 1573                         @0  -[    @@??=    
002140  263040 000000    POPJ 1,                            68@       ,b???    
002141  403100 000003    SETZB 2,3                          @9   #    @d???    
002142  260040 001766    PUSHJ 1,1766                       6 @ /V    ,???{    
002143  254000 002163    JRST 2163                          5@  1S    +???9    
002144  200100 000004    MOVE 2,4                           0!   $     ????    
002145  250100 002414    EXCH 2,2414                        5!  4,    *????    
002146  202105 000001    MOVEM 2,1(5)                       01%  !     D(??    
002147  200100 002423    MOVE 2,2423                        0!  43     ????    
002150  270100 000004    ADD 2,4                            7!   $    .????    
002151  201140 000001    MOVEI 3,1                          0)@  !     &???    
002152  412142 000055    ANDCAM 3,55(2)                     A1B  M    BF???    
002153  412142 000104    ANDCAM 3,104(2)                    A1B !$    BF??"    
002154  200140 002424    MOVE 3,2424                        0!@ 44     ????    
002155  134100 000003    ILDB 2,3                           +A   #    ?????    
002156  306100 000035    CAIN 2,35                          8Q   =    1D???    
002157  137200 000003    DPB 4,3                            +Z   #    ?h???    
002160  302100 000037    CAIE 2,37                          81   ?    0D???    
002161  254000 002155    JRST 2155                          5@  1M    +???6    
002162  263040 000000    POPJ 1,                            68@       ,b???    
002163  476000 001573    SETOM 1573                         GP  -[    O@??=    
002164  263040 000000    POPJ 1,                            68@       ,b???    
002165  260040 002031    PUSHJ 1,2031                       6 @ 09    ,????    
002166  261040 002245    PUSH 1,2245                        6(@ 2E    ,"??R    
002167  200100 002425    MOVE 2,2425                        0!  45     ????    
002170  211140 000001    MOVNI 3,1                          1)@  !    "&???    
002171  201200 000100    MOVEI 4,100                        0*  !      (??     
002172  242100 000003    LSH 2,3                            41   #    (D???    
002173  260040 001266    PUSHJ 1,1266                       6 @ *V    ,???[    
002174  202140 002410    MOVEM 3,2410                       01@ 4(     F???    
002175  316100 002406    CAMN 2,2406                        9Q  4&    3D???    
002176  254000 002201    JRST 2201                          5@  2!    +???@    
002177  260040 001264    PUSHJ 1,1264                       6 @ *T    ,???Z    
002200  476000 002407    SETOM 2407                         GP  4'    O@???    
002201  542100 001334    HRRM 2,1334                        L1  +<    XD??n    
002202  202100 002406    MOVEM 2,2406                       01  4&     D???    
002203  540140 002423    HRR 3,2423                         L!@ 43    X????    
002204  370000 000003    SOS 3                              ?    #    >????    
002205  542140 001361    HRRM 3,1361                        L1@ +Q    XF??x    
002206  201140 002413    MOVEI 3,2413                       0)@ 4+     &???    
002207  542140 001460    HRRM 3,1460                        L1@ ,P    XF???    
002210  542200 001337    HRRM 4,1337                        L2  +?    XH??o    
002211  331000 002407    SKIPL 2407                         ;(  4'    6 ???    
002212  660100 010000    TRO 2,10000                        V! !      l????    
002213  721202 322204    CONO UTS,322204(2)                 Z*":2$    t(?$B    
002214  260040 001472    PUSHJ 1,1472                       6 @ ,Z    ,????    
002215  201100 352300    MOVEI 2,352300                     0) =3      $?T`    
002216  205140 777600    MOVSI 3,777600                     0I@_^     !&??@    
002217  331000 002410    SKIPL 2410                         ;(  4(    6 ???    
002220  335000 002405    SKIPGE 2405                        ;H  4%    7 ???    
002221  263040 000000    POPJ 1,                            68@       ,b???    
002222  316140 002411    CAMN 3,2411                        9Q@ 4)    3F???    
002223  365100 002220    SOJGE 2,2220                       >I  20    =$??H    
002224  325100 002220    JUMPGE 2,2220                      :I  20    5$??H    
002225  476000 002415    SETOM 2415                         GP  4-    O@???    
002226  721200 005004    CONO UTS,5004                      Z*  H$    t(???    
002227  476000 002405    SETOM 2405                         GP  4%    O@???    
002230  200100 002425    MOVE 2,2425                        0!  45     ????    
002231  260040 002306    PUSHJ 1,2306                       6 @ 3&    ,???c    
002232  402004 026530    SETZM 26530(4)                     @0$"U8    @@ -,    
002233  211100 000002    MOVNI 2,2                          1)   "    "$???    
002234  263040 000000    POPJ 1,                            68@       ,b???    
002235  260040 002031    PUSHJ 1,2031                       6 @ 09    ,????    
002236  261040 002425    PUSH 1,2425                        6(@ 45    ,"???    
002237  405100 000007    ANDI 2,7                           @I   '    A$???    
002240  260040 002306    PUSHJ 1,2306                       6 @ 3&    ,???c    
002241  321200 002243    JUMPL 4,2243                       :*  2C    4(??Q    
002242  402004 026530    SETZM 26530(4)                     @0$"U8    @@ -,    
002243  262040 000002    POP 1,2                            60@  "    ,B???    
002244  260040 002306    PUSHJ 1,2306                       6 @ 3&    ,???c    
002245  254000 002040    JRST 2040                          5@  0@    +????    
002246  254000 002460    JRST 2460                          5@  4P    +????    
002247  260040 002032    PUSHJ 1,2032                       6 @ 0:    ,????    
002250  260040 002306    PUSHJ 1,2306                       6 @ 3&    ,???c    
002251  325200 002040    JUMPGE 4,2040                      :J  0@    5(???    
002252  403100 000003    SETZB 2,3                          @9   #    @d???    
002253  260040 002306    PUSHJ 1,2306                       6 @ 3&    ,???c    
002254  321200 002036    JUMPL 4,2036                       :*  0>    4(???    
002255  200100 002450    MOVE 2,2450                        0!  4H     ????    
002256  202104 026530    MOVEM 2,26530(4)                   01$"U8     D -,    
002257  202100 002425    MOVEM 2,2425                       01  45     D???    
002260  260040 002171    PUSHJ 1,2171                       6 @ 1Y    ,???<    
002261  321100 002267    JUMPL 2,2267                       :)  2W    4$??[    
002262  200200 002423    MOVE 4,2423                        0"  43     ????    
002263  135200 002445    LDB 4,2445                         +J  4E    ?(???    
002264  306200 000037    CAIN 4,37                          8R   ?    1H???    
002265  254000 002040    JRST 2040                          5@  0@    +????    
002266  211100 000001    MOVNI 2,1                          1)   !    "$???    
002267  202100 002450    MOVEM 2,2450                       01  4H     D???    
002270  254000 002037    JRST 2037                          5@  0?    +????    
002271  260040 001766    PUSHJ 1,1766                       6 @ /V    ,???{    
002272  263040 000000    POPJ 1,                            68@       ,b???    
002273  402005 000001    SETZM 1(5)                         @0%  !    @@(??    
002274  403245 000000    SETZB 5,0(5)                       @:E       @j(??    
002275  200140 002424    MOVE 3,2424                        0!@ 44     ????    
002276  134100 000003    ILDB 2,3                           +A   #    ?????    
002277  316100 000004    CAMN 2,4                           9Q   $    3D???    
002300  137240 000003    DPB 5,3                            +Z@  #    ?j???    
002301  302100 000037    CAIE 2,37                          81   ?    0D???    
002302  254000 002276    JRST 2276                          5@  2^    +???_    
002303  402000 000002    SETZM 2                            @0   "    @@???    
002304  200140 000004    MOVE 3,4                           0!@  $     ????    
002305  254000 002271    JRST 2271                          5@  2Y    +???\    
002306  205200 777774    MOVSI 4,777774                     0J __\    !(??~    
002307  312104 026530    CAME 2,26530(4)                    91$"U8    2D -,    
002310  253200 002307    AOBJN 4,2307                       5:  3'    *h??c    
002311  667200 777777    TLON 4,777777                      VZ ___    mh???    
002312  263040 000000    POPJ 1,                            68@       ,b???    
002313  553240 000004    HRRZS 5,4                          M:@  $    Zj???    
002314  221240 000200    IMULI 5,200                        2*@ "     $*??@    
002315  271240 026534    ADDI 5,26534                       7*@"U<    .*?-.    
002316  202240 002423    MOVEM 5,2423                       02@ 43     J???    
002317  271240 000055    ADDI 5,55                          7*@  M    .*???    
002320  542240 002424    HRRM 5,2424                        L2@ 44    XJ???    
002321  202100 002425    MOVEM 2,2425                       01  45     D???    
002322  263040 000000    POPJ 1,                            68@       ,b???    
002323  260040 002031    PUSHJ 1,2031                       6 @ 09    ,????    
002324  260040 002271    PUSHJ 1,2271                       6 @ 2Y    ,???\    
002325  254000 002040    JRST 2040                          5@  0@    +????    
002326  336000 001566    SKIPN 1566                         ;P  -V    7@??;    
002327  254000 002357    JRST 2357                          5@  3O    +???w    
002330  134100 002421    ILDB 2,2421                        +A  41    ?????    
002331  302100 000141    CAIE 2,141                         81  !A    0D??0    
002332  254000 002042    JRST 2042                          5@  0B    +????    
002333  550100 002421    HRRZ 2,2421                        M!  41    Z????    
002334  306100 002054    CAIN 2,2054                        8Q  0L    1D???    
002335  254000 002363    JRST 2363                          5@  3S    +???y    
002336  275100 000201    SUBI 2,201                         7I  "!    /$??@    
002337  312100 001565    CAME 2,1565                        91  -U    2D??:    
002340  254000 002357    JRST 2357                          5@  3O    +???w    
002341  271100 000202    ADDI 2,202                         7)  ""    .$??A    
002342  301100 014530    CAIL 2,14530                       8) !E8    0$??,    
002343  201100 002460    MOVEI 2,2460                       0)  4P     $???    
002344  505100 440700    HRLI 2,440700                      HI D'     Q$?A`    
002345  202100 002421    MOVEM 2,2421                       01  41     D???    
002346  370000 000002    SOS 2                              ?    "    >????    
002347  542100 001565    HRRM 2,1565                        L1  -U    XD??:    
002350  211100 000200    MOVNI 2,200                        1)  "     "$??@    
002351  272100 001566    ADDM 2,1566                        71  -V    .D??;    
002352  335000 001562    SKIPGE 1562                        ;H  -R    7 ??9    
002353  254000 002326    JRST 2326                          5@  36    +???k    
002354  336000 001566    SKIPN 1566                         ;P  -V    7@??;    
002355  254000 002352    JRST 2352                          5@  3J    +???u    
002356  254000 002330    JRST 2330                          5@  38    +???l    
002357  200100 002446    MOVE 2,2446                        0!  4F     ????    
002360  202100 002421    MOVEM 2,2421                       01  41     D???    
002361  201100 000014    MOVEI 2,14                         0)   ,     $???    
002362  263040 000000    POPJ 1,                            68@       ,b???    
002363  200100 002447    MOVE 2,2447                        0!  4G     ????    
002364  202100 002421    MOVEM 2,2421                       01  41     D???    
002365  254000 002352    JRST 2352                          5@  3J    +???u    
002366  136100 002422    IDPB 2,2422                        +Q  42    ?D???    
002367  373000 002420    SOSLE 2420                         ?8  40    >`???    
002370  254000 002042    JRST 2042                          5@  0B    +????    
002371  202100 002450    MOVEM 2,2450                       01  4H     D???    
002372  201100 000005    MOVEI 2,5                          0)   %     $???    
002373  202100 002420    MOVEM 2,2420                       01  40     D???    
002374  200100 002444    MOVE 2,2444                        0!  4D     ????    
002375  202100 002422    MOVEM 2,2422                       01  42     D???    
002376  200100 002417    MOVE 2,2417                        0!  4/     ????    
002377  260040 001544    PUSHJ 1,1544                       6 @ -D    ,???2    
002400  263040 000000    POPJ 1,                            68@       ,b???    
002401  402000 002417    SETZM 2417                         @0  4/    @@???    
002402  200100 002450    MOVE 2,2450                        0!  4H     ????    
002403  254000 002042    JRST 2042                          5@  0B    +????    
002404  000000 000000                                                 ?????    
002405  777777 777777    CONSO 774,@777777(17)              ______    ?????    
002406  777777 777777    CONSO 774,@777777(17)              ______    ?????    
002420  000000 000005                                            %    ?????    
002421  070700 002054                                       ''  0L    ?????    
002422  010700 002416                                       !'  4.    ?????    
002423  000000 026534                                          "U<    ???-.    
002424  000500 026611                                        % "V)    ???-D    
002425  000000 000002                                            "    ?????    
002426  001564 001575                                        -T -]    ?7 ?>    
002427  000040 000200                                         @ "     ????@    
002430  254000 001330    JRST 1330                          5@  +8    +???l    
002431  270403 000003    ADD 10,3(3)                        7$#  #    .????    
002432  430000 000001    XOR 0,1                            C    !    F????    
002433  000002 002454                                         " 4L    ?????    
002434  220500 001567    IMUL 12,1567                       2%  -W    $???;    
002435  330500 001567    SKIP 12,1567                       ;%  -W    6???;    
002436  120000 000000                                       *         ?????    
002437  070700 002054                                       ''  0L    ?????    
002440  000002 002450                                         " 4H    ?????    
002441  270400 001600    ADD 10,1600                        7$  .     .???@    
002442  604000 000001    TRNA 1                             P@   !    a????    
002443  000700 001577                                        '  -_    ?????    
002444  010700 002416                                       !'  4.    ?????    
002445  370504 000177    SOS 12,177(4)                      ?%$ !_    >? ??    
002446  070700 002331                                       ''  39    ????l    
002447  440700 002460    ANDCB 16,2460                      D'  4P    H????    
002460  261040 000002    PUSH 1,2                           6(@  "    ,"???    
002461  261040 000003    PUSH 1,3                           6(@  #    ,"???    
002462  200100 002521    MOVE 2,2521                        0!  51     ???(    
002463  202100 002246    MOVEM 2,2246                       01  2F     D??S    
002464  205100 604000    MOVSI 2,604000                     0I P@     !$???    
002465  201140 000050    MOVEI 3,50                         0)@  H     &???    
002466  323140 002472    JUMPLE 3,2472                      :9@ 4Z    4f???    
002467  512102 002660    HLLZM 2,2660(2)                    I1" 6P    RD??X    
002470  271100 000201    ADDI 2,201                         7)  "!    .$??@    
002471  367140 002467    SOJG 3,2467                        >Y@ 4W    =f???    
002472  261040 000004    PUSH 1,4                           6(@  $    ,"???    
002473  201100 000004    MOVEI 2,4                          0)   $     $???    
002474  201140 000000    MOVEI 3,0                          0)@        &???    
002475  505140 777722    HRLI 3,777722                      HI@__2    Q&??i    
002476  402003 026534    SETZM 26534(3)                     @0#"U<    @@?-.    
002477  253140 002476    AOBJN 3,2476                       59@ 4^    *f???    
002500  200200 002522    MOVE 4,2522                        0"  52     ???)    
002501  202203 026534    MOVEM 4,26534(3)                   02#"U<     H?-.    
002502  505140 777770    HRLI 3,777770                      HI@__X    Q&??|    
002503  402003 026535    SETZM 26535(3)                     @0#"U=    @@?-.    
002504  253140 002503    AOBJN 3,2503                       59@ 5#    *f??!    
002505  205200 660000    MOVSI 4,660000                     0J V      !(?`?    
002506  202203 026535    MOVEM 4,26535(3)                   02#"U=     H?-.    
002507  505140 777671    HRLI 3,777671                      HI@_^Y    Q&??\    
002510  402003 026536    SETZM 26536(3)                     @0#"U>    @@?-/    
002511  253140 002510    AOBJN 3,2510                       59@ 5(    *f??$    
002512  476003 026536    SETOM 26536(3)                     GP#"U>    O@?-/    
002513  271140 000003    ADDI 3,3                           7)@  #    .&???    
002514  367100 002475    SOJG 2,2475                        >Y  4]    =d???    
002515  262040 000004    POP 1,4                            60@  $    ,B???    
002516  262040 000003    POP 1,3                            60@  #    ,B???    
002517  262040 000002    POP 1,2                            60@  "    ,B???    
002520  254000 002246    JRST 2246                          5@  2F    +???S    
002521  405100 000007    ANDI 2,7                           @I   '    A$???    
002522  757367 573674    CONSO 570,@573674(7)               ][WO>\    {o=w^    
027534  700200 633555    CONO APR,633555                    X" S=M    p??76    
027535  200040 036435    MOVE 1,36435                       0 @#T=     ??=?    
027536  710600 000020    CONO PTR,20                        Y&   0    r????    
027537  710600 000000    CONO PTR,0                         Y&        r????    
027540  700600 012237    CONO PI,12237                      X& !2?    p???O    
027541  476000 036604    SETOM 36604                        GP #V$    O@?=B    
027542  201100 001200    MOVEI 2,1200                       0)  *      $??@    
027543  202100 034050    MOVEM 2,34050                      01 #@H     D?8?    
027544  202100 034051    MOVEM 2,34051                      01 #@I     D?8?    
027545  202100 034052    MOVEM 2,34052                      01 #@J     D?8?    
027546  202100 034053    MOVEM 2,34053                      01 #@K     D?8?    
027547  201100 036712    MOVEI 2,36712                      0) #W*     $?=e    
027550  202100 034072    MOVEM 2,34072                      01 #@Z     D?8?    
027551  403000 034046    SETZB 0,34046                      @8 #@F    @`?8?    
027552  476000 002405    SETOM 2405                         GP  4%    O@???    
027553  402000 033335    SETZM 33335                        @0 #;=    @@?6n    
027554  776200 000000    CONO 760,0                         _R        ?H???    
027555  776240 000002    CONI 760,2                         _R@  "    ?J???    
027556  405100 003000    ANDI 2,3000                        @I  8     A$???    
027557  202100 033336    MOVEM 2,33336                      01 #;>     D?6o    
027560  700600 002237    CONO PI,2237                       X&  2?    p???O    
027561  476000 002406    SETOM 2406                         GP  4&    O@???    
027562  200040 036435    MOVE 1,36435                       0 @#T=     ??=?    
027563  200740 036436    MOVE 17,36436                      0'@#T>     ??=?    
027564  476000 030037    SETOM 30037                        GP # ?    O@?0?    
027565  402000 030146    SETZM 30146                        @0 #!F    @@?03    
027566  402000 034045    SETZM 34045                        @0 #@E    @@?8?    
027567  712200 000014    CONO TTY,14                        Y2   ,    rH???    
027570  337000 030045    SKIPG 30045                        ;X # E    7`?0?    
027571  254000 027574    JRST 27574                         5@ "]\    +??/>    
027572  260040 027611    PUSHJ 1,27611                      6 @"^)    ,??/D    
027573  254000 027570    JRST 27570                         5@ "]X    +??/<    
027574  402000 030037    SETZM 30037                        @0 # ?    @@?0?    
027575  260040 030213    PUSHJ 1,30213                      6 @#"+    ,??0E    
027576  200040 036435    MOVE 1,36435                       0 @#T=     ??=?    
027577  331000 030037    SKIPL 30037                        ;( # ?    6 ?0?    
027600  335000 030146    SKIPGE 30146                       ;H #!F    7 ?03    
027601  254000 027564    JRST 27564                         5@ "]T    +??/:    
027602  626000 000400    TRZN 0,400                         RP  $     e@???    
027603  254000 031410    JRST 31410                         5@ #,(    +??3?    
027604  700600 004002    CONO PI,4002                       X&  @"    p????    
027605  700200 433555    CONO APR,433555                    X" C=M    p??76    
027606  402000 034054    SETZM 34054                        @0 #@L    @@?8?    
027607  620000 773777    TRZ 0,773777                       R  _?_    d??w?    
027610  254000 030244    JRST 30244                         5@ #"D    +??0R    
027611  134700 777777    ILDB 16,777777                     +G ___    ?????    
027612  326700 031143    JUMPN 16,31143                     :W #)C    5\?21    
027613  402000 777777    SETZM 777777                       @0 ___    @@???    
027614  201700 000012    MOVEI 16,12                        0/   *     <???    
027615  356000 034064    AOSN 34064                         =P #@T    ;@?8?    
027616  263040 000000    POPJ 1,                            68@       ,b???    
027617  335000 030146    SKIPGE 30146                       ;H #!F    7 ?03    
027620  254000 027564    JRST 27564                         5@ "]T    +??/:    
027621  337000 030045    SKIPG 30045                        ;X # E    7`?0?    
027622  254000 027617    JRST 27617                         5@ "^/    +??/G    
027623  200700 030044    MOVE 16,30044                      0' # D     ??0?    
027624  316700 036437    CAMN 16,36437                      9W #T?    3\?=?    
027625  201700 030047    MOVEI 16,30047                     0/ # G     <?0?    
027626  542700 030044    HRRM 16,30044                      L7 # D    X\?0?    
027627  134700 030044    ILDB 16,30044                      +G # D    ???0?    
027630  306700 000015    CAIN 16,15                         8W   -    1\???    
027631  476000 034064    SETOM 34064                        GP #@T    O@?8?    
027632  370000 030045    SOS 30045                          ?  # E    >??0?    
027633  263040 000000    POPJ 1,                            68@       ,b???    
027634  306700 000011    CAIN 16,11                         8W   )    1\???    
027635  254000 027655    JRST 27655                         5@ "^M    +??/V    
027636  306700 000015    CAIN 16,15                         8W   -    1\???    
027637  476000 034075    SETOM 34075                        GP #@]    O@?8?    
027640  302700 000012    CAIE 16,12                         87   *    0\???    
027641  350000 034075    AOS 34075                          =  #@]    :??8?    
027642  337000 030042    SKIPG 30042                        ;X # B    7`?0?    
027643  254000 027642    JRST 27642                         5@ "^B    +??/Q    
027644  136700 030040    IDPB 16,30040                      +W # @    ?\?0?    
027645  370000 030042    SOS 30042                          ?  # B    >??0?    
027646  250700 030040    EXCH 16,30040                      5' # @    *??0?    
027647  316700 036440    CAMN 16,36440                      9W #T@    3\?=?    
027650  541700 030101    HRRI 16,30101                      L/ #!!    X<?0     
027651  250700 030040    EXCH 16,30040                      5' # @    *??0?    
027652  712340 000030    CONSO TTY,30                       Y3@  8    rN???    
027653  712200 000014    CONO TTY,14                        Y2   ,    rH???    
027654  263040 000000    POPJ 1,                            68@       ,b???    
027655  201700 000040    MOVEI 16,40                        0/   @     <???    
027656  260040 027634    PUSHJ 1,27634                      6 @"^<    ,??/N    
027657  200700 034075    MOVE 16,34075                      0' #@]     ??8?    
027660  602700 000007    TRNE 16,7                          P7   '    `\???    
027661  254000 027655    JRST 27655                         5@ "^M    +??/V    
027662  201700 000011    MOVEI 16,11                        0/   )     <???    
027663  263040 000000    POPJ 1,                            68@       ,b???    
027664  712300 000010    CONSZ TTY,10                       Y3   (    rL???    
027665  254000 027745    JRST 27745                         5@ "_E    +??/r    
027666  712340 000040    CONSO TTY,40                       Y3@  @    rN???    
027667  254000 033116    JRST 33116                         5@ #9.    +??6'    
027670  712040 000002    DATAI TTY,2                        Y0@  "    rB???    
027671  322100 027740    JUMPE 2,27740                      :1 "_@    4D?/p    
027672  620100 000200    TRZ 2,200                          R!  "     d???@    
027673  333000 034045    SKIPLE 34045                       ;8 #@E    6`?8?    
027674  254000 033116    JRST 33116                         5@ #9.    +??6'    
027675  302100 000033    CAIE 2,33                          81   ;    0D???    
027676  306100 000176    CAIN 2,176                         8Q  !^    1D???    
027677  201100 000175    MOVEI 2,175                        0)  !]     $??>    
027700  202200 027744    MOVEM 4,27744                      02 "_D     H?/r    
027701  200200 030047    MOVE 4,30047                       0" # G     ??0?    
027702  270200 030045    ADD 4,30045                        7" # E    .??0?    
027703  301200 000170    CAIL 4,170                         8*  !X    0(??<    
027704  661100 400000    TLO 2,400000                       V) @      l$???    
027705  200200 027744    MOVE 4,27744                       0" "_D     ??/r    
027706  321100 027720    JUMPL 2,27720                      :) "_0    4$?/h    
027707  136100 030043    IDPB 2,30043                       +Q # C    ?D?0?    
027710  465100 000177    ORCMI 2,177                        FI  !_    M$???    
027711  342100 027723    AOJE 2,27723                       <1 "_3    8D?/i    
027712  402000 030146    SETZM 30146                        @0 #!F    @@?03    
027713  200100 030043    MOVE 2,30043                       0! # C     ??0?    
027714  316100 036437    CAMN 2,36437                       9Q #T?    3D?=?    
027715  201100 030047    MOVEI 2,30047                      0) # G     $?0?    
027716  542100 030043    HRRM 2,30043                       L1 # C    XD?0?    
027717  354000 030047    AOSA 30047                         =@ # G    ;??0?    
027720  476000 030143    SETOM 30143                        GP #!C    O@?01    
027721  260040 027652    PUSHJ 1,27652                      6 @"^J    ,??/U    
027722  254000 033116    JRST 33116                         5@ #9.    +??6'    
027723  200100 034074    MOVE 2,34074                       0! #@\     ??8?    
027724  336000 030146    SKIPN 30146                        ;P #!F    7@?03    
027725  202100 030145    MOVEM 2,30145                      01 #!E     D?02    
027726  350100 030146    AOS 2,30146                        =! #!F    :??03    
027727  302100 000003    CAIE 2,3                           81   #    0D???    
027730  254000 027713    JRST 27713                         5@ "_+    +??/e    
027731  200100 034074    MOVE 2,34074                       0! #@\     ??8?    
027732  274100 030145    SUB 2,30145                        7A #!E    /??02    
027733  301100 000024    CAIL 2,24                          8)   4    0$???    
027734  254000 027712    JRST 27712                         5@ "_*    +??/e    
027735  563000 030146    HRROS 0,30146                      N8 #!F    \`?03    
027736  476000 030037    SETOM 30037                        GP # ?    O@?0?    
027737  254000 027713    JRST 27713                         5@ "_+    +??/e    
027740  350000 034045    AOS 34045                          =  #@E    :??8?    
027741  200100 034074    MOVE 2,34074                       0! #@\     ??8?    
027742  202100 030145    MOVEM 2,30145                      01 #!E     D?02    
027743  254000 033116    JRST 33116                         5@ #9.    +??6'    
027744  000000 000000                                                 ?????    
027745  201100 000012    MOVEI 2,12                         0)   *     $???    
027746  356000 030142    AOSN 30142                         =P #!B    ;@?01    
027747  254000 027767    JRST 27767                         5@ "_W    +??/{    
027750  201100 000007    MOVEI 2,7                          0)   '     $???    
027751  356000 030143    AOSN 30143                         =P #!C    ;@?01    
027752  254000 027767    JRST 27767                         5@ "_W    +??/{    
027753  201100 000040    MOVEI 2,40                         0)   @     $???    
027754  357000 030144    AOSG 30144                         =X #!D    ;`?02    
027755  254000 027767    JRST 27767                         5@ "_W    +??/{    
027756  200100 030042    MOVE 2,30042                       0! # B     ??0?    
027757  301100 000240    CAIL 2,240                         8)  "@    0$??P    
027760  254000 030010    JRST 30010                         5@ # (    +??0?    
027761  200100 030041    MOVE 2,30041                       0! # A     ??0?    
027762  316100 036440    CAMN 2,36440                       9Q #T@    3D?=?    
027763  201100 030101    MOVEI 2,30101                      0) #!!     $?0     
027764  542100 030041    HRRM 2,30041                       L1 # A    XD?0?    
027765  134100 030041    ILDB 2,30041                       +A # A    ???0?    
027766  350000 030042    AOS 30042                          =  # B    :??0?    
027767  306100 000010    CAIN 2,10                          8Q   (    1D???    
027770  254000 030030    JRST 30030                         5@ # 8    +??0?    
027771  303100 000006    CAILE 2,6                          89   &    0d???    
027772  301100 000016    CAIL 2,16                          8)   .    0$???    
027773  254000 030030    JRST 30030                         5@ # 8    +??0?    
027774  302100 000011    CAIE 2,11                          81   )    0D???    
027775  254000 030001    JRST 30001                         5@ # !    +??0?    
027776  211100 000003    MOVNI 2,3                          1)   #    "$???    
027777  202100 030144    MOVEM 2,30144                      01 #!D     D?02    
030000  254000 033116    JRST 33116                         5@ #9.    +??6'    
030001  306100 000175    CAIN 2,175                         8Q  !]    1D??>    
030002  201100 000044    MOVEI 2,44                         0)   D     $???    
030003  306100 000177    CAIN 2,177                         8Q  !_    1D???    
030004  254000 033116    JRST 33116                         5@ #9.    +??6'    
030005  331000 030037    SKIPL 30037                        ;( # ?    6 ?0?    
030006  712140 000002    DATAO TTY,2                        Y1@  "    rF???    
030007  254000 033116    JRST 33116                         5@ #9.    +??6'    
030010  337000 030047    SKIPG 30047                        ;X # G    7`?0?    
030011  254000 030026    JRST 30026                         5@ # 6    +??0?    
030012  200100 030046    MOVE 2,30046                       0! # F     ??0?    
030013  316100 036437    CAMN 2,36437                       9Q #T?    3D?=?    
030014  201100 030047    MOVEI 2,30047                      0) # G     $?0?    
030015  542100 030046    HRRM 2,30046                       L1 # F    XD?0?    
030016  201100 000012    MOVEI 2,12                         0)   *     $???    
030017  542100 027745    HRRM 2,27745                       L1 "_E    XD?/r    
030020  134100 030046    ILDB 2,30046                       +A # F    ???0?    
030021  370000 030047    SOS 30047                          ?  # G    >??0?    
030022  350000 030045    AOS 30045                          =  # E    :??0?    
030023  306100 000015    CAIN 2,15                          8Q   -    1D???    
030024  476000 030142    SETOM 30142                        GP #!B    O@?01    
030025  254000 027767    JRST 27767                         5@ "_W    +??/{    
030026  712200 000204    CONO TTY,204                       Y2  "$    rH??B    
030027  254000 033116    JRST 33116                         5@ #9.    +??6'    
030030  301100 000040    CAIL 2,40                          8)   @    0$???    
030031  254000 027774    JRST 27774                         5@ "_\    +??/~    
030032  271100 000100    ADDI 2,100                         7)  !     .$??     
030033  542100 027745    HRRM 2,27745                       L1 "_E    XD?/r    
030034  476000 030142    SETOM 30142                        GP #!B    O@?01    
030035  201100 000136    MOVEI 2,136                        0)  !>     $??/    
030036  254000 030001    JRST 30001                         5@ # !    +??0?    
030037  000000 000000                                                 ?????    
030040  010700 030101                                       !' #!!    ???0     
030041  010700 030101                                       !' #!!    ???0     
030042  000000 000240                                           "@    ????P    
030043  010700 030047                                       !' # G    ???0?    
030044  010700 030047                                       !' # G    ???0?    
030045  000000 000000                                                 ?????    
030046  010700 030047                                       !' # G    ???0?    
030147  603000 000020    TLNE 0,20                          P8   0    ``???    
030150  260040 033056    PUSHJ 1,33056                      6 @#8N    ,??6?    
030151  603000 000400    TLNE 0,400                         P8  $     ``???    
030152  260040 030172    PUSHJ 1,30172                      6 @#!Z    ,??0=    
030153  603000 040000    TLNE 0,40000                       P8 $      ``?@?    
030154  260040 033267    PUSHJ 1,33267                      6 @#:W    ,??6[    
030155  603000 001000    TLNE 0,1000                        P8  (     ``???    
030156  263040 000000    POPJ 1,                            68@       ,b???    
030157  435700 000200    IORI 16,200                        CO  "     G<??@    
030160  306700 000214    CAIN 16,214                        8W  ",    1\??F    
030161  254000 030177    JRST 30177                         5@ #!_    +??0?    
030162  261040 000016    PUSH 1,16                          6(@  .    ,"???    
030163  260040 033062    PUSHJ 1,33062                      6 @#8R    ,??6?    
030164  262040 000016    POP 1,16                           60@  .    ,B???    
030165  302700 000211    CAIE 16,211                        87  ")    0\??D    
030166  263040 000000    POPJ 1,                            68@       ,b???    
030167  201700 000377    MOVEI 16,377                       0/  #_     <???    
030170  260040 030153    PUSHJ 1,30153                      6 @#!K    ,??05    
030171  254000 030153    JRST 30153                         5@ #!K    +??05    
030172  250100 000016    EXCH 2,16                          5!   .    *????    
030173  260040 002366    PUSHJ 1,2366                       6 @ 3V    ,???{    
030174  030000 036441                                       #  #TA    ???=?    
030175  250100 000016    EXCH 2,16                          5!   .    *????    
030176  263040 000000    POPJ 1,                            68@       ,b???    
030177  261040 000004    PUSH 1,4                           6(@  $    ,"???    
030200  201200 000012    MOVEI 4,12                         0*   *     (???    
030201  260040 030624    PUSHJ 1,30624                      6 @#&4    ,??1J    
030202  201700 000214    MOVEI 16,214                       0/  ",     <??F    
030203  260040 033062    PUSHJ 1,33062                      6 @#8R    ,??6?    
030204  201700 000377    MOVEI 16,377                       0/  #_     <???    
030205  201200 000004    MOVEI 4,4                          0*   $     (???    
030206  260040 030625    PUSHJ 1,30625                      6 @#&5    ,??1J    
030207  201200 000030    MOVEI 4,30                         0*   8     (???    
030210  260040 030624    PUSHJ 1,30624                      6 @#&4    ,??1J    
030211  262040 000004    POP 1,4                            60@  $    ,B???    
030212  263040 000000    POPJ 1,                            68@       ,b???    
030213  201700 027634    MOVEI 16,27634                     0/ "^<     <?/N    
030214  542700 033660    HRRM 16,33660                      L7 #>P    X\?7X    
030215  201700 000015    MOVEI 16,15                        0/   -     <???    
030216  260060 033660    PUSHJ 1,@33660                     6 P#>P    ,??7X    
030217  201700 000012    MOVEI 16,12                        0/   *     <???    
030220  254020 033660    JRST @33660                        5@0#>P    +??7X    
030221  337000 034057    SKIPG 34057                        ;X #@O    7`?8?    
030222  031040 654543                                       #(@UEC    ?"?Y1    
030223  375000 034057    SOSGE 34057                        ?H #@O    ? ?8?    
030224  254000 030227    JRST 30227                         5@ #"7    +??0K    
030225  134700 034056    ILDB 16,34056                      +G #@N    ???8?    
030226  263040 027634    POPJ 1,27634                       68@"^<    ,b?/N    
030227  262040 000016    POP 1,16                           60@  .    ,B???    
030230  262040 036612    POP 1,36612                        60@#V*    ,B?=E    
030231  262040 036611    POP 1,36611                        60@#V)    ,B?=D    
030232  262040 034057    POP 1,34057                        60@#@O    ,B?8?    
030233  262040 034056    POP 1,34056                        60@#@N    ,B?8?    
030234  262040 034055    POP 1,34055                        60@#@M    ,B?8?    
030235  261040 000016    PUSH 1,16                          6(@  .    ,"???    
030236  254000 030223    JRST 30223                         5@ #"3    +??0I    
030237  375000 034057    SOSGE 34057                        ?H #@O    ? ?8?    
030240  031100 654543                                       #) UEC    ?$?Y1    
030241  134700 034056    ILDB 16,34056                      +G #@N    ???8?    
030242  263040 000000    POPJ 1,                            68@       ,b???    
030243  260040 030213    PUSHJ 1,30213                      6 @#"+    ,??0E    
030244  402000 034057    SETZM 34057                        @0 #@O    @@?8?    
030245  402000 034111    SETZM 34111                        @0 #A)    @@?8$    
030246  402000 035330    SETZM 35330                        @0 #K8    @@?:l    
030247  200440 036443    MOVE 11,36443                      0$@#TC     ??=?    
030250  251440 035415    BLT 11,35415                       5,@#L-    *2?;?    
030251  200140 036444    MOVE 3,36444                       0!@#TD     ??=?    
030252  200200 034072    MOVE 4,34072                       0" #@Z     ??8?    
030253  620000 000001    TRZ 0,1                            R    !    d????    
030254  303203 000000    CAILE 4,0(3)                       8:#       0h???    
030255  254000 030277    JRST 30277                         5@ #"_    +??0_    
030256  402000 034076    SETZM 34076                        @0 #@^    @@?8?    
030257  271200 000100    ADDI 4,100                         7*  !     .(??     
030260  200300 034052    MOVE 6,34052                       0# #@J     ??8?    
030261  231300 000005    IDIVI 6,5                          3+   %    &,???    
030262  200340 034053    MOVE 7,34053                       0#@#@K     ??8?    
030263  231340 000005    IDIVI 7,5                          3+@  %    &.???    
030264  276300 000007    SUBM 6,7                           7S   '    /L???    
030265  271300 036613    ADDI 6,36613                       7+ #V+    .,?=E    
030266  200706 000000    MOVE 16,0(6)                       0'&        ?0??    
030267  202706 000100    MOVEM 16,100(6)                    07& !      \0?     
030270  370000 000006    SOS 6                              ?    &    >????    
030271  365340 030266    SOJGE 7,30266                      >K@#"V    =.?0[    
030272  201300 000500    MOVEI 6,500                        0+  %      ,??     
030273  272300 034050    ADDM 6,34050                       73 #@H    .L?8?    
030274  272300 034051    ADDM 6,34051                       73 #@I    .L?8?    
030275  272300 034052    ADDM 6,34052                       73 #@J    .L?8?    
030276  272300 034053    ADDM 6,34053                       73 #@K    .L?8?    
030277  202200 034072    MOVEM 4,34072                      02 #@Z     H?8?    
030300  260040 027611    PUSHJ 1,27611                      6 @"^)    ,??/D    
030301  622000 004000    TRZE 0,4000                        R0  @     d@???    
030302  302700 000077    CAIE 16,77                         87   _    0\???    
030303  354000 034057    AOSA 34057                         =@ #@O    ;??8?    
030304  254000 030346    JRST 30346                         5@ ##F    +??0s    
030305  136700 000003    IDPB 16,3                          +W   #    ?\???    
030306  302700 000177    CAIE 16,177                        87  !_    0\???    
030307  254000 030323    JRST 30323                         5@ ##3    +??0i    
030310  133000 000003    IBP 3                              +8   #    ?`???    
030311  133000 000003    IBP 3                              +8   #    ?`???    
030312  133000 000003    IBP 3                              +8   #    ?`???    
030313  370340 000003    SOS 7,3                            ?#@  #    >????    
030314  316140 036445    CAMN 3,36445                       9Q@#TE    3F?=?    
030315  254000 030243    JRST 30243                         5@ #"C    +??0Q    
030316  134700 000007    ILDB 16,7                          +G   '    ?????    
030317  260040 027634    PUSHJ 1,27634                      6 @"^<    ,??/N    
030320  370000 034057    SOS 34057                          ?  #@O    >??8?    
030321  370000 034057    SOS 34057                          ?  #@O    >??8?    
030322  254000 030253    JRST 30253                         5@ #"K    +??0U    
030323  302700 000175    CAIE 16,175                        87  !]    0\??>    
030324  254000 030253    JRST 30253                         5@ #"K    +??0U    
030325  666000 000001    TRON 0,1                           VP   !    m@???    
030326  254000 030254    JRST 30254                         5@ #"L    +??0V    
030327  201700 000141    MOVEI 16,141                       0/  !A     <??0    
030330  350100 034057    AOS 2,34057                        =! #@O    :??8?    
030331  202100 034055    MOVEM 2,34055                      01 #@M     D?8?    
030332  271100 000003    ADDI 2,3                           7)   #    .$???    
030333  136700 000003    IDPB 16,3                          +W   #    ?\???    
030334  200140 036446    MOVE 3,36446                       0!@#TF     ??=?    
030335  136700 000003    IDPB 16,3                          +W   #    ?\???    
030336  241100 777771    ROT 2,777771                       4) __Y    ($??|    
030337  136100 000003    IDPB 2,3                           +Q   #    ?D???    
030340  241100 000007    ROT 2,7                            4)   '    ($???    
030341  136100 000003    IDPB 2,3                           +Q   #    ?D???    
030342  202140 034056    MOVEM 3,34056                      01@#@N     F?8?    
030343  260040 030213    PUSHJ 1,30213                      6 @#"+    ,??0E    
030344  713200 000000    CONO DIS,0                         Y:        rh???    
030345  254000 030361    JRST 30361                         5@ ##Q    +??0x    
030346  200140 034066    MOVE 3,34066                       0!@#@V     ??8?    
030347  201200 000012    MOVEI 4,12                         0*   *     (???    
030350  275140 000002    SUBI 3,2                           7I@  "    /&???    
030351  134700 000003    ILDB 16,3                          +G   #    ?????    
030352  317200 034065    CAMG 4,34065                       9Z #@U    3h?8?    
030353  260040 027634    PUSHJ 1,27634                      6 @"^<    ,??/N    
030354  312140 034066    CAME 3,34066                       91@#@V    2F?8?    
030355  364200 030351    SOJA 4,30351                       >B ##I    =??0t    
030356  264000 031421    JSR 31421                          6@ #,1    -??3?    
030357  331016 035070    SKIPL 35070(16)                    ;(.#HX    6 p:?    
030360  254000 030416    JRST 30416                         5@ #$.    +??1?    
030361  335000 030146    SKIPGE 30146                       ;H #!F    7 ?03    
030362  254000 027564    JRST 27564                         5@ "]T    +??/:    
030363  620000 002006    TRZ 0,2006                         R   0&    d????    
030364  402000 034060    SETZM 34060                        @0 #@P    @@?8?    
030365  205100 270200    MOVSI 2,270200                     0I 7"     !$?p@    
030366  502100 030400    HLLM 2,30400                       H1 #$     PD?1?    
030367  402000 034061    SETZM 34061                        @0 #@Q    @@?8?    
030370  402000 034062    SETZM 34062                        @0 #@R    @@?8?    
030371  201140 000000    MOVEI 3,0                          0)@        &???    
030372  260040 030223    PUSHJ 1,30223                      6 @#"3    ,??0I    
030373  620000 101000    TRZ 0,101000                       R  ((     d????    
030374  256016 035070    XCT 35070(16)                      5P.#HX    +@p:?    
030375  322140 030357    JUMPE 3,30357                      :1@##O    4F?0w    
030376  200200 034060    MOVE 4,34060                       0" #@P     ??8?    
030377  622000 000200    TRZE 0,200                         R0  "     d@??@    
030400  270200 034061    ADD 4,34061                        7" #@Q    .??8?    
030401  202200 034060    MOVEM 4,34060                      02 #@P     H?8?    
030402  200300 034063    MOVE 6,34063                       0# #@S     ??8?    
030403  620000 012440    TRZ 0,12440                        R  !4@    d????    
030404  325143 000000    JUMPGE 3,0(3)                      :IC       5&???    
030405  260043 000000    PUSHJ 1,0(3)                       6 C       ,????    
030406  254000 030361    JRST 30361                         5@ ##Q    +??0x    
030407  200100 034062    MOVE 2,34062                       0! #@R     ??8?    
030410  242100 000003    LSH 2,3                            41   #    (D???    
030411  271116 777720    ADDI 2,777720(16)                  7).__0    .$w?h    
030412  202100 034062    MOVEM 2,34062                      01 #@R     D?8?    
030413  200100 034061    MOVE 2,34061                       0! #@Q     ??8?    
030414  221100 000012    IMULI 2,12                         2)   *    $$???    
030415  271116 777720    ADDI 2,777720(16)                  7).__0    .$w?h    
030416  202100 034061    MOVEM 2,34061                      01 #@Q     D?8?    
030417  660000 000204    TRO 0,204                          V   "$    l???B    
030420  254000 030371    JRST 30371                         5@ ##Y    +??0|    
030421  202200 034063    MOVEM 4,34063                      02 #@S     H?8?    
030422  622000 000004    TRZE 0,4                           R0   $    d@???    
030423  662000 000002    TROE 0,2                           V0   "    l@???    
030424  031040 675641                                       #(@WNA    ?"?{P    
030425  254000 030364    JRST 30364                         5@ ##T    +??0z    
030426  205100 404200    MOVSI 2,404200                     0I @B     !$??@    
030427  254000 030366    JRST 30366                         5@ ##V    +??0{    
030430  205100 434200    MOVSI 2,434200                     0I CB     !$?8@    
030431  254000 030366    JRST 30366                         5@ ##V    +??0{    
030432  205100 274200    MOVSI 2,274200                     0I 7B     !$?x@    
030433  254000 030366    JRST 30366                         5@ ##V    +??0{    
030434  205100 220200    MOVSI 2,220200                     0I 2"     !$? @    
030435  254000 030366    JRST 30366                         5@ ##V    +??0{    
030436  205100 230200    MOVSI 2,230200                     0I 3"     !$?0@    
030437  254000 030366    JRST 30366                         5@ ##V    +??0{    
030440  402000 034063    SETZM 34063                        @0 #@S    @@?8?    
030441  660000 000002    TRO 0,2                            V    "    l????    
030442  200100 034052    MOVE 2,34052                       0! #@J     ??8?    
030443  274100 034050    SUB 2,34050                        7A #@H    /??8?    
030444  254000 030416    JRST 30416                         5@ #$.    +??1?    
030445  261040 034060    PUSH 1,34060                       6(@#@P    ,"?8?    
030446  510100 030400    HLLZ 2,30400                       I! #$     R??1?    
030447  622000 000010    TRZE 0,10                          R0   (    d@???    
030450  435100 000001    IORI 2,1                           CI   !    G$???    
030451  261040 000002    PUSH 1,2                           6(@  "    ,"???    
030452  350000 034054    AOS 34054                          =  #@L    :??8?    
030453  254000 030361    JRST 30361                         5@ ##Q    +??0x    
030454  375000 034054    SOSGE 34054                        ?H #@L    ? ?8?    
030455  031040 655543                                       #(@UMC    ?"?[1    
030456  202200 034061    MOVEM 4,34061                      02 #@Q     H?8?    
030457  262040 000016    POP 1,16                           60@  .    ,B???    
030460  502700 030400    HLLM 16,30400                      H7 #$     P\?1?    
030461  620000 000010    TRZ 0,10                           R    (    d????    
030462  602700 000001    TRNE 16,1                          P7   !    `\???    
030463  660000 000010    TRO 0,10                           V    (    l????    
030464  262040 034060    POP 1,34060                        60@#@P    ,B?8?    
030465  254000 030417    JRST 30417                         5@ #$/    +??1?    
030466  317200 034052    CAMG 4,34052                       9Z #@J    3h?8?    
030467  315200 034050    CAMGE 4,34050                      9J #@H    3(?8?    
030470  031040 565142                                       #(@NIB    ?"?j1    
030471  263040 031154    POPJ 1,31154                       68@#)L    ,b?26    
030472  317300 034050    CAMG 6,34050                       9[ #@H    3l?8?    
030473  200300 034050    MOVE 6,34050                       0# #@H     ??8?    
030474  311200 034052    CAML 4,34052                       9* #@J    2(?8?    
030475  200200 034052    MOVE 4,34052                       0" #@J     ??8?    
030476  313300 000004    CAMLE 6,4                          9;   $    2l???    
030477  031000 223421                                       #( 2<1    ? ?'?    
030500  263040 030213    POPJ 1,30213                       68@#"+    ,b?0E    
030501  200100 034062    MOVE 2,34062                       0! #@R     ??8?    
030502  602000 000200    TRNE 0,200                         P0  "     `@??@    
030503  254000 030416    JRST 30416                         5@ #$.    +??1?    
030504  200100 034051    MOVE 2,34051                       0! #@I     ??8?    
030505  254000 030443    JRST 30443                         5@ #$C    +??1?    
030506  602000 000004    TRNE 0,4                           P0   $    `@???    
030507  254000 030513    JRST 30513                         5@ #%+    +??1%    
030510  200640 034052    MOVE 15,34052                      0&@#@J     ??8?    
030511  260040 030524    PUSHJ 1,30524                      6 @#%4    ,??1*    
030512  254000 030361    JRST 30361                         5@ ##Q    +??0x    
030513  270200 034051    ADD 4,34051                        7" #@I    .??8?    
030514  370600 000004    SOS 14,4                           ?&   $    >????    
030515  260040 030466    PUSHJ 1,30466                      6 @#$V    ,??1?    
030516  260040 032444    PUSHJ 1,32444                      6 @#4D    ,??5?    
030517  200100 000016    MOVE 2,16                          0!   .     ????    
030520  402000 034060    SETZM 34060                        @0 #@P    @@?8?    
030521  254000 030416    JRST 30416                         5@ #$.    +??1?    
030522  200640 034050    MOVE 15,34050                      0&@#@H     ??8?    
030523  202640 034051    MOVEM 15,34051                     06@#@I     Z?8?    
030524  200400 034104    MOVE 10,34104                      0$ #A$     ??8"    
030525  274400 000015    SUB 10,15                          7D   -    /????    
030526  307400 000310    CAIG 10,310                        8\  #(    1p??d    
030527  254000 030562    JRST 30562                         5@ #%R    +??19    
030530  307400 001750    CAIG 10,1750                       8\  /H    1p??t    
030531  660000 100000    TRO 0,100000                       V  (      l????    
030532  607000 020200    TLNN 0,20200                       PX ""     a`? @    
030533  254000 030564    JRST 30564                         5@ #%T    +??1:    
030534  607000 000200    TLNN 0,200                         PX  "     a`??@    
030535  260040 033177    PUSHJ 1,33177                      6 @#9_    ,??6?    
030536  603000 000200    TLNE 0,200                         P8  "     ``??@    
030537  260040 030630    PUSHJ 1,30630                      6 @#&8    ,??1L    
030540  260040 032450    PUSHJ 1,32450                      6 @#4H    ,??5?    
030541  602000 000004    TRNE 0,4                           P0   $    `@???    
030542  363200 030563    SOJLE 4,30563                      >: #%S    <h?19    
030543  606000 100000    TRNN 0,100000                      PP (      a@???    
030544  254000 030550    JRST 30550                         5@ #%H    +??14    
030545  302700 000013    CAIE 16,13                         87   +    0\???    
030546  306700 000012    CAIN 16,12                         8W   *    1\???    
030547  254000 030562    JRST 30562                         5@ #%R    +??19    
030550  302700 000014    CAIE 16,14                         87   ,    0\???    
030551  344640 030524    AOJA 15,30524                      <F@#%4    9??1*    
030552  202640 034052    MOVEM 15,34052                     06@#@J     Z?8?    
030553  316640 034050    CAMN 15,34050                      9V@#@H    3Z?8?    
030554  603000 000200    TLNE 0,200                         P8  "     ``??@    
030555  263040 000000    POPJ 1,                            68@       ,b???    
030556  210640 033416    MOVN 15,33416                      1&@#<.    "??7?    
030557  306640 000010    CAIN 15,10                         8V@  (    1Z???    
030560  660000 001000    TRO 0,1000                         V   (     l????    
030561  263040 000000    POPJ 1,                            68@       ,b???    
030562  032000 656253                                       #0 URK    ?@?\U    
030563  344640 030552    AOJA 15,30552                      <F@#%J    9??15    
030564  607000 020000    TLNN 0,20000                       PX "      a`? ?    
030565  254000 030537    JRST 30537                         5@ #%?    +??1/    
030566  260040 033347    PUSHJ 1,33347                      6 @#;G    ,??6s    
030567  254000 030540    JRST 30540                         5@ #%@    +??10    
030570  260040 030601    PUSHJ 1,30601                      6 @#&!    ,??1@    
030571  213000 000004    MOVNS 4                            18   $    "`???    
030572  260040 030601    PUSHJ 1,30601                      6 @#&!    ,??1@    
030573  270200 034051    ADD 4,34051                        7" #@I    .??8?    
030574  260040 030466    PUSHJ 1,30466                      6 @#$V    ,??1?    
030575  202200 034051    MOVEM 4,34051                      02 #@I     H?8?    
030576  254000 030361    JRST 30361                         5@ ##Q    +??0x    
030577  270200 034050    ADD 4,34050                        7" #@H    .??8?    
030600  254000 030574    JRST 30574                         5@ #%\    +??1>    
030601  662000 000004    TROE 0,4                           V0   $    l@???    
030602  263040 000000    POPJ 1,                            68@       ,b???    
030603  135200 036447    LDB 4,36447                        +J #TG    ?(?=?    
030604  213000 000004    MOVNS 4                            18   $    "`???    
030605  344200 031143    AOJA 4,31143                       <B #)C    9??21    
030606  260040 032027    PUSHJ 1,32027                      6 @#07    ,??4?    
030607  260040 030472    PUSHJ 1,30472                      6 @#$Z    ,??1?    
030610  202300 034051    MOVEM 6,34051                      03 #@I     L?8?    
030611  274200 000006    SUB 4,6                            7B   &    /????    
030612  322200 030361    JUMPE 4,30361                      :2 ##Q    4H?0x    
030613  260040 030601    PUSHJ 1,30601                      6 @#&!    ,??1@    
030614  214300 000004    MOVM 6,4                           1C   $    #????    
030615  213000 000006    MOVNS 6                            18   &    "`???    
030616  270200 034051    ADD 4,34051                        7" #@I    .??8?    
030617  260040 030466    PUSHJ 1,30466                      6 @#$V    ,??1?    
030620  315200 034051    CAMGE 4,34051                      9J #@I    3(?8?    
030621  202200 034051    MOVEM 4,34051                      02 #@I     H?8?    
030622  260040 032465    PUSHJ 1,32465                      6 @#4U    ,??5?    
030623  254000 030361    JRST 30361                         5@ ##Q    +??0x    
030624  201700 000000    MOVEI 16,0                         0/         <???    
030625  260040 030162    PUSHJ 1,30162                      6 @#!R    ,??09    
030626  367200 030625    SOJG 4,30625                       >Z #&5    =h?1J    
030627  263040 000000    POPJ 1,                            68@       ,b???    
030630  260040 002330    PUSHJ 1,2330                       6 @ 38    ,???l    
030631  660000 001000    TRO 0,1000                         V   (     l????    
030632  200700 000002    MOVE 16,2                          0'   "     ????    
030633  263040 000000    POPJ 1,                            68@       ,b???    
030634  260040 030662    PUSHJ 1,30662                      6 @#&R    ,??1Y    
030635  602000 000004    TRNE 0,4                           P0   $    `@???    
030636  254000 030661    JRST 30661                         5@ #&Q    +??1X    
030637  201700 000175    MOVEI 16,175                       0/  !]     <??>    
030640  622000 000020    TRZE 0,20                          R0   0    d@???    
030641  260040 030223    PUSHJ 1,30223                      6 @#"3    ,??0I    
030642  202700 000002    MOVEM 16,2                         07   "     \???    
030643  200200 034056    MOVE 4,34056                       0" #@N     ??8?    
030644  201300 000000    MOVEI 6,0                          0+         ,???    
030645  260040 030221    PUSHJ 1,30221                      6 @#"1    ,??0H    
030646  312700 000002    CAME 16,2                          97   "    2\???    
030647  344300 030645    AOJA 6,30645                       <C #&E    9??1R    
030650  260040 032465    PUSHJ 1,32465                      6 @#4U    ,??5?    
030651  270200 034106    ADD 4,34106                        7" #A&    .??8#    
030652  200640 034051    MOVE 15,34051                      0&@#@I     ??8?    
030653  134700 000004    ILDB 16,4                          +G   $    ?????    
030654  316700 000002    CAMN 16,2                          9W   "    3\???    
030655  263040 000000    POPJ 1,                            68@       ,b???    
030656  260040 032450    PUSHJ 1,32450                      6 @#4H    ,??5?    
030657  350700 034051    AOS 16,34051                       =' #@I    :??8?    
030660  254000 030652    JRST 30652                         5@ #&J    +??1U    
030661  200700 034060    MOVE 16,34060                      0' #@P     ??8?    
030662  201300 000001    MOVEI 6,1                          0+   !     ,???    
030663  260040 032465    PUSHJ 1,32465                      6 @#4U    ,??5?    
030664  350640 034051    AOS 15,34051                       =&@#@I    :??8?    
030665  364640 032450    SOJA 15,32450                      >F@#4H    =??5?    
030666  261040 000006    PUSH 1,6                           6(@  &    ,"???    
030667  261040 000015    PUSH 1,15                          6(@  -    ,"???    
030670  261040 000012    PUSH 1,12                          6(@  *    ,"???    
030671  261040 000013    PUSH 1,13                          6(@  +    ,"???    
030672  260040 030662    PUSHJ 1,30662                      6 @#&R    ,??1Y    
030673  262040 000013    POP 1,13                           60@  +    ,B???    
030674  262040 000012    POP 1,12                           60@  *    ,B???    
030675  262040 000015    POP 1,15                           60@  -    ,B???    
030676  262040 000006    POP 1,6                            60@  &    ,B???    
030677  263040 000000    POPJ 1,                            68@       ,b???    
030700  664000 002000    TROA 0,2000                        V@  0     m????    
030701  660000 000040    TRO 0,40                           V    @    l????    
030702  476000 036605    SETOM 36605                        GP #V%    O@?=B    
030703  620000 001000    TRZ 0,1000                         R   (     d????    
030704  200240 000004    MOVE 5,4                           0"@  $     ????    
030705  402000 034061    SETZM 34061                        @0 #@Q    @@?8?    
030706  402000 034060    SETZM 34060                        @0 #@P    @@?8?    
030707  201700 000175    MOVEI 16,175                       0/  !]     <??>    
030710  622000 000020    TRZE 0,20                          R0   0    d@???    
030711  260040 030223    PUSHJ 1,30223                      6 @#"3    ,??0I    
030712  202700 036606    MOVEM 16,36606                     07 #V&     \?=C    
030713  201400 035516    MOVEI 10,35516                     0, #M.     0?;'    
030714  553500 000010    HRRZS 12,10                        M=   (    Zt???    
030715  260040 030223    PUSHJ 1,30223                      6 @#"3    ,??0I    
030716  316700 036606    CAMN 16,36606                      9W #V&    3\?=C    
030717  254000 030737    JRST 30737                         5@ #'?    +??1o    
030720  306700 000017    CAIN 16,17                         8W   /    1\???    
030721  254000 030740    JRST 30740                         5@ #'@    +??1p    
030722  306700 000030    CAIN 16,30                         8W   8    1\???    
030723  254000 031051    JRST 31051                         5@ #(I    +??2?    
030724  306700 000016    CAIN 16,16                         8W   .    1\???    
030725  254000 031061    JRST 31061                         5@ #(Q    +??2?    
030726  306700 000002    CAIN 16,2                          8W   "    1\???    
030727  254000 031050    JRST 31050                         5@ #(H    +??2?    
030730  306700 000021    CAIN 16,21                         8W   1    1\???    
030731  260040 030223    PUSHJ 1,30223                      6 @#"3    ,??0I    
030732  505700 306700    HRLI 16,306700                     HO 8W     Q<??`    
030733  622000 010000    TRZE 0,10000                       R0 !      d@???    
030734  641700 004000    TLC 16,4000                        T/  @     h<???    
030735  202710 000000    MOVEM 16,0(10)                     07(        \@??    
030736  344400 030715    AOJA 10,30715                      <D #'-    9??1f    
030737  476000 036606    SETOM 36606                        GP #V&    O@?=C    
030740  504400 000012    HRL 10,12                          HD   *    Q????    
030741  350100 036605    AOS 2,36605                        =! #V%    :??=B    
030742  301100 000040    CAIL 2,40                          8)   @    0$???    
030743  031000 636454                                       #( STL    ? ?=?    
030744  202402 035270    MOVEM 10,35270(2)                  04"#JX     P?:\    
030745  331000 036606    SKIPL 36606                        ;( #V&    6 ?=C    
030746  254000 030714    JRST 30714                         5@ #',    +??1f    
030747  261040 034051    PUSH 1,34051                       6(@#@I    ,"?8?    
030750  402000 036607    SETZM 36607                        @0 #V'    @@?=C    
030751  476000 036610    SETOM 36610                        GP #V(    O@?=D    
030752  200100 036607    MOVE 2,36607                       0! #V'     ??=C    
030753  200402 035270    MOVE 10,35270(2)                   0$"#JX     ??:\    
030754  200601 000000    MOVE 14,0(1)                       0&!        ????    
030755  202600 034051    MOVEM 14,34051                     06 #@I     X?8?    
030756  602000 000004    TRNE 0,4                           P0   $    `@???    
030757  323240 030774    JUMPLE 5,30774                     ::@#'\    4j?1~    
030760  311600 034052    CAML 14,34052                      9. #@J    28?8?    
030761  254000 031000    JRST 31000                         5@ #(     +??2?    
030762  554340 000010    HLRZ 7,10                          MC@  (    [????    
030763  306350 000000    CAIN 7,0(10)                       8SH       1N@??    
030764  254000 030772    JRST 30772                         5@ #'Z    +??1}    
030765  260040 032454    PUSHJ 1,32454                      6 @#4L    ,??5?    
030766  256007 000000    XCT 0(7)                           5P'       +@8??    
030767  344340 030763    AOJA 7,30763                       <C@#'S    9??1y    
030770  350600 034051    AOS 14,34051                       =& #@I    :??8?    
030771  254000 030760    JRST 30760                         5@ #'P    +??1x    
030772  313600 034052    CAMLE 14,34052                     9> #@J    2x?8?    
030773  254000 031000    JRST 31000                         5@ #(     +??2?    
030774  476000 034046    SETOM 34046                        GP #@F    O@?8?    
030775  331000 036610    SKIPL 36610                        ;( #V(    6 ?=D    
030776  315600 036610    CAMGE 14,36610                     9N #V(    38?=D    
030777  254000 031014    JRST 31014                         5@ #(,    +??2?    
031000  350100 036607    AOS 2,36607                        =! #V'    :??=C    
031001  317100 036605    CAMG 2,36605                       9Y #V%    3d?=B    
031002  254000 030752    JRST 30752                         5@ #'J    +??1u    
031003  335600 036610    SKIPGE 14,36610                    ;N #V(    78?=D    
031004  254000 031020    JRST 31020                         5@ #(0    +??2?    
031005  202601 000000    MOVEM 14,0(1)                      06!        X???    
031006  367240 030750    SOJG 5,30750                       >Z@#'H    =j?1t    
031007  262040 034051    POP 1,34051                        60@#@I    ,B?8?    
031010  626000 000100    TRZN 0,100                         RP  !     e@??     
031011  254000 030361    JRST 30361                         5@ ##Q    +??0x    
031012  460100 034061    SETCM 2,34061                      F! #@Q    L??8?    
031013  254000 030416    JRST 30416                         5@ #$.    +??1?    
031014  202600 036610    MOVEM 14,36610                     06 #V(     X?=D    
031015  200100 036607    MOVE 2,36607                       0! #V'     ??=C    
031016  202100 034061    MOVEM 2,34061                      01 #@Q     D?8?    
031017  254000 031000    JRST 31000                         5@ #(     +??2?    
031020  200600 034050    MOVE 14,34050                      0& #@H     ??8?    
031021  202600 034051    MOVEM 14,34051                     06 #@I     X?8?    
031022  402000 034046    SETZM 34046                        @0 #@F    @@?8?    
031023  274040 036450    SUB 1,36450                        7@@#TH    /??=?    
031024  602000 002040    TRNE 0,2040                        P0  0@    `@???    
031025  254000 031033    JRST 31033                         5@ #(;    +??2?    
031026  626000 000100    TRZN 0,100                         RP  !     e@??     
031027  254000 031045    JRST 31045                         5@ #(E    +??2?    
031030  620000 002040    TRZ 0,2040                         R   0@    d????    
031031  201100 000000    MOVEI 2,0                          0)         $???    
031032  254000 030416    JRST 30416                         5@ #$.    +??1?    
031033  602000 001000    TRNE 0,1000                        P0  (     `@???    
031034  254000 031026    JRST 31026                         5@ #(6    +??2?    
031035  261040 000005    PUSH 1,5                           6(@  %    ,"???    
031036  201200 000001    MOVEI 4,1                          0*   !     (???    
031037  602000 000040    TRNE 0,40                          P0   @    `@???    
031040  260040 031123    PUSHJ 1,31123                      6 @#)3    ,??2)    
031041  602000 002000    TRNE 0,2000                        P0  0     `@???    
031042  260040 030522    PUSHJ 1,30522                      6 @#%2    ,??1)    
031043  262040 000005    POP 1,5                            60@  %    ,B???    
031044  254000 030747    JRST 30747                         5@ #'G    +??1s    
031045  602000 000010    TRNE 0,10                          P0   (    `@???    
031046  254000 031030    JRST 31030                         5@ #(8    +??2?    
031047  031000 634654                                       #( SFL    ? ?9V    
031050  334700 036451    SKIPA 16,36451                     ;G #TI    7??=?    
031051  205700 300000    MOVSI 16,300000                    0O 8      !<???    
031052  254000 030733    JRST 30733                         5@ #';    +??1m    
031053  254000 031246    JRST 31246                         5@ #*F    +??2S    
031054  200100 036452    MOVE 2,36452                       0! #TJ     ??=?    
031055  202100 031053    MOVEM 2,31053                      01 #(K     D?2?    
031056  260040 031246    PUSHJ 1,31246                      6 @#*F    ,??2S    
031057  254000 030770    JRST 30770                         5@ #'X    +??1|    
031060  254000 030767    JRST 30767                         5@ #'W    +??1{    
031061  660000 010000    TRO 0,10000                        V  !      l????    
031062  254000 030715    JRST 30715                         5@ #'-    +??1f    
031063  201340 027634    MOVEI 7,27634                      0+@"^<     .?/N    
031064  260040 032027    PUSHJ 1,32027                      6 @#07    ,??4?    
031065  260040 030472    PUSHJ 1,30472                      6 @#$Z    ,??1?    
031066  200600 000006    MOVE 14,6                          0&   &     ????    
031067  311600 000004    CAML 14,4                          9.   $    28???    
031070  254000 031076    JRST 31076                         5@ #(^    +??2?    
031071  260040 032454    PUSHJ 1,32454                      6 @#4L    ,??5?    
031072  260047 000000    PUSHJ 1,0(7)                       6 G       ,?8??    
031073  335000 034045    SKIPGE 34045                       ;H #@E    7 ?8?    
031074  254000 031103    JRST 31103                         5@ #)#    +??2!    
031075  254000 031067    JRST 31067                         5@ #(W    +??2?    
031076  201100 030147    MOVEI 2,30147                      0) #!G     $?03    
031077  201700 000014    MOVEI 16,14                        0/   ,     <???    
031100  302107 000000    CAIE 2,0(7)                        81'       0D8??    
031101  263040 000000    POPJ 1,                            68@       ,b???    
031102  254000 030147    JRST 30147                         5@ #!G    +??03    
031103  202600 034051    MOVEM 14,34051                     06 #@I     X?8?    
031104  254000 027564    JRST 27564                         5@ "]T    +??/:    
031105  606000 000004    TRNN 0,4                           PP   $    a@???    
031106  031100 675641                                       #) WNA    ?$?{P    
031107  260040 031113    PUSHJ 1,31113                      6 @#)+    ,??2%    
031110  202216 035536    MOVEM 4,35536(16)                  02.#M>     Hp;/    
031111  254000 030361    JRST 30361                         5@ ##Q    +??0x    
031112  261040 031122    PUSH 1,31122                       6(@#)2    ,"?2)    
031113  260040 030223    PUSHJ 1,30223                      6 @#"3    ,??0I    
031114  301700 000060    CAIL 16,60                         8/   P    0<???    
031115  303700 000132    CAILE 16,132                       8?  !:    0|??-    
031116  031000 516156                                       #( IQN    ? ??7    
031117  301700 000072    CAIL 16,72                         8/   Z    0<???    
031120  275700 000007    SUBI 16,7                          7O   '    /<???    
031121  200116 035536    MOVE 2,35536(16)                   0!.#M>     ?p;/    
031122  263040 030416    POPJ 1,30416                       68@#$.    ,b?1?    
031123  201340 031102    MOVEI 7,31102                      0+@#)"     .?2!    
031124  602000 000002    TRNE 0,2                           P0   "    `@???    
031125  254000 031064    JRST 31064                         5@ #(T    +??2?    
031126  200240 000004    MOVE 5,4                           0"@  $     ????    
031127  200200 034056    MOVE 4,34056                       0" #@N     ??8?    
031130  134440 000004    ILDB 11,4                          +D@  $    ?????    
031131  321240 031143    JUMPL 5,31143                      :*@#)C    4*?21    
031132  260040 031144    PUSHJ 1,31144                      6 @#)D    ,??22    
031133  620000 000004    TRZ 0,4                            R    $    d????    
031134  332000 034057    SKIPE 34057                        ;0 #@O    6@?8?    
031135  302440 000127    CAIE 11,127                        84@ !7    0R??+    
031136  260040 030522    PUSHJ 1,30522                      6 @#%2    ,??1)    
031137  200300 034052    MOVE 6,34052                       0# #@J     ??8?    
031140  316300 034050    CAMN 6,34050                       9S #@H    3L?8?    
031141  606000 001000    TRNN 0,1000                        PP  (     a@???    
031142  367240 031132    SOJG 5,31132                       >Z@#):    =j?2-    
031143  263040 031373    POPJ 1,31373                       68@#+[    ,b?2}    
031144  335000 030146    SKIPGE 30146                       ;H #!F    7 ?03    
031145  254000 027564    JRST 27564                         5@ "]T    +??/:    
031146  200300 034050    MOVE 6,34050                       0# #@H     ??8?    
031147  200200 034052    MOVE 4,34052                       0" #@J     ??8?    
031150  201340 030147    MOVEI 7,30147                      0+@#!G     .?03    
031151  254000 031065    JRST 31065                         5@ #(U    +??2?    
031152  213000 000004    MOVNS 4                            18   $    "`???    
031153  661000 000001    TLO 0,1                            V(   !    l ???    
031154  364500 031157    SOJA 12,31157                      >E #)O    =??27    
031155  634500 000012    TDZA 12,12                         SE   *    g????    
031156  201500 000002    MOVEI 12,2                         0-   "     4???    
031157  321200 031152    JUMPL 4,31152                      :* #)J    4(?25    
031160  231200 000012    IDIVI 4,12                         3*   *    &(???    
031161  506241 000000    HRLM 5,0(1)                        HRA       QJ???    
031162  332000 000004    SKIPE 4                            ;0   $    6@???    
031163  260040 031154    PUSHJ 1,31154                      6 @#)L    ,??26    
031164  623000 000001    TLZE 0,1                           R8   !    d`???    
031165  261040 036453    PUSH 1,36453                       6(@#TK    ,"?=?    
031166  323500 031172    JUMPLE 12,31172                    := #)Z    4t?2=    
031167  201700 000040    MOVEI 16,40                        0/   @     <???    
031170  260060 033660    PUSHJ 1,@33660                     6 P#>P    ,??7X    
031171  367500 031170    SOJG 12,31170                      >] #)X    =t?2<    
031172  554701 000000    HLRZ 16,0(1)                       MG!       [????    
031173  271700 000060    ADDI 16,60                         7/   P    .<???    
031174  254020 033660    JRST @33660                        5@0#>P    +??7X    
031175  606000 000004    TRNN 0,4                           PP   $    a@???    
031176  031140 675641                                       #)@WNA    ?&?{P    
031177  261040 030500    PUSH 1,30500                       6(@#%     ,"?1     
031200  201100 027634    MOVEI 2,27634                      0) "^<     $?/N    
031201  542100 033660    HRRM 2,33660                       L1 #>P    XD?7X    
031202  254000 031155    JRST 31155                         5@ #)M    +??26    
031203  405200 000003    ANDI 4,3                           @J   #    A(???    
031204  241200 000004    ROT 4,4                            4*   $    ((???    
031205  202200 031363    MOVEM 4,31363                      02 #+S     H?2y    
031206  254000 030361    JRST 30361                         5@ ##Q    +??0x    
031207  606000 000004    TRNN 0,4                           PP   $    a@???    
031210  031200 675641                                       #* WNA    ?(?{P    
031211  260040 030223    PUSHJ 1,30223                      6 @#"3    ,??0I    
031212  205100 000000    MOVSI 2,0                          0I        !$???    
031213  306700 000107    CAIN 16,107                        8W  !'    1\??#    
031214  205100 327200    MOVSI 2,327200                     0I :Z     !$?.@    
031215  306700 000114    CAIN 16,114                        8W  !,    1\??&    
031216  205100 321200    MOVSI 2,321200                     0I :*     !$?"@    
031217  306700 000116    CAIN 16,116                        8W  !.    1\??'    
031220  205100 326200    MOVSI 2,326200                     0I :R     !$?,@    
031221  306700 000105    CAIN 16,105                        8W  !%    1\??"    
031222  205100 322200    MOVSI 2,322200                     0I :2     !$?$@    
031223  306700 000103    CAIN 16,103                        8W  !#    1\??!    
031224  254000 031243    JRST 31243                         5@ #*C    +??2Q    
031225  322100 031422    JUMPE 2,31422                      :1 #,2    4D?3?    
031226  541100 030361    HRRI 2,30361                       L) ##Q    X$?0x    
031227  256000 000002    XCT 2                              5P   "    +@???    
031230  201100 000000    MOVEI 2,0                          0)         $???    
031231  260040 030237    PUSHJ 1,30237                      6 @#"?    ,??0O    
031232  306700 000042    CAIN 16,42                         8W   B    1\???    
031233  344100 031231    AOJA 2,31231                       <A #*9    9??2L    
031234  306700 000047    CAIN 16,47                         8W   G    1\???    
031235  361100 030361    SOJL 2,30361                       >) ##Q    <$?0x    
031236  254000 031231    JRST 31231                         5@ #*9    +??2L    
031237  260040 030221    PUSHJ 1,30221                      6 @#"1    ,??0H    
031240  302700 000041    CAIE 16,41                         87   A    0\???    
031241  254000 031237    JRST 31237                         5@ #*?    +??2O    
031242  254000 030361    JRST 30361                         5@ ##Q    +??0x    
031243  260040 031247    PUSHJ 1,31247                      6 @#*G    ,??2S    
031244  254000 030361    JRST 30361                         5@ ##Q    +??0x    
031245  254000 031230    JRST 31230                         5@ #*8    +??2L    
031246  200200 000016    MOVE 4,16                          0"   .     ????    
031247  302200 000044    CAIE 4,44                          82   D    0H???    
031250  306200 000045    CAIN 4,45                          8R   E    1H???    
031251  263040 000000    POPJ 1,                            68@       ,b???    
031252  306200 000056    CAIN 4,56                          8R   N    1H???    
031253  263040 000000    POPJ 1,                            68@       ,b???    
031254  305200 000060    CAIGE 4,60                         8J   P    1(???    
031255  254000 033432    JRST 33432                         5@ #<:    +??7?    
031256  307200 000071    CAIG 4,71                          8Z   Y    1h???    
031257  263040 000000    POPJ 1,                            68@       ,b???    
031260  305200 000101    CAIGE 4,101                        8J  !!    1(??     
031261  254000 033432    JRST 33432                         5@ #<:    +??7?    
031262  307200 000132    CAIG 4,132                         8Z  !:    1h??-    
031263  263040 000000    POPJ 1,                            68@       ,b???    
031264  254000 033432    JRST 33432                         5@ #<:    +??7?    
031265  200100 034056    MOVE 2,34056                       0! #@N     ??8?    
031266  200140 000002    MOVE 3,2                           0!@  "     ????    
031267  231140 000017    IDIVI 3,17                         3)@  /    &&???    
031270  316104 035330    CAMN 2,35330(4)                    9Q$#K8    3D :l    
031271  254000 031356    JRST 31356                         5@ #+N    +??2w    
031272  336004 035330    SKIPN 35330(4)                     ;P$#K8    7@ :l    
031273  254000 031304    JRST 31304                         5@ #+$    +??2b    
031274  316104 035331    CAMN 2,35331(4)                    9Q$#K9    3D :l    
031275  344200 031356    AOJA 4,31356                       <B #+N    9??2w    
031276  336004 035331    SKIPN 35331(4)                     ;P$#K9    7@ :l    
031277  344200 031304    AOJA 4,31304                       <B #+$    9??2b    
031300  316104 035332    CAMN 2,35332(4)                    9Q$#K:    3D :m    
031301  344200 031275    AOJA 4,31275                       <B #*]    9??2^    
031302  336004 035332    SKIPN 35332(4)                     ;P$#K:    7@ :m    
031303  271200 000002    ADDI 4,2                           7*   "    .(???    
031304  261040 034056    PUSH 1,34056                       6(@#@N    ,"?8?    
031305  261040 000004    PUSH 1,4                           6(@  $    ,"???    
031306  201340 035271    MOVEI 7,35271                      0+@#JY     .?:\    
031307  201100 000041    MOVEI 2,41                         0)   A     $???    
031310  202107 777777    MOVEM 2,777777(7)                  01'___     D???    
031311  260040 030221    PUSHJ 1,30221                      6 @#"1    ,??0H    
031312  202707 000000    MOVEM 16,0(7)                      07'        \8??    
031313  302700 000175    CAIE 16,175                        87  !]    0\??>    
031314  344340 031311    AOJA 7,31311                       <C@#+)    9??2d    
031315  202107 000000    MOVEM 2,0(7)                       01'        D8??    
031316  200200 034057    MOVE 4,34057                       0" #@O     ??8?    
031317  274200 034055    SUB 4,34055                        7B #@M    /??8?    
031320  231200 000005    IDIVI 4,5                          3*   %    &(???    
031321  270200 034056    ADD 4,34056                        7" #@N    .??8?    
031322  322240 031332    JUMPE 5,31332                      :2@#+:    4J?2m    
031323  370000 000004    SOS 4                              ?    $    >????    
031324  217000 000005    MOVMS 5                            1X   %    #`???    
031325  254005 031325    JRST 31325(5)                      5@%#+5    +?(2j    
031326  133000 000004    IBP 4                              +8   $    ?`???    
031327  133000 000004    IBP 4                              +8   $    ?`???    
031330  133000 000004    IBP 4                              +8   $    ?`???    
031331  133000 000004    IBP 4                              +8   $    ?`???    
031332  200140 034055    MOVE 3,34055                       0!@#@M     ??8?    
031333  202200 034056    MOVEM 4,34056                      02 #@N     H?8?    
031334  202140 034057    MOVEM 3,34057                      01@#@O     F?8?    
031335  201240 035270    MOVEI 5,35270                      0*@#JX     *?:\    
031336  306247 000001    CAIN 5,1(7)                        8RG  !    1J8??    
031337  254000 031345    JRST 31345                         5@ #+E    +??2r    
031340  260040 030237    PUSHJ 1,30237                      6 @#"?    ,??0O    
031341  316705 000000    CAMN 16,0(5)                       9W%       3\(??    
031342  344240 031336    AOJA 5,31336                       <B@#+>    9??2o    
031343  133000 000004    IBP 4                              +8   $    ?`???    
031344  364140 031333    SOJA 3,31333                       >A@#+;    =??2m    
031345  262040 000002    POP 1,2                            60@  "    ,B???    
031346  262042 035330    POP 1,35330(2)                     60B#K8    ,B?:l    
031347  202142 035374    MOVEM 3,35374(2)                   01B#K\     F?:~    
031350  202202 035352    MOVEM 4,35352(2)                   02"#KJ     H?:u    
031351  254000 030361    JRST 30361                         5@ ##Q    +??0x    
031352  260040 031113    PUSHJ 1,31113                      6 @#)+    ,??2%    
031353  354116 035536    AOSA 2,35536(16)                   =A.#M>    ;?p;/    
031354  700040 000002    DATAI APR,2                        X @  "    p????    
031355  254000 030416    JRST 30416                         5@ #$.    +??1?    
031356  200104 035352    MOVE 2,35352(4)                    0!$#KJ     ? :u    
031357  202100 034056    MOVEM 2,34056                      01 #@N     D?8?    
031360  200104 035374    MOVE 2,35374(4)                    0!$#K\     ? :~    
031361  202100 034057    MOVEM 2,34057                      01 #@O     D?8?    
031362  254000 030361    JRST 30361                         5@ ##Q    +??0x    
031363  000000 000020                                            0    ?????    
031364  660000 000400    TRO 0,400                          V   $     l????    
031365  260040 032251    PUSHJ 1,32251                      6 @#2I    ,??4T    
031366  261040 031143    PUSH 1,31143                       6(@#)C    ,"?21    
031367  201340 032276    MOVEI 7,32276                      0+@#2^     .?4_    
031370  602000 000400    TRNE 0,400                         P0  $     `@???    
031371  254000 031064    JRST 31064                         5@ #(T    +??2?    
031372  254000 031065    JRST 31065                         5@ #(U    +??2?    
031373  260040 032423    PUSHJ 1,32423                      6 @#43    ,??5?    
031374  200440 034056    MOVE 11,34056                      0$@#@N     ??8?    
031375  134200 000011    ILDB 4,11                          +B   )    ?????    
031376  606000 000400    TRNN 0,400                         PP  $     a@???    
031377  254000 027606    JRST 27606                         5@ "^&    +??/C    
031400  332000 034057    SKIPE 34057                        ;0 #@O    6@?8?    
031401  302200 000127    CAIE 4,127                         82  !7    0H??+    
031402  254000 030361    JRST 30361                         5@ ##Q    +??0x    
031403  260040 027611    PUSHJ 1,27611                      6 @"^)    ,??/D    
031404  200100 000016    MOVE 2,16                          0!   .     ????    
031405  713200 000000    CONO DIS,0                         Y:        rh???    
031406  260040 030223    PUSHJ 1,30223                      6 @#"3    ,??0I    
031407  254000 030520    JRST 30520                         5@ #%0    +??1(    
031410  713200 000000    CONO DIS,0                         Y:        rh???    
031411  200200 031420    MOVE 4,31420                       0" #,0     ??3?    
031412  260040 032033    PUSHJ 1,32033                      6 @#0;    ,??4?    
031413  261040 000004    PUSH 1,4                           6(@  $    ,"???    
031414  210200 031420    MOVN 4,31420                       1" #,0    "??3?    
031415  260040 032033    PUSHJ 1,32033                      6 @#0;    ,??4?    
031416  262040 000004    POP 1,4                            60@  $    ,B???    
031417  254000 031365    JRST 31365                         5@ #+U    +??2z    
031420  000000 000024                                            4    ?????    
031421  000000 000000                                                 ?????    
031422  260040 001264    PUSHJ 1,1264                       6 @ *T    ,???Z    
031423  201700 000277    MOVEI 16,277                       0/  "_     <??_    
031424  260040 027634    PUSHJ 1,27634                      6 @"^<    ,??/N    
031425  260040 030213    PUSHJ 1,30213                      6 @#"+    ,??0E    
031426  660000 004000    TRO 0,4000                         V   @     l????    
031427  200100 034055    MOVE 2,34055                       0! #@M     ??8?    
031430  274100 034057    SUB 2,34057                        7A #@O    /??8?    
031431  202100 034065    MOVEM 2,34065                      01 #@U     D?8?    
031432  200100 034056    MOVE 2,34056                       0! #@N     ??8?    
031433  202100 034066    MOVEM 2,34066                      01 #@V     D?8?    
031434  254000 027576    JRST 27576                         5@ "]^    +??/?    
031435  260040 030223    PUSHJ 1,30223                      6 @#"3    ,??0I    
031436  200100 000016    MOVE 2,16                          0!   .     ????    
031437  254000 030416    JRST 30416                         5@ #$.    +??1?    
031440  205100 254000    MOVSI 2,254000                     0I 5@     !$?X?    
031441  642000 020000    TRCE 0,20000                       T0 "      h@? ?    
031442  205100 263040    MOVSI 2,263040                     0I 68@    !$?f?    
031443  502100 030226    HLLM 2,30226                       H1 #"6    PD?0K    
031444  254000 030361    JRST 30361                         5@ ##Q    +??0x    
031445  622000 000004    TRZE 0,4                           R0   $    d@???    
031446  254000 031506    JRST 31506                         5@ #-&    +??3#    
031447  200600 034051    MOVE 14,34051                      0& #@I     ??8?    
031450  260040 032454    PUSHJ 1,32454                      6 @#4L    ,??5?    
031451  302700 000055    CAIE 16,55                         87   M    0\???    
031452  254000 031456    JRST 31456                         5@ #,N    +??3?    
031453  660000 000004    TRO 0,4                            V    $    l????    
031454  254000 031460    JRST 31460                         5@ #,P    +??3?    
031455  260040 032454    PUSHJ 1,32454                      6 @#4L    ,??5?    
031456  313600 034052    CAMLE 14,34052                     9> #@J    2x?8?    
031457  254000 031501    JRST 31501                         5@ #-!    +??3     
031460  306700 000056    CAIN 16,56                         8W   N    1\???    
031461  254000 031476    JRST 31476                         5@ #,^    +??3?    
031462  307700 000071    CAIG 16,71                         8_   Y    1|???    
031463  305700 000060    CAIGE 16,60                        8O   P    1<???    
031464  364600 031502    SOJA 14,31502                      >F #-"    =??3!    
031465  200100 034061    MOVE 2,34061                       0! #@Q     ??8?    
031466  221100 000012    IMULI 2,12                         2)   *    $$???    
031467  271116 777720    ADDI 2,777720(16)                  7).__0    .$w?h    
031470  202100 034061    MOVEM 2,34061                      01 #@Q     D?8?    
031471  200100 034062    MOVE 2,34062                       0! #@R     ??8?    
031472  221100 000010    IMULI 2,10                         2)   (    $$???    
031473  271116 777720    ADDI 2,777720(16)                  7).__0    .$w?h    
031474  202100 034062    MOVEM 2,34062                      01 #@R     D?8?    
031475  254000 031455    JRST 31455                         5@ #,M    +??3?    
031476  200100 034062    MOVE 2,34062                       0! #@R     ??8?    
031477  202100 034061    MOVEM 2,34061                      01 #@Q     D?8?    
031500  254000 031502    JRST 31502                         5@ #-"    +??3!    
031501  200600 034052    MOVE 14,34052                      0& #@J     ??8?    
031502  622000 000004    TRZE 0,4                           R0   $    d@???    
031503  213000 034061    MOVNS 34061                        18 #@Q    "`?8?    
031504  202600 034051    MOVEM 14,34051                     06 #@I     X?8?    
031505  254000 030417    JRST 30417                         5@ #$/    +??1?    
031506  201500 000040    MOVEI 12,40                        0-   @     4???    
031507  542500 031167    HRRM 12,31167                      L5 #)W    XT?2;    
031510  200500 000006    MOVE 12,6                          0%   &     ????    
031511  622000 000002    TRZE 0,2                           R0   "    d@???    
031512  334400 030471    SKIPA 10,30471                     ;D #$Y    7??1?    
031513  201400 031155    MOVEI 10,31155                     0, #)M     0?26    
031514  200440 036454    MOVE 11,36454                      0$@#TL     ??=?    
031515  201300 000000    MOVEI 6,0                          0+         ,???    
031516  201700 031527    MOVEI 16,31527                     0/ #-7     <?3+    
031517  542700 033660    HRRM 16,33660                      L7 #>P    X\?7X    
031520  260050 000000    PUSHJ 1,0(10)                      6 H       ,?@??    
031521  201100 000141    MOVEI 2,141                        0)  !A     $??0    
031522  136100 000011    IDPB 2,11                          +Q   )    ?D???    
031523  200200 036454    MOVE 4,36454                       0" #TL     ??=?    
031524  260040 032465    PUSHJ 1,32465                      6 @#4U    ,??5?    
031525  260040 030652    PUSHJ 1,30652                      6 @#&J    ,??1U    
031526  254000 030361    JRST 30361                         5@ ##Q    +??0x    
031527  136700 000011    IDPB 16,11                         +W   )    ?\???    
031530  344300 031143    AOJA 6,31143                       <C #)C    9??21    
031531  334300 036455    SKIPA 6,36455                      ;C #TM    7??=?    
031532  205300 261740    MOVSI 6,261740                     0K 6/@    !,?cp    
031533  260040 031113    PUSHJ 1,31113                      6 @#)+    ,??2%    
031534  541316 035536    HRRI 6,35536(16)                   L+.#M>    X,p;/    
031535  256000 000006    XCT 6                              5P   &    +@???    
031536  254000 030371    JRST 30371                         5@ ##Y    +??0|    
031537  606000 000010    TRNN 0,10                          PP   (    a@???    
031540  031000 635651                                       #( SNI    ? ?;T    
031541  606000 000004    TRNN 0,4                           PP   $    a@???    
031542  200200 034046    MOVE 4,34046                       0" #@F     ??8?    
031543  321200 030361    JUMPL 4,30361                      :* ##Q    4(?0x    
031544  201100 000000    MOVEI 2,0                          0)         $???    
031545  260040 030237    PUSHJ 1,30237                      6 @#"?    ,??0O    
031546  306700 000074    CAIN 16,74                         8W   \    1\???    
031547  344100 031545    AOJA 2,31545                       <A #-E    9??32    
031550  302700 000076    CAIE 16,76                         87   ^    0\???    
031551  254000 031545    JRST 31545                         5@ #-E    +??32    
031552  365100 031545    SOJGE 2,31545                      >I #-E    =$?32    
031553  370000 034111    SOS 34111                          ?  #A)    >??8$    
031554  274040 036456    SUB 1,36456                        7@@#TN    /??=?    
031555  262040 034103    POP 1,34103                        60@#A#    ,B?8!    
031556  254000 030361    JRST 30361                         5@ ##Q    +??0x    
031557  337000 034111    SKIPG 34111                        ;X #A)    7`?8$    
031560  031100 655543                                       #) UMC    ?$?[1    
031561  620000 000010    TRZ 0,10                           R    (    d????    
031562  376000 034103    SOSN 34103                         ?P #A#    ?@?8!    
031563  254000 031553    JRST 31553                         5@ #-K    +??35    
031564  200101 000000    MOVE 2,0(1)                        0!!        ????    
031565  202100 034057    MOVEM 2,34057                      01 #@O     D?8?    
031566  200101 777777    MOVE 2,777777(1)                   0!!___     ????    
031567  202100 034056    MOVEM 2,34056                      01 #@N     D?8?    
031570  602000 020000    TRNE 0,20000                       P0 "      `@? ?    
031571  260040 030213    PUSHJ 1,30213                      6 @#"+    ,??0E    
031572  664000 000010    TROA 0,10                          V@   (    m????    
031573  202200 031420    MOVEM 4,31420                      02 #,0     H?3?    
031574  254000 030361    JRST 30361                         5@ ##Q    +??0x    
031575  350000 034111    AOS 34111                          =  #A)    :??8$    
031576  261040 034103    PUSH 1,34103                       6(@#A#    ,"?8!    
031577  261040 034055    PUSH 1,34055                       6(@#@M    ,"?8?    
031600  261040 034056    PUSH 1,34056                       6(@#@N    ,"?8?    
031601  261040 034057    PUSH 1,34057                       6(@#@O    ,"?8?    
031602  476000 034103    SETOM 34103                        GP #A#    O@?8!    
031603  622000 000004    TRZE 0,4                           R0   $    d@???    
031604  202200 034103    MOVEM 4,34103                      02 #A#     H?8!    
031605  332000 034103    SKIPE 34103                        ;0 #A#    6@?8!    
031606  254000 031572    JRST 31572                         5@ #-Z    +??3=    
031607  254000 031545    JRST 31545                         5@ #-E    +??32    
031610  602000 000002    TRNE 0,2                           P0   "    `@???    
031611  031240 675641                                       #*@WNA    ?*?{P    
031612  260040 032027    PUSHJ 1,32027                      6 @#07    ,??4?    
031613  430200 000006    XOR 4,6                            C"   &    F????    
031614  432200 034051    XORM 4,34051                       C2 #@I    FH?8?    
031615  254000 030361    JRST 30361                         5@ ##Q    +??0x    
031616  260040 031641    PUSHJ 1,31641                      6 @#.A    ,??3P    
031617  700200 435550    CONO APR,435550                    X" CMH    p??;4    
031620  200100 034056    MOVE 2,34056                       0! #@N     ??8?    
031621  134700 000002    ILDB 16,2                          +G   "    ?????    
031622  306700 000175    CAIN 16,175                        8W  !]    1\??>    
031623  254000 777700    JRST 777700                        5@ __     +???`    
031624  200440 036457    MOVE 11,36457                      0$@#TO     ??=?    
031625  202440 777777    MOVEM 11,777777                    04@___     R???    
031626  260040 030223    PUSHJ 1,30223                      6 @#"3    ,??0I    
031627  306700 000044    CAIN 16,44                         8W   D    1\???    
031630  201700 000375    MOVEI 16,375                       0/  #]     <??~    
031631  136700 000011    IDPB 16,11                         +W   )    ?\???    
031632  302700 000175    CAIE 16,175                        87  !]    0\??>    
031633  254000 031626    JRST 31626                         5@ #.6    +??3K    
031634  201700 000015    MOVEI 16,15                        0/   -     <???    
031635  137700 000011    DPB 16,11                          +_   )    ?|???    
031636  201700 000000    MOVEI 16,0                         0/         <???    
031637  136700 000011    IDPB 16,11                         +W   )    ?\???    
031640  254000 777701    JRST 777701                        5@ __!    +???`    
031641  260040 000161    PUSHJ 1,161                        6 @ !Q    ,???8    
031642  260040 001264    PUSHJ 1,1264                       6 @ *T    ,???Z    
031643  710300 000007    CONSZ PTP,7                        Y#   '    r????    
031644  254000 031641    JRST 31641                         5@ #.A    +??3P    
031645  712340 000030    CONSO TTY,30                       Y3@  8    rN???    
031646  712300 000030    CONSZ TTY,30                       Y3   8    rL???    
031647  254000 031645    JRST 31645                         5@ #.E    +??3R    
031650  263040 000000    POPJ 1,                            68@       ,b???    
031651  554100 174000    HLRZ 2,174000                      MA /@     [??x?    
031652  302100 402000    CAIE 2,402000                      81 @0     0D???    
031653  254000 030634    JRST 30634                         5@ #&<    +??1N    
031654  260040 031641    PUSHJ 1,31641                      6 @#.A    ,??3P    
031655  254000 174000    JRST 174000                        5@ /@     +??x?    
031656  260040 031113    PUSHJ 1,31113                      6 @#)+    ,??2%    
031657  603100 400000    TLNE 2,400000                      P9 @      `d???    
031660  603100 377777    TLNE 2,377777                      P9 ?__    `d???    
031661  254000 030416    JRST 30416                         5@ #$.    +??1?    
031662  270100 034053    ADD 2,34053                        7! #@K    .??8?    
031663  540600 000002    HRR 14,2                           L&   "    X????    
031664  260040 032454    PUSHJ 1,32454                      6 @#4L    ,??5?    
031665  302700 000141    CAIE 16,141                        87  !A    0\??0    
031666  254000 030371    JRST 30371                         5@ ##Y    +??0|    
031667  261040 034055    PUSH 1,34055                       6(@#@M    ,"?8?    
031670  261040 034056    PUSH 1,34056                       6(@#@N    ,"?8?    
031671  261040 034057    PUSH 1,34057                       6(@#@O    ,"?8?    
031672  261040 036611    PUSH 1,36611                       6(@#V)    ,"?=D    
031673  261040 036612    PUSH 1,36612                       6(@#V*    ,"?=E    
031674  200200 034060    MOVE 4,34060                       0" #@P     ??8?    
031675  602000 000200    TRNE 0,200                         P0  "     `@??@    
031676  256000 030400    XCT 30400                          5P #$     +@?1?    
031677  606000 000004    TRNN 0,4                           PP   $    a@???    
031700  201200 000000    MOVEI 4,0                          0*         (???    
031701  202200 036612    MOVEM 4,36612                      02 #V*     H?=E    
031702  200200 034063    MOVE 4,34063                       0" #@S     ??8?    
031703  606000 000002    TRNN 0,2                           PP   "    a@???    
031704  201200 000000    MOVEI 4,0                          0*         (???    
031705  202200 036611    MOVEM 4,36611                      02 #V)     H?=D    
031706  260040 032454    PUSHJ 1,32454                      6 @#4L    ,??5?    
031707  200100 000016    MOVE 2,16                          0!   .     ????    
031710  260040 032444    PUSHJ 1,32444                      6 @#4D    ,??5?    
031711  241700 000007    ROT 16,7                           4/   '    (<???    
031712  434100 000016    IOR 2,16                           CA   .    G????    
031713  275100 000003    SUBI 2,3                           7I   #    /$???    
031714  202100 034057    MOVEM 2,34057                      01 #@O     D?8?    
031715  202100 034055    MOVEM 2,34055                      01 #@M     D?8?    
031716  271600 231667    ADDI 14,231667                     7. 3.W    .8?3[    
031717  231600 000005    IDIVI 14,5                         3.   %    &8???    
031720  200655 032460    MOVE 15,32460(15)                  0&M#4P     ?h5?    
031721  540640 000014    HRR 15,14                          L&@  ,    X????    
031722  621640 000017    TLZ 15,17                          R.@  /    d:???    
031723  202640 034056    MOVEM 15,34056                     06@#@N     Z?8?    
031724  254000 030371    JRST 30371                         5@ ##Y    +??0|    
031725  260040 031113    PUSHJ 1,31113                      6 @#)+    ,??2%    
031726  261040 000016    PUSH 1,16                          6(@  .    ,"???    
031727  402016 035536    SETZM 35536(16)                    @0.#M>    @@p;/    
031730  260040 032027    PUSHJ 1,32027                      6 @#07    ,??4?    
031731  313300 000004    CAMLE 6,4                          9;   $    2l???    
031732  031000 223421                                       #( 2<1    ? ?'?    
031733  250200 000006    EXCH 4,6                           5"   &    *????    
031734  275304 777775    SUBI 6,777775(4)                   7K$__]    /,'?~    
031735  270200 000006    ADD 4,6                            7"   &    .????    
031736  261040 034051    PUSH 1,34051                       6(@#@I    ,"?8?    
031737  272301 000000    ADDM 6,0(1)                        73!       .L???    
031740  200340 034050    MOVE 7,34050                       0#@#@H     ??8?    
031741  202340 034051    MOVEM 7,34051                      03@#@I     N?8?    
031742  260040 032465    PUSHJ 1,32465                      6 @#4U    ,??5?    
031743  200640 034110    MOVE 15,34110                      0&@#A(     ??8$    
031744  272641 000000    ADDM 15,0(1)                       76A       .Z???    
031745  270200 000015    ADD 4,15                           7"   -    .????    
031746  200640 034050    MOVE 15,34050                      0&@#@H     ??8?    
031747  272300 034050    ADDM 6,34050                       73 #@H    .L?8?    
031750  201700 000141    MOVEI 16,141                       0/  !A     <??0    
031751  260040 032456    PUSHJ 1,32456                      6 @#4N    ,??5?    
031752  200700 000006    MOVE 16,6                          0'   &     ????    
031753  260040 032456    PUSHJ 1,32456                      6 @#4N    ,??5?    
031754  241700 777771    ROT 16,777771                      4/ __Y    (<??|    
031755  200600 000004    MOVE 14,4                          0&   $     ????    
031756  260040 032456    PUSHJ 1,32456                      6 @#4N    ,??5?    
031757  306300 000003    CAIN 6,3                           8S   #    1L???    
031760  254000 031763    JRST 31763                         5@ #/S    +??3y    
031761  260040 032454    PUSHJ 1,32454                      6 @#4L    ,??5?    
031762  364300 031756    SOJA 6,31756                       >C #/N    =??3w    
031763  200200 034051    MOVE 4,34051                       0" #@I     ??8?    
031764  274200 034053    SUB 4,34053                        7B #@K    /??8?    
031765  661200 400000    TLO 4,400000                       V* @      l(???    
031766  262040 034051    POP 1,34051                        60@#@I    ,B?8?    
031767  262040 000016    POP 1,16                           60@  .    ,B???    
031770  254000 031110    JRST 31110                         5@ #)(    +??2$    
031771  260040 031113    PUSHJ 1,31113                      6 @#)+    ,??2%    
031772  200200 000002    MOVE 4,2                           0"   "     ????    
031773  627200 377777    TLZN 4,377777                      RZ ?__    eh???    
031774  627200 400000    TLZN 4,400000                      RZ @      eh???    
031775  254000 031513    JRST 31513                         5@ #-+    +??3%    
031776  270200 034053    ADD 4,34053                        7" #@K    .??8?    
031777  200600 000004    MOVE 14,4                          0&   $     ????    
032000  200200 000016    MOVE 4,16                          0"   .     ????    
032001  260040 032454    PUSHJ 1,32454                      6 @#4L    ,??5?    
032002  302700 000141    CAIE 16,141                        87  !A    0\??0    
032003  254000 030361    JRST 30361                         5@ ##Q    +??0x    
032004  260040 032454    PUSHJ 1,32454                      6 @#4L    ,??5?    
032005  202700 000006    MOVEM 16,6                         07   &     \???    
032006  260040 032454    PUSHJ 1,32454                      6 @#4L    ,??5?    
032007  241700 000007    ROT 16,7                           4/   '    (<???    
032010  436700 000006    IORM 16,6                          CW   &    G\???    
032011  275300 000003    SUBI 6,3                           7K   #    /,???    
032012  260040 032465    PUSHJ 1,32465                      6 @#4U    ,??5?    
032013  200640 034051    MOVE 15,34051                      0&@#@I     ??8?    
032014  550604 035536    HRRZ 14,35536(4)                   M&$#M>    Z? ;/    
032015  270600 034053    ADD 14,34053                       7& #@K    .??8?    
032016  271600 000003    ADDI 14,3                          7.   #    .8???    
032017  322300 030361    JUMPE 6,30361                      :3 ##Q    4L?0x    
032020  260040 032454    PUSHJ 1,32454                      6 @#4L    ,??5?    
032021  260040 032450    PUSHJ 1,32450                      6 @#4H    ,??5?    
032022  350640 034051    AOS 15,34051                       =&@#@I    :??8?    
032023  364300 032017    SOJA 6,32017                       >C #0/    =??4?    
032024  260040 033373    PUSHJ 1,33373                      6 @#;[    ,??6}    
032025  710600 000000    CONO PTR,0                         Y&        r????    
032026  254000 030361    JRST 30361                         5@ ##Q    +??0x    
032027  602000 000002    TRNE 0,2                           P0   "    `@???    
032030  254000 032050    JRST 32050                         5@ #0H    +??4?    
032031  666000 000004    TRON 0,4                           VP   $    m@???    
032032  260040 030603    PUSHJ 1,30603                      6 @#&#    ,??1A    
032033  200600 034051    MOVE 14,34051                      0& #@I     ??8?    
032034  323200 032053    JUMPLE 4,32053                     :: #0K    4h?4?    
032035  316600 034052    CAMN 14,34052                      9V #@J    3X?8?    
032036  254000 032046    JRST 32046                         5@ #0F    +??4?    
032037  260040 032454    PUSHJ 1,32454                      6 @#4L    ,??5?    
032040  302700 000012    CAIE 16,12                         87   *    0\???    
032041  254000 032034    JRST 32034                         5@ #0<    +??4?    
032042  367200 032034    SOJG 4,32034                       >Z #0<    =h?4?    
032043  200200 000014    MOVE 4,14                          0"   ,     ????    
032044  200300 034051    MOVE 6,34051                       0# #@I     ??8?    
032045  263040 000000    POPJ 1,                            68@       ,b???    
032046  200200 000014    MOVE 4,14                          0"   ,     ????    
032047  254000 032044    JRST 32044                         5@ #0D    +??4?    
032050  270200 034050    ADD 4,34050                        7" #@H    .??8?    
032051  270300 034050    ADD 6,34050                        7# #@H    .??8?    
032052  263040 000000    POPJ 1,                            68@       ,b???    
032053  370000 000014    SOS 14                             ?    ,    >????    
032054  317600 034050    CAMG 14,34050                      9^ #@H    3x?8?    
032055  254000 032062    JRST 32062                         5@ #0R    +??4?    
032056  260040 032454    PUSHJ 1,32454                      6 @#4L    ,??5?    
032057  302700 000012    CAIE 16,12                         87   *    0\???    
032060  364600 032053    SOJA 14,32053                      >F #0K    =??4?    
032061  343200 032060    AOJLE 4,32060                      <: #0P    8h?4?    
032062  315600 034050    CAMGE 14,34050                     9N #@H    38?8?    
032063  200600 034050    MOVE 14,34050                      0& #@H     ??8?    
032064  200300 000014    MOVE 6,14                          0#   ,     ????    
032065  200200 034051    MOVE 4,34051                       0" #@I     ??8?    
032066  263040 000000    POPJ 1,                            68@       ,b???    
032067  260040 032122    PUSHJ 1,32122                      6 @#12    ,??4)    
032070  260040 030223    PUSHJ 1,30223                      6 @#"3    ,??0I    
032071  306700 000114    CAIN 16,114                        8W  !,    1\??&    
032072  254000 033531    JRST 33531                         5@ #=9    +??7,    
032073  306700 000122    CAIN 16,122                        8W  !2    1\??)    
032074  254000 033457    JRST 33457                         5@ #<O    +??7?    
032075  306700 000103    CAIN 16,103                        8W  !#    1\??!    
032076  254000 033501    JRST 33501                         5@ #=!    +??7     
032077  306700 000106    CAIN 16,106                        8W  !&    1\??#    
032100  254000 033473    JRST 33473                         5@ #<[    +??7?    
032101  306700 000104    CAIN 16,104                        8W  !$    1\??"    
032102  254000 033470    JRST 33470                         5@ #<X    +??7?    
032103  306700 000116    CAIN 16,116                        8W  !.    1\??'    
032104  254000 033670    JRST 33670                         5@ #>X    +??7\    
032105  306700 000111    CAIN 16,111                        8W  !)    1\??$    
032106  254000 033717    JRST 33717                         5@ #?/    +??7g    
032107  306700 000113    CAIN 16,113                        8W  !+    1\??%    
032110  254000 002235    JRST 2235                          5@  2=    +???N    
032111  306700 000123    CAIN 16,123                        8W  !3    1\??)    
032112  254000 033515    JRST 33515                         5@ #=-    +??7&    
032113  306700 000124    CAIN 16,124                        8W  !4    1\??*    
032114  254000 033770    JRST 33770                         5@ #?X    +??7|    
032115  306700 000115    CAIN 16,115                        8W  !-    1\??&    
032116  254000 033530    JRST 33530                         5@ #=8    +??7,    
032117  306700 000120    CAIN 16,120                        8W  !0    1\??(    
032120  254000 032134    JRST 32134                         5@ #1<    +??4.    
032121  031000 516543                                       #( IUC    ? ??1    
032122  200100 000004    MOVE 2,4                           0!   $     ????    
032123  606000 000004    TRNN 0,4                           PP   $    a@???    
032124  200100 002425    MOVE 2,2425                        0!  45     ????    
032125  260040 002246    PUSHJ 1,2246                       6 @ 2F    ,???S    
032126  254000 032130    JRST 32130                         5@ #18    +??4,    
032127  263040 000000    POPJ 1,                            68@       ,b???    
032130  254002 032133    JRST 32133(2)                      5@"#1;    +??4-    
032131  030000 036460                                       #  #TP    ???=?    
032132  030000 036463                                       #  #TS    ???=?    
032133  030000 036467                                       #  #TW    ???=?    
032134  260040 033457    PUSHJ 1,33457                      6 @#<O    ,??7?    
032135  254000 034631    JRST 34631                         5@ #F9    +??9L    
032136  201700 000014    MOVEI 16,14                        0/   ,     <???    
032137  356000 036604    AOSN 36604                         =P #V$    ;@?=B    
032140  260040 033056    PUSHJ 1,33056                      6 @#8N    ,??6?    
032141  661000 001020    TLO 0,1020                         V(  (0    l ???    
032142  254000 030361    JRST 30361                         5@ ##Q    +??0x    
032244  250100 034070    EXCH 2,34070                       5! #@X    *??8?    
032245  202100 034067    MOVEM 2,34067                      01 #@W     D?8?    
032246  250100 034070    EXCH 2,34070                       5! #@X    *??8?    
032247  713200 000167    CONO DIS,167                       Y:  !W    rh??;    
032250  254520 032243    JRST 12,@32243                     5E0#2C    +??4Q    
032251  200440 034052    MOVE 11,34052                      0$@#@J     ??8?    
032252  231440 000005    IDIVI 11,5                         3,@  %    &2???    
032253  271440 036615    ADDI 11,36615                      7,@#V-    .2?=F    
032254  202440 034101    MOVEM 11,34101                     04@#A!     R?8     
032255  201500 020115    MOVEI 12,20115                     0- "!-     4? &    
032256  434500 031363    IOR 12,31363                       CE #+S    G??2y    
032257  261440 000012    PUSH 11,12                         6,@  *    ,2???    
032260  261440 036474    PUSH 11,36474                      6,@#T\    ,2?=?    
032261  505440 000600    HRLI 11,600                        HL@ &     Q2??@    
032262  202440 034071    MOVEM 11,34071                     04@#@Y     R?8?    
032263  135500 036475    LDB 12,36475                       +M #T]    ?4?=?    
032264  213000 000012    MOVNS 12                           18   *    "`???    
032265  201440 000252    MOVEI 11,252                       0,@ "J     2??U    
032266  242452 000000    LSH 11,0(12)                       44J       (RP??    
032267  620440 000007    TRZ 11,7                           R$@  '    d????    
032270  202440 034102    MOVEM 11,34102                     04@#A"     R?8!    
032271  212440 034100    MOVNM 11,34100                     14@#A     "R?8     
032272  201440 000144    MOVEI 11,144                       0,@ !D     2??2    
032273  202440 032370    MOVEM 11,32370                     04@#3X     R?4|    
032274  402000 034076    SETZM 34076                        @0 #@^    @@?8?    
032275  263040 000000    POPJ 1,                            68@       ,b???    
032276  336000 032370    SKIPN 32370                        ;P #3X    7@?4|    
032277  263040 000000    POPJ 1,                            68@       ,b???    
032300  200100 034051    MOVE 2,34051                       0! #@I     ??8?    
032301  306602 000001    CAIN 14,1(2)                       8V"  !    1X???    
032302  254000 032351    JRST 32351                         5@ #3I    +??4t    
032303  301700 000040    CAIL 16,40                         8/   @    0<???    
032304  303700 000132    CAILE 16,132                       8?  !:    0|??-    
032305  254000 032311    JRST 32311                         5@ #3)    +??4d    
032306  357000 034100    AOSG 34100                         =X #A     ;`?8     
032307  136700 034071    IDPB 16,34071                      +W #@Y    ?\?8?    
032310  263040 000000    POPJ 1,                            68@       ,b???    
032311  306700 000015    CAIN 16,15                         8W   -    1\???    
032312  254000 032326    JRST 32326                         5@ #36    +??4k    
032313  306700 000012    CAIN 16,12                         8W   *    1\???    
032314  254000 032344    JRST 32344                         5@ #3D    +??4r    
032315  306700 000007    CAIN 16,7                          8W   '    1\???    
032316  254000 032347    JRST 32347                         5@ #3G    +??4s    
032317  302700 000011    CAIE 16,11                         87   )    0\???    
032320  254000 032332    JRST 32332                         5@ #3:    +??4m    
032321  201700 000040    MOVEI 16,40                        0/   @     <???    
032322  260040 032306    PUSHJ 1,32306                      6 @#3&    ,??4c    
032323  135700 036476    LDB 16,36476                       +O #T^    ?<?=?    
032324  326700 032321    JUMPN 16,32321                     :W #31    5\?4h    
032325  263040 000000    POPJ 1,                            68@       ,b???    
032326  200700 034102    MOVE 16,34102                      0' #A"     ??8!    
032327  212700 034100    MOVNM 16,34100                     17 #A     "\?8     
032330  201700 000034    MOVEI 16,34                        0/   <     <???    
032331  254000 032307    JRST 32307                         5@ #3'    +??4c    
032332  301700 000040    CAIL 16,40                         8/   @    0<???    
032333  301700 000140    CAIL 16,140                        8/  !@    0<??0    
032334  254000 032371    JRST 32371                         5@ #3Y    +??4|    
032335  204716 032227    MOVS 16,32227(16)                  0G.#27    !?p4K    
032336  541700 000036    HRRI 16,36                         L/   >    X<???    
032337  136700 034071    IDPB 16,34071                      +W #@Y    ?\?8?    
032340  207000 000016    MOVSS 16                           0X   .    !`???    
032341  136700 034071    IDPB 16,34071                      +W #@Y    ?\?8?    
032342  201700 000035    MOVEI 16,35                        0/   =     <???    
032343  254000 032306    JRST 32306                         5@ #3&    +??4c    
032344  370000 032370    SOS 32370                          ?  #3X    >??4|    
032345  201700 000033    MOVEI 16,33                        0/   ;     <???    
032346  254000 032307    JRST 32307                         5@ #3'    +??4c    
032347  205700 000063    MOVSI 16,63                        0O   S    !<???    
032350  254000 032336    JRST 32336                         5@ #3>    +??4o    
032351  201100 000036    MOVEI 2,36                         0)   >     $???    
032352  136100 034071    IDPB 2,34071                       +Q #@Y    ?D?8?    
032353  201100 000062    MOVEI 2,62                         0)   R     $???    
032354  136100 034071    IDPB 2,34071                       +Q #@Y    ?D?8?    
032355  200100 034071    MOVE 2,34071                       0! #@Y     ??8?    
032356  202100 034076    MOVEM 2,34076                      01 #@^     D?8?    
032357  201100 000035    MOVEI 2,35                         0)   =     $???    
032360  136100 034071    IDPB 2,34071                       +Q #@Y    ?D?8?    
032361  254000 032303    JRST 32303                         5@ #3#    +??4a    
032362  000000 000053                                            K    ?????    
032363  000000 000052                                            J    ?????    
032364  000000 000054                                            L    ?????    
032365  000000 000046                                            F    ?????    
032366  000000 000051                                            I    ?????    
032367  000000 000050                                            H    ?????    
032370  000000 000000                                                 ?????    
032371  261040 000016    PUSH 1,16                          6(@  .    ,"???    
032372  201700 000036    MOVEI 16,36                        0/   >     <???    
032373  136700 034071    IDPB 16,34071                      +W #@Y    ?\?8?    
032374  201700 000050    MOVEI 16,50                        0/   H     <???    
032375  136700 034071    IDPB 16,34071                      +W #@Y    ?\?8?    
032376  201700 000073    MOVEI 16,73                        0/   [     <???    
032377  136700 034071    IDPB 16,34071                      +W #@Y    ?\?8?    
032400  201700 000035    MOVEI 16,35                        0/   =     <???    
032401  136700 034071    IDPB 16,34071                      +W #@Y    ?\?8?    
032402  200701 000000    MOVE 16,0(1)                       0'!        ????    
032403  305700 000100    CAIGE 16,100                       8O  !     1<??     
032404  254000 032407    JRST 32407                         5@ #4'    +??5?    
032405  201700 000061    MOVEI 16,61                        0/   Q     <???    
032406  260040 032306    PUSHJ 1,32306                      6 @#3&    ,??4c    
032407  200701 000000    MOVE 16,0(1)                       0'!        ????    
032410  405700 000070    ANDI 16,70                         @O   X    A<???    
032411  322700 032415    JUMPE 16,32415                     :7 #4-    4\?5?    
032412  242700 777775    LSH 16,777775                      47 __]    (\??~    
032413  271700 000060    ADDI 16,60                         7/   P    .<???    
032414  260040 032306    PUSHJ 1,32306                      6 @#3&    ,??4c    
032415  262040 000016    POP 1,16                           60@  .    ,B???    
032416  405700 000007    ANDI 16,7                          @O   '    A<???    
032417  271700 000060    ADDI 16,60                         7/   P    .<???    
032420  260040 032306    PUSHJ 1,32306                      6 @#3&    ,??4c    
032421  205700 000077    MOVSI 16,77                        0O   _    !<???    
032422  254000 032336    JRST 32336                         5@ #3>    +??4o    
032423  200100 034071    MOVE 2,34071                       0! #@Y     ??8?    
032424  201700 000037    MOVEI 16,37                        0/   ?     <???    
032425  136700 000002    IDPB 16,2                          +W   "    ?\???    
032426  603100 550000    TLNE 2,550000                      P9 M      `d?P?    
032427  254000 032425    JRST 32425                         5@ #45    +??5?    
032430  641100 002400    TLC 2,2400                         T)  4     h$???    
032431  201700 003000    MOVEI 16,3000                      0/  8      <???    
032432  136700 000002    IDPB 16,2                          +W   "    ?\???    
032433  550200 034101    HRRZ 4,34101                       M" #A!    Z??8     
032434  202200 034070    MOVEM 4,34070                      02 #@X     H?8?    
032435  201700 000006    MOVEI 16,6                         0/   &     <???    
032436  301202 777754    CAIL 4,777754(2)                   8*"__L    0(??v    
032437  432704 000001    XORM 16,1(4)                       C7$  !    F\ ??    
032440  700600 002237    CONO PI,2237                       X&  2?    p???O    
032441  700600 004002    CONO PI,4002                       X&  @"    p????    
032442  700200 002005    CONO APR,2005                      X"  0%    p????    
032443  263040 000000    POPJ 1,                            68@       ,b???    
032444  200500 000014    MOVE 12,14                         0%   ,     ????    
032445  231500 000005    IDIVI 12,5                         3-   %    &4???    
032446  135713 032460    LDB 16,32460(13)                   +O+#4P    ?<X5?    
032447  263040 000000    POPJ 1,                            68@       ,b???    
032450  200500 000015    MOVE 12,15                         0%   -     ????    
032451  231500 000005    IDIVI 12,5                         3-   %    &4???    
032452  137713 032460    DPB 16,32460(13)                   +_+#4P    ?|X5?    
032453  263040 000000    POPJ 1,                            68@       ,b???    
032454  260040 032444    PUSHJ 1,32444                      6 @#4D    ,??5?    
032455  344600 032453    AOJA 14,32453                      <F #4K    9??5?    
032456  260040 032450    PUSHJ 1,32450                      6 @#4H    ,??5?    
032457  344640 031143    AOJA 15,31143                      <F@#)C    9??21    
032460  350712 036613    AOS 16,36613(12)                   ='*#V+    :?P=E    
032461  260712 036613    PUSHJ 16,36613(12)                 6'*#V+    ,?P=E    
032462  170712 036613    FDV 16,36613(12)                   /'*#V+    ??P=E    
032463  100712 036613                                       ('*#V+    ??P=E    
032464  010712 036613                                       !'*#V+    ??P=E    
032465  202740 035305    MOVEM 17,35305                     07@#K%     ^?:b    
032466  200740 034051    MOVE 17,34051                      0'@#@I     ??8?    
032467  316740 034052    CAMN 17,34052                      9W@#@J    3^?8?    
032470  254000 032544    JRST 32544                         5@ #5D    +??52    
032471  200740 036477    MOVE 17,36477                      0'@#T_     ??=?    
032472  251740 035304    BLT 17,35304                       5/@#K$    *>?:b    
032473  321300 032547    JUMPL 6,32547                      :+ #5G    4,?53    
032474  476000 034107    SETOM 34107                        GP #A'    O@?8#    
032475  402000 034106    SETZM 34106                        @0 #A&    @@?8#    
032476  402000 034110    SETZM 34110                        @0 #A(    @@?8$    
032477  200740 034052    MOVE 17,34052                      0'@#@J     ??8?    
032500  270740 000006    ADD 17,6                           7'@  &    .????    
032501  311740 034104    CAML 17,34104                      9/@#A$    2>?8"    
032502  254000 032612    JRST 32612                         5@ #6*    +??5E    
032503  271740 231667    ADDI 17,231667                     7/@3.W    .>?3[    
032504  200600 000006    MOVE 14,6                          0&   &     ????    
032505  231600 000005    IDIVI 14,5                         3.   %    &8???    
032506  221640 000007    IMULI 15,7                         2.@  '    $:???    
032507  210540 000015    MOVN 13,15                         1%@  -    "????    
032510  201655 777735    MOVEI 15,777735(15)                0.M__=     :o?n    
032511  200440 034051    MOVE 11,34051                      0$@#@I     ??8?    
032512  271440 231667    ADDI 11,231667                     7,@3.W    .2?3[    
032513  231440 000005    IDIVI 11,5                         3,@  %    &2???    
032514  211712 777773    MOVNI 16,777773(12)                1/*__[    "<W?}    
032515  221700 000007    IMULI 16,7                         2/   '    $<???    
032516  137700 036500    DPB 16,36500                       +_ #U     ?|?=     
032517  271611 000001    ADDI 14,1(11)                      7.)  !    .8H??    
032520  200700 034052    MOVE 16,34052                      0' #@J     ??8?    
032521  271700 231667    ADDI 16,231667                     7/ 3.W    .<?3[    
032522  231700 000005    IDIVI 16,5                         3/   %    &<???    
032523  201216 000001    MOVEI 4,1(16)                      0*.  !     (p??    
032524  274200 000011    SUB 4,11                           7B   )    /????    
032525  505440 200104    HRLI 11,200104                     HL@0!$    Q2??"    
032526  525500 241100    HRLOI 12,241100                    JM 4)     U4?B     
032527  505540 245100    HRLI 13,245100                     HM@4I     Q6?J     
032530  505600 202144    HRLI 14,202144                     HN 01D    Q8??2    
032531  505640 245100    HRLI 15,245100                     HN@4I     Q:?J     
032532  200740 036501    MOVE 17,36501                      0'@#U!     ??=     
032533  200700 032534    MOVE 16,32534                      0' #5<     ??5.    
032534  365200 000011    SOJGE 4,11                         >J   )    =(???    
032535  245113 000043    ROTC 2,43(13)                      4I+  C    )$X??    
032536  137100 032543    DPB 2,32543                        +Y #5C    ?d?51    
032537  272300 034052    ADDM 6,34052                       73 #@J    .L?8?    
032540  204740 036477    MOVS 17,36477                      0G@#T_    !??=?    
032541  251740 000017    BLT 17,17                          5/@  /    *>???    
032542  263040 000000    POPJ 1,                            68@       ,b???    
032543  010014 777777                                       ! ,___    ??g??    
032544  272300 034052    ADDM 6,34052                       73 #@J    .L?8?    
032545  200740 035305    MOVE 17,35305                      0'@#K%     ??:b    
032546  263040 000000    POPJ 1,                            68@       ,b???    
032547  200600 034051    MOVE 14,34051                      0& #@I     ??8?    
032550  271600 231667    ADDI 14,231667                     7. 3.W    .8?3[    
032551  231600 000005    IDIVI 14,5                         3.   %    &8???    
032552  202600 000004    MOVEM 14,4                         06   $     X???    
032553  542600 032611    HRRM 14,32611                      L6 #6)    XX?5D    
032554  221640 000007    IMULI 15,7                         2.@  '    $:???    
032555  137640 036502    DPB 15,36502                       +^@#U"    ?z?=!    
032556  211655 777734    MOVNI 15,777734(15)                1.M__<    ":o?n    
032557  137640 036503    DPB 15,36503                       +^@#U#    ?z?=!    
032560  200440 034052    MOVE 11,34052                      0$@#@J     ??8?    
032561  271440 231667    ADDI 11,231667                     7,@3.W    .2?3[    
032562  231440 000005    IDIVI 11,5                         3,@  %    &2???    
032563  271440 000001    ADDI 11,1                          7,@  !    .2???    
032564  200540 000006    MOVE 13,6                          0%@  &     ????    
032565  231540 000005    IDIVI 13,5                         3-@  %    &6???    
032566  271551 777777    ADDI 13,777777(11)                 7-I___    .6O??    
032567  212600 000012    MOVNM 14,12                        16   *    "X???    
032570  221500 000007    IMULI 12,7                         2-   '    $4???    
032571  211652 777735    MOVNI 15,777735(12)                1.J__=    ":W?n    
032572  275213 000001    SUBI 4,1(13)                       7J+  !    /(X??    
032573  505440 200144    HRLI 11,200144                     HL@0!D    Q2??2    
032574  505500 245100    HRLI 12,245100                     HM 4I     Q4?J     
032575  505540 202104    HRLI 13,202104                     HM@01$    Q6??"    
032576  200600 036504    MOVE 14,36504                      0& #U$     ??="    
032577  505640 245100    HRLI 15,245100                     HN@4I     Q:?J     
032600  200740 036505    MOVE 17,36505                      0'@#U%     ??="    
032601  272300 034052    ADDM 6,34052                       73 #@J    .L?8?    
032602  135300 032611    LDB 6,32611                        +K #6)    ?,?5D    
032603  200120 000011    MOVE 2,@11                         0!0  )     ????    
032604  241100 777777    ROT 2,777777                       4) ___    ($???    
032605  200700 032606    MOVE 16,32606                      0' #6&     ??5C    
032606  343200 000011    AOJLE 4,11                         <:   )    8h???    
032607  137300 032611    DPB 6,32611                        +[ #6)    ?l?5D    
032610  254000 032540    JRST 32540                         5@ #5@    +??50    
032611  000000 000000                                                 ?????    
032612  352000 034107    AOSE 34107                         =0 #A'    :@?8#    
032613  030000 036506                                       #  #U&    ???=#    
032614  476000 034105    SETOM 34105                        GP #A%    O@?8"    
032615  402000 035330    SETZM 35330                        @0 #K8    @@?:l    
032616  200440 036443    MOVE 11,36443                      0$@#TC     ??=?    
032617  251440 035415    BLT 11,35415                       5,@#L-    *2?;?    
032620  201440 034056    MOVEI 11,34056                     0,@#@N     2?8?    
032621  260040 032755    PUSHJ 1,32755                      6 @#7M    ,??5v    
032622  550440 000001    HRRZ 11,1                          M$@  !    Z????    
032623  301440 035663    CAIL 11,35663                      8,@#NS    02?;Y    
032624  260040 032755    PUSHJ 1,32755                      6 @#7M    ,??5v    
032625  303440 035663    CAILE 11,35663                     8<@#NS    0r?;Y    
032626  364440 032624    SOJA 11,32624                      >D@#64    =??5J    
032627  550440 035305    HRRZ 11,35305                      M$@#K%    Z??:b    
032630  301440 035416    CAIL 11,35416                      8,@#L.    02?;?    
032631  260040 032733    PUSHJ 1,32733                      6 @#7;    ,??5m    
032632  303440 035416    CAILE 11,35416                     8<@#L.    0r?;?    
032633  364440 032631    SOJA 11,32631                      >D@#69    =??5L    
032634  200440 036514    MOVE 11,36514                      0$@#U,     ??=&    
032635  260040 032733    PUSHJ 1,32733                      6 @#7;    ,??5m    
032636  253440 032635    AOBJN 11,32635                     5<@#6=    *r?5N    
032637  335000 034105    SKIPGE 34105                       ;H #A%    7 ?8"    
032640  254000 032477    JRST 32477                         5@ #4_    +??5?    
032641  200600 034053    MOVE 14,34053                      0& #@K     ??8?    
032642  205500 000005    MOVSI 12,5                         0M   %    !4???    
032643  200640 034105    MOVE 15,34105                      0&@#A%     ??8"    
032644  550115 035516    HRRZ 2,35516(15)                   M!-#M.    Z?h;'    
032645  270100 034053    ADD 2,34053                        7! #@K    .??8?    
032646  315100 000014    CAMGE 2,14                         9I   ,    3$???    
032647  254000 032652    JRST 32652                         5@ #6J    +??5U    
032650  315100 000012    CAMGE 2,12                         9I   *    3$???    
032651  200500 000002    MOVE 12,2                          0%   "     ????    
032652  365640 032644    SOJGE 15,32644                     >N@#6D    =:?5R    
032653  606500 777777    TRNN 12,777777                     PU ___    aT???    
032654  254000 032477    JRST 32477                         5@ #4_    +??5?    
032655  200400 000012    MOVE 10,12                         0$   *     ????    
032656  231600 000005    IDIVI 14,5                         3.   %    &8???    
032657  231400 000005    IDIVI 10,5                         3,   %    &0???    
032660  271600 036614    ADDI 14,36614                      7. #V,    .8?=F    
032661  271400 036613    ADDI 10,36613                      7, #V+    .0?=E    
032662  204640 000010    MOVS 15,10                         0F@  (    !????    
032663  200440 000010    MOVE 11,10                         0$@  (     ????    
032664  274440 000014    SUB 11,14                          7D@  ,    /????    
032665  323440 032720    JUMPLE 11,32720                    :<@#70    4r?5h    
032666  540640 000014    HRR 15,14                          L&@  ,    X????    
032667  200200 034052    MOVE 4,34052                       0" #@J     ??8?    
032670  231200 000005    IDIVI 4,5                          3*   %    &(???    
032671  275211 741165    SUBI 4,741165(11)                  7J)\)U    /(OB:    
032672  251644 000000    BLT 15,0(4)                        5.D       *: ??    
032673  213640 000011    MOVNS 15,11                        1>@  )    "z???    
032674  221640 000005    IMULI 15,5                         2.@  %    $:???    
032675  272640 034050    ADDM 15,34050                      76@#@H    .Z?8?    
032676  272640 034051    ADDM 15,34051                      76@#@I    .Z?8?    
032677  272640 034052    ADDM 15,34052                      76@#@J    .Z?8?    
032700  272640 034110    ADDM 15,34110                      76@#A(    .Z?8$    
032701  200700 034105    MOVE 16,34105                      0' #A%     ??8"    
032702  550116 035516    HRRZ 2,35516(16)                   M!.#M.    Z?p;'    
032703  270100 034053    ADD 2,34053                        7! #@K    .??8?    
032704  315100 000012    CAMGE 2,12                         9I   *    3$???    
032705  254000 032716    JRST 32716                         5@ #7.    +??5g    
032706  272656 035516    ADDM 15,35516(16)                  76N#M.    .Zp;'    
032707  554116 035516    HLRZ 2,35516(16)                   MA.#M.    [?p;'    
032710  306100 034056    CAIN 2,34056                       8Q #@N    1D?8?    
032711  272640 034106    ADDM 15,34106                      76@#A&    .Z?8#    
032712  331002 000000    SKIPL 0(2)                         ;("       6 ???    
032713  272442 000000    ADDM 11,0(2)                       74B       .R???    
032714  335002 000000    SKIPGE 0(2)                        ;H"       7 ???    
032715  272642 000000    ADDM 15,0(2)                       76B       .Z???    
032716  365700 032702    SOJGE 16,32702                     >O #7"    =<?5a    
032717  270500 000015    ADD 12,15                          7%   -    .????    
032720  200600 000012    MOVE 14,12                         0&   *     ????    
032721  260040 032454    PUSHJ 1,32454                      6 @#4L    ,??5?    
032722  302700 000141    CAIE 16,141                        87  !A    0\??0    
032723  030000 036515                                       #  #U-    ???=&    
032724  260040 032454    PUSHJ 1,32454                      6 @#4L    ,??5?    
032725  200100 000016    MOVE 2,16                          0!   .     ????    
032726  260040 032454    PUSHJ 1,32454                      6 @#4L    ,??5?    
032727  241700 000007    ROT 16,7                           4/   '    (<???    
032730  434100 000016    IOR 2,16                           CA   .    G????    
032731  271602 777775    ADDI 14,777775(2)                  7."__]    .8??~    
032732  254000 032642    JRST 32642                         5@ #6B    +??5Q    
032733  200611 000000    MOVE 14,0(11)                      0&)        ?H??    
032734  623600 400000    TLZE 14,400000                     R> @      dx???    
032735  623600 377777    TLZE 14,377777                     R> ?__    dx???    
032736  263040 000000    POPJ 1,                            68@       ,b???    
032737  270600 034053    ADD 14,34053                       7& #@K    .??8?    
032740  311600 034050    CAML 14,34050                      9. #@H    28?8?    
032741  263040 000000    POPJ 1,                            68@       ,b???    
032742  260040 032444    PUSHJ 1,32444                      6 @#4D    ,??5?    
032743  302700 000141    CAIE 16,141                        87  !A    0\??0    
032744  263040 000000    POPJ 1,                            68@       ,b???    
032745  274600 034053    SUB 14,34053                       7F #@K    /??8?    
032746  321600 031143    JUMPL 14,31143                     :. #)C    48?21    
032747  350500 034105    AOS 12,34105                       =% #A%    :??8"    
032750  301500 000100    CAIL 12,100                        8-  !     04??     
032751  254000 032723    JRST 32723                         5@ #73    +??5i    
032752  504600 000011    HRL 14,11                          HF   )    Q????    
032753  202612 035516    MOVEM 14,35516(12)                 06*#M.     XP;'    
032754  263040 000000    POPJ 1,                            68@       ,b???    
032755  135500 036520    LDB 12,36520                       +M #U0    ?4?=(    
032756  302500 000700    CAIE 12,700                        85  '     0T??`    
032757  263040 000000    POPJ 1,                            68@       ,b???    
032760  200611 777777    MOVE 14,777777(11)                 0&)___     ?O??    
032761  274611 000001    SUB 14,1(11)                       7F)  !    /?H??    
032762  135500 036521    LDB 12,36521                       +M #U1    ?4?=(    
032763  231500 000007    IDIVI 12,7                         3-   '    &4???    
032764  211552 777776    MOVNI 13,777776(12)                1-J__^    "6W??    
032765  550511 000000    HRRZ 12,0(11)                      M%)       Z?H??    
032766  221500 000005    IMULI 12,5                         2-   %    $4???    
032767  271516 000013    ADDI 12,13(16)                     7-.  +    .4p??    
032770  276500 000014    SUBM 12,14                         7U   ,    /T???    
032771  254000 032740    JRST 32740                         5@ #7@    +??5p    
032772  000000 000000                                                 ?????    
032773  261040 000002    PUSH 1,2                           6(@  "    ,"???    
032774  700340 001200    CONSO APR,1200                     X#@ *     p???@    
032775  254000 033044    JRST 33044                         5@ #8D    +??6?    
032776  700200 001445    CONO APR,1445                      X"  ,E    p????    
032777  264000 001274    JSR 1274                           6@  *\    -???^    
033000  377000 034073    SOSG 34073                         ?X #@[    ?`?8?    
033001  254000 033034    JRST 33034                         5@ #8<    +??6?    
033002  335000 033417    SKIPGE 33417                       ;H #</    7 ?7?    
033003  710700 000400    CONSZ PTR,400                      Y'  $     r????    
033004  254000 033006    JRST 33006                         5@ #8&    +??6?    
033005  476000 034077    SETOM 34077                        GP #@_    O@?8?    
033006  335000 033124    SKIPGE 33124                       ;H #94    7 ?6*    
033007  357000 033420    AOSG 33420                         =X #<0    ;`?7?    
033010  254000 033015    JRST 33015                         5@ #8-    +??6?    
033011  201100 264000    MOVEI 2,264000                     0) 6@      $?h?    
033012  506100 033124    HRLM 2,33124                       HQ #94    QD?6*    
033013  476000 033417    SETOM 33417                        GP #</    O@?7?    
033014  710600 000400    CONO PTR,400                       Y&  $     r????    
033015  713340 000077    CONSO DIS,77                       Y;@  _    rn???    
033016  254000 033023    JRST 33023                         5@ #83    +??6?    
033017  200100 034067    MOVE 2,34067                       0! #@W     ??8?    
033020  553000 034067    HRRZS 0,34067                      M8 #@W    Z`?8?    
033021  316100 034067    CAMN 2,34067                       9Q #@W    3D?8?    
033022  700600 004002    CONO PI,4002                       X&  @"    p????    
033023  350100 034074    AOS 2,34074                        =! #@\    :??8?    
033024  274100 030145    SUB 2,30145                        7A #!E    /??02    
033025  301100 000010    CAIL 2,10                          8)   (    0$???    
033026  337000 034045    SKIPG 34045                        ;X #@E    7`?8?    
033027  254000 033032    JRST 33032                         5@ #8:    +??6?    
033030  476000 034045    SETOM 34045                        GP #@E    O@?8?    
033031  563000 030146    HRROS 0,30146                      N8 #!F    \`?03    
033032  262040 000002    POP 1,2                            60@  "    ,B???    
033033  254520 032772    JRST 12,@32772                     5E0#7Z    +??5}    
033034  713340 000077    CONSO DIS,77                       Y;@  _    rn???    
033035  254000 033002    JRST 33002                         5@ #8"    +??6?    
033036  201100 000036    MOVEI 2,36                         0)   >     $???    
033037  202100 034073    MOVEM 2,34073                      01 #@[     D?8?    
033040  135100 034076    LDB 2,34076                        +I #@^    ?$?8?    
033041  640100 000022    TRC 2,22                           T!   2    h????    
033042  137100 034076    DPB 2,34076                        +Y #@^    ?d?8?    
033043  254000 033002    JRST 33002                         5@ #8"    +??6?    
033044  201200 000000    MOVEI 4,0                          0*         (???    
033045  700340 200000    CONSO APR,200000                   X#@0      p????    
033046  201200 000010    MOVEI 4,10                         0*   (     (???    
033047  700200 433555    CONO APR,433555                    X" C=M    p??76    
033050  200040 036522    MOVE 1,36522                       0 @#U2     ??=)    
033051  201700 000007    MOVEI 16,7                         0/   '     <???    
033052  260040 027634    PUSHJ 1,27634                      6 @"^<    ,??/N    
033053  367200 033052    SOJG 4,33052                       >Z #8J    =h?6?    
033054  660000 000400    TRO 0,400                          V   $     l????    
033055  254400 031422    JRST 10,31422                      5D #,2    +??3?    
033056  250100 000016    EXCH 2,16                          5!   .    *????    
033057  260040 000103    PUSHJ 1,103                        6 @ !#    ,???!    
033060  250100 000016    EXCH 2,16                          5!   .    *????    
033061  263040 000000    POPJ 1,                            68@       ,b???    
033062  337000 033120    SKIPG 33120                        ;X #90    7`?6(    
033063  254000 033062    JRST 33062                         5@ #8R    +??6?    
033064  136700 033121    IDPB 16,33121                      +W #91    ?\?6(    
033065  550700 033121    HRRZ 16,33121                      M' #91    Z??6(    
033066  306700 036162    CAIN 16,36162                      8W #QR    1\?<9    
033067  201700 036063    MOVEI 16,36063                     0/ #PS     <?<?    
033070  542700 033121    HRRM 16,33121                      L7 #91    X\?6(    
033071  370700 033120    SOS 16,33120                       ?' #90    >??6(    
033072  710340 000007    CONSO PTP,7                        Y#@  '    r????    
033073  710200 000014    CONO PTP,14                        Y"   ,    r????    
033074  263040 000000    POPJ 1,                            68@       ,b???    
033075  000000 000000                                                 ?????    
033076  264000 001436    JSR 1436                           6@  ,>    -????    
033077  261040 000002    PUSH 1,2                           6(@  "    ,"???    
033100  254000 000236    JRST 236                           5@  ">    +???O    
033101  710340 000010    CONSO PTP,10                       Y#@  (    r????    
033102  254000 027664    JRST 27664                         5@ "^T    +??/Z    
033103  201100 000374    MOVEI 2,374                        0)  #\     $??~    
033104  317100 033120    CAMG 2,33120                       9Y #90    3d?6(    
033105  254000 033115    JRST 33115                         5@ #9-    +??6&    
033106  134100 033122    ILDB 2,33122                       +A #92    ???6)    
033107  710140 000002    DATAO PTP,2                        Y!@  "    r????    
033110  550100 033122    HRRZ 2,33122                       M! #92    Z??6)    
033111  306100 036162    CAIN 2,36162                       8Q #QR    1D?<9    
033112  201100 036063    MOVEI 2,36063                      0) #PS     $?<?    
033113  542100 033122    HRRM 2,33122                       L1 #92    XD?6)    
033114  354000 033120    AOSA 33120                         =@ #90    ;??6(    
033115  710200 000000    CONO PTP,0                         Y"        r????    
033116  262040 000002    POP 1,2                            60@  "    ,B???    
033117  254520 033075    JRST 12,@33075                     5E0#8]    +??6?    
033120  000000 000374                                           #\    ????~    
033121  001000 036062                                        ( #PR    ? ?<?    
033122  001000 036062                                        ( #PR    ? ?<?    
033123  000000 000000                                                 ?????    
033124  264000 033151    JSR 33151                          6@ #9I    -??64    
033125  250200 033151    EXCH 4,33151                       5" #9I    *??64    
033126  261040 000002    PUSH 1,2                           6(@  "    ,"???    
033127  211100 000010    MOVNI 2,10                         1)   (    "$???    
033130  202100 033420    MOVEM 2,33420                      01 #<0     D?7?    
033131  136200 033415    IDPB 4,33415                       +R #<-    ?H?7?    
033132  550100 033415    HRRZ 2,33415                       M! #<-    Z??7?    
033133  306100 036433    CAIN 2,36433                       8Q #T;    1D?=?    
033134  201100 036164    MOVEI 2,36164                      0) #QT     $?<:    
033135  542100 033415    HRRM 2,33415                       L1 #<-    XD?7?    
033136  350100 033416    AOS 2,33416                        =! #<.    :??7?    
033137  303100 000322    CAILE 2,322                        89  #2    0d??i    
033140  302200 000214    CAIE 4,214                         82  ",    0H??F    
033141  301100 001460    CAIL 2,1460                        8)  ,P    0$???    
033142  254000 033146    JRST 33146                         5@ #9F    +??63    
033143  262040 000002    POP 1,2                            60@  "    ,B???    
033144  200200 033151    MOVE 4,33151                       0" #9I     ??64    
033145  254520 033123    JRST 12,@33123                     5E0#93    +??6)    
033146  201100 264000    MOVEI 2,264000                     0) 6@      $?h?    
033147  506100 033124    HRLM 2,33124                       HQ #94    QD?6*    
033150  254000 033143    JRST 33143                         5@ #9C    +??61    
033151  000000 000000                                                 ?????    
033152  710600 000003    CONO PTR,3                         Y&   #    r????    
033153  254520 033123    JRST 12,@33123                     5E0#93    +??6)    
033154  603000 040000    TLNE 0,40000                       P8 $      ``?@?    
033155  031000 276251                                       #( 7RI    ? ?|T    
033156  201140 003000    MOVEI 3,3000                       0)@ 8      &???    
033157  432140 033335    XORM 3,33335                       C1@#;=    FF?6n    
033160  667000 020000    TLON 0,20000                       VX "      m`? ?    
033161  776220 033335    CONO 760,@33335                    _R0#;=    ?I?6n    
033162  254000 030361    JRST 30361                         5@ ##Q    +??0x    
033163  602000 000004    TRNE 0,4                           P0   $    `@???    
033164  322100 033173    JUMPE 2,33173                      :1 #9[    4D?6=    
033165  603000 020000    TLNE 0,20000                       P8 "      ``? ?    
033166  031000 276751                                       #( 7WI    ? ?}t    
033167  201140 002000    MOVEI 3,2000                       0)@ 0      &???    
033170  667000 040000    TLON 0,40000                       VX $      m`?@?    
033171  260040 033317    PUSHJ 1,33317                      6 @#;/    ,??6g    
033172  254000 030361    JRST 30361                         5@ ##Q    +??0x    
033173  201700 000176    MOVEI 16,176                       0/  !^     <???    
033174  623000 040000    TLZE 0,40000                       R8 $      d`?@?    
033175  260040 033267    PUSHJ 1,33267                      6 @#:W    ,??6[    
033176  254000 030361    JRST 30361                         5@ ##Q    +??0x    
033177  261040 000003    PUSH 1,3                           6(@  #    ,"???    
033200  261040 000006    PUSH 1,6                           6(@  &    ,"???    
033201  201700 000000    MOVEI 16,0                         0/         <???    
033202  402000 033337    SETZM 33337                        @0 #;?    @@?6o    
033203  201300 000200    MOVEI 6,200                        0+  "      ,??@    
033204  242300 777777    LSH 6,777777                       43 ___    (L???    
033205  322300 033214    JUMPE 6,33214                      :3 #:,    4L?6F    
033206  260040 033244    PUSHJ 1,33244                      6 @#:D    ,??6R    
033207  321140 033236    JUMPL 3,33236                      :)@#:>    4&?6O    
033210  602140 002000    TRNE 3,2000                        P1@ 0     `F???    
033211  670700 000006    TDO 16,6                           W'   &    n????    
033212  260040 033257    PUSHJ 1,33257                      6 @#:O    ,??6W    
033213  254000 033204    JRST 33204                         5@ #:$    +??6B    
033214  260040 033244    PUSHJ 1,33244                      6 @#:D    ,??6R    
033215  325140 033237    JUMPGE 3,33237                     :I@#:?    5&?6O    
033216  260040 033257    PUSHJ 1,33257                      6 @#:O    ,??6W    
033217  260040 033244    PUSHJ 1,33244                      6 @#:D    ,??6R    
033220  321140 033241    JUMPL 3,33241                      :)@#:A    4&?6P    
033221  332000 033337    SKIPE 33337                        ;0 #;?    6@?6o    
033222  640140 003000    TRC 3,3000                         T!@ 8     h????    
033223  260040 033257    PUSHJ 1,33257                      6 @#:O    ,??6W    
033224  332000 033337    SKIPE 33337                        ;0 #;?    6@?6o    
033225  254000 033202    JRST 33202                         5@ #:"    +??6A    
033226  302700 000176    CAIE 16,176                        87  !^    0\???    
033227  254000 033314    JRST 33314                         5@ #;,    +??6f    
033230  260040 033244    PUSHJ 1,33244                      6 @#:D    ,??6R    
033231  325140 036523    JUMPGE 3,36523                     :I@#U3    5&?=)    
033232  621000 020000    TLZ 0,20000                        R( "      d ? ?    
033233  201700 000014    MOVEI 16,14                        0/   ,     <???    
033234  660000 001000    TRO 0,1000                         V   (     l????    
033235  254000 033314    JRST 33314                         5@ #;,    +??6f    
033236  201140 002000    MOVEI 3,2000                       0)@ 0      &???    
033237  476000 033337    SETOM 33337                        GP #;?    O@?6o    
033240  254000 033212    JRST 33212                         5@ #:*    +??6E    
033241  476000 033337    SETOM 33337                        GP #;?    O@?6o    
033242  201140 002000    MOVEI 3,2000                       0)@ 0      &???    
033243  254000 033216    JRST 33216                         5@ #:.    +??6G    
033244  776240 000003    CONI 760,3                         _R@  #    ?J???    
033245  405140 003000    ANDI 3,3000                        @I@ 8     A&???    
033246  430140 033336    XOR 3,33336                        C!@#;>    F??6o    
033247  322140 033244    JUMPE 3,33244                      :1@#:D    4F?6R    
033250  776240 000003    CONI 760,3                         _R@  #    ?J???    
033251  405140 003000    ANDI 3,3000                        @I@ 8     A&???    
033252  430140 033336    XOR 3,33336                        C!@#;>    F??6o    
033253  432140 033336    XORM 3,33336                       C1@#;>    FF?6o    
033254  306140 003000    CAIN 3,3000                        8Q@ 8     1F???    
033255  476000 000003    SETOM 3                            GP   #    O@???    
033256  263040 000000    POPJ 1,                            68@       ,b???    
033257  321140 033263    JUMPL 3,33263                      :)@#:S    4&?6Y    
033260  432140 033335    XORM 3,33335                       C1@#;=    FF?6n    
033261  776220 033335    CONO 760,@33335                    _R0#;=    ?I?6n    
033262  263040 000000    POPJ 1,                            68@       ,b???    
033263  201140 003000    MOVEI 3,3000                       0)@ 8      &???    
033264  432140 033335    XORM 3,33335                       C1@#;=    FF?6n    
033265  476000 000003    SETOM 3                            GP   #    O@???    
033266  254000 033261    JRST 33261                         5@ #:Q    +??6X    
033267  261040 000003    PUSH 1,3                           6(@  #    ,"???    
033270  261040 000006    PUSH 1,6                           6(@  &    ,"???    
033271  261040 000004    PUSH 1,4                           6(@  $    ,"???    
033272  402000 033337    SETZM 33337                        @0 #;?    @@?6o    
033273  201300 000200    MOVEI 6,200                        0+  "      ,??@    
033274  242300 777777    LSH 6,777777                       43 ___    (L???    
033275  322300 033303    JUMPE 6,33303                      :3 #;#    4L?6a    
033276  201140 001000    MOVEI 3,1000                       0)@ (      &???    
033277  612700 000006    TDNE 16,6                          Q7   &    b\???    
033300  201140 002000    MOVEI 3,2000                       0)@ 0      &???    
033301  260040 033317    PUSHJ 1,33317                      6 @#;/    ,??6g    
033302  254000 033274    JRST 33274                         5@ #:\    +??6^    
033303  201140 003000    MOVEI 3,3000                       0)@ 8      &???    
033304  260040 033317    PUSHJ 1,33317                      6 @#;/    ,??6g    
033305  201140 001000    MOVEI 3,1000                       0)@ (      &???    
033306  332000 033337    SKIPE 33337                        ;0 #;?    6@?6o    
033307  201140 002000    MOVEI 3,2000                       0)@ 0      &???    
033310  260040 033317    PUSHJ 1,33317                      6 @#;/    ,??6g    
033311  332000 033337    SKIPE 33337                        ;0 #;?    6@?6o    
033312  254000 033272    JRST 33272                         5@ #:Z    +??6]    
033313  262040 000004    POP 1,4                            60@  $    ,B???    
033314  262040 000006    POP 1,6                            60@  &    ,B???    
033315  262040 000003    POP 1,3                            60@  #    ,B???    
033316  263040 000000    POPJ 1,                            68@       ,b???    
033317  432140 033335    XORM 3,33335                       C1@#;=    FF?6n    
033320  776220 033335    CONO 760,@33335                    _R0#;=    ?I?6n    
033321  542140 033332    HRRM 3,33332                       L1@#;:    XF?6m    
033322  776240 000003    CONI 760,3                         _R@  #    ?J???    
033323  405140 003000    ANDI 3,3000                        @I@ 8     A&???    
033324  316140 033336    CAMN 3,33336                       9Q@#;>    3F?6o    
033325  254000 033322    JRST 33322                         5@ #;2    +??6i    
033326  776240 000003    CONI 760,3                         _R@  #    ?J???    
033327  405140 003000    ANDI 3,3000                        @I@ 8     A&???    
033330  430140 033336    XOR 3,33336                        C!@#;>    F??6o    
033331  432140 033336    XORM 3,33336                       C1@#;>    FF?6o    
033332  302140 033332    CAIE 3,33332                       81@#;:    0F?6m    
033333  476000 033337    SETOM 33337                        GP #;?    O@?6o    
033334  263040 000000    POPJ 1,                            68@       ,b???    
033340  356000 034077    AOSN 34077                         =P #@_    ;@?8?    
033341  260040 033372    PUSHJ 1,33372                      6 @#;Z    ,??6}    
033342  357000 033417    AOSG 33417                         =X #</    ;`?7?    
033343  254000 033370    JRST 33370                         5@ #;X    +??6|    
033344  201700 000020    MOVEI 16,20                        0/   0     <???    
033345  331000 033124    SKIPL 33124                        ;( #94    6 ?6*    
033346  260040 033405    PUSHJ 1,33405                      6 @#<%    ,??7?    
033347  337000 033416    SKIPG 33416                        ;X #<.    7`?7?    
033350  254000 033340    JRST 33340                         5@ #;@    +??6p    
033351  550700 033414    HRRZ 16,33414                      M' #<,    Z??7?    
033352  306700 036433    CAIN 16,36433                      8W #T;    1\?=?    
033353  201700 036164    MOVEI 16,36164                     0/ #QT     <?<:    
033354  542700 033414    HRRM 16,33414                      L7 #<,    X\?7?    
033355  370700 033416    SOS 16,33416                       ?' #<.    >??7?    
033356  331000 033417    SKIPL 33417                        ;( #</    6 ?7?    
033357  301700 001166    CAIL 16,1166                       8/  )V    0<??;    
033360  254000 033363    JRST 33363                         5@ #;S    +??6y    
033361  331000 033124    SKIPL 33124                        ;( #94    6 ?6*    
033362  260040 033404    PUSHJ 1,33404                      6 @#<$    ,??7?    
033363  134700 033414    ILDB 16,33414                      +G #<,    ???7?    
033364  306700 000177    CAIN 16,177                        8W  !_    1\???    
033365  254000 033347    JRST 33347                         5@ #;G    +??6s    
033366  322700 033347    JUMPE 16,33347                     :7 #;G    4\?6s    
033367  263040 000000    POPJ 1,                            68@       ,b???    
033370  710600 000400    CONO PTR,400                       Y&  $     r????    
033371  254000 033374    JRST 33374                         5@ #;\    +??6~    
033372  402000 033417    SETZM 33417                        @0 #</    @@?7?    
033373  710600 000000    CONO PTR,0                         Y&        r????    
033374  211700 000010    MOVNI 16,10                        1/   (    "<???    
033375  202700 033416    MOVEM 16,33416                     07 #<.     \?7?    
033376  200700 033415    MOVE 16,33415                      0' #<-     ??7?    
033377  202700 033414    MOVEM 16,33414                     07 #<,     \?7?    
033400  201700 264000    MOVEI 16,264000                    0/ 6@      <?h?    
033401  506700 033124    HRLM 16,33124                      HW #94    Q\?6*    
033402  201700 000014    MOVEI 16,14                        0/   ,     <???    
033403  263040 000000    POPJ 1,                            68@       ,b???    
033404  201700 000010    MOVEI 16,10                        0/   (     <???    
033405  212700 033420    MOVNM 16,33420                     17 #<0    "\?7?    
033406  710700 000020    CONSZ PTR,20                       Y'   0    r????    
033407  254000 033406    JRST 33406                         5@ #<&    +??7?    
033410  505700 710440    HRLI 16,710440                     HO Y$@    Q<???    
033411  502700 033124    HLLM 16,33124                      H7 #94    P\?6*    
033412  710616 000003    CONO PTR,3(16)                     Y&.  #    r?p??    
033413  263040 000000    POPJ 1,                            68@       ,b???    
033414  000700 036164                                        ' #QT    ???<:    
033415  000700 036164                                        ' #QT    ???<:    
033421  515100 777751    HRLZI 2,777751                     II __I    S$??t    
033422  334500 002423    SKIPA 12,2423                      ;E  43    7????    
033423  271500 000002    ADDI 12,2                          7-   "    .4???    
033424  316212 000000    CAMN 4,0(12)                       9R*       3HP??    
033425  312312 000001    CAME 6,1(12)                       93*  !    2LP??    
033426  253100 033423    AOBJN 2,33423                      59 #<3    *d?7?    
033427  627100 777777    TLZN 2,777777                      RY ___    ed???    
033430  263040 000000    POPJ 1,                            68@       ,b???    
033431  344100 033432    AOJA 2,33432                       <A #<:    9??7?    
033432  350001 000000    AOS 0(1)                           = !       :????    
033433  263040 000000    POPJ 1,                            68@       ,b???    
033434  334100 000003    SKIPA 2,3                          ;A   #    7????    
033435  205100 400000    MOVSI 2,400000                     0I @      !$???    
033436  205140 400000    MOVSI 3,400000                     0I@@      !&???    
033437  200440 036524    MOVE 11,36524                      0$@#U4     ??=*    
033440  260040 030223    PUSHJ 1,30223                      6 @#"3    ,??0I    
033441  306700 000175    CAIN 16,175                        8W  !]    1\??>    
033442  263040 000000    POPJ 1,                            68@       ,b???    
033443  640700 000040    TRC 16,40                          T'   @    h????    
033444  322700 033434    JUMPE 16,33434                     :7 #<<    4\?7?    
033445  306700 000077    CAIN 16,77                         8W   _    1\???    
033446  201700 000000    MOVEI 16,0                         0/         <???    
033447  312440 036525    CAME 11,36525                      94@#U5    2R?=*    
033450  136700 000011    IDPB 16,11                         +W   )    ?\???    
033451  254000 033440    JRST 33440                         5@ #<@    +??7?    
033452  200100 033466    MOVE 2,33466                       0! #<V     ??7?    
033453  200140 033467    MOVE 3,33467                       0!@#<W     ??7?    
033454  260040 002006    PUSHJ 1,2006                       6 @ 0&    ,????    
033455  030000 036526                                       #  #U6    ???=+    
033456  263040 000000    POPJ 1,                            68@       ,b???    
033457  260040 033435    PUSHJ 1,33435                      6 @#<=    ,??7?    
033460  202100 033466    MOVEM 2,33466                      01 #<V     D?7?    
033461  202140 033467    MOVEM 3,33467                      01@#<W     F?7?    
033462  260040 002006    PUSHJ 1,2006                       6 @ 0&    ,????    
033463  030000 036532                                       #  #U:    ???=-    
033464  661000 000200    TLO 0,200                          V(  "     l ??@    
033465  254000 033770    JRST 33770                         5@ #?X    +??7|    
033470  260040 033435    PUSHJ 1,33435                      6 @#<=    ,??7?    
033471  260040 002323    PUSHJ 1,2323                       6 @ 33    ,???i    
033472  254000 033770    JRST 33770                         5@ #?X    +??7|    
033473  260040 033435    PUSHJ 1,33435                      6 @#<=    ,??7?    
033474  202100 033466    MOVEM 2,33466                      01 #<V     D?7?    
033475  202140 033467    MOVEM 3,33467                      01@#<W     F?7?    
033476  260040 002044    PUSHJ 1,2044                       6 @ 0D    ,????    
033477  030000 036536                                       #  #U>    ???=/    
033500  254000 033770    JRST 33770                         5@ #?X    +??7|    
033501  606000 000002    TRNN 0,2                           PP   "    a@???    
033502  254000 002165    JRST 2165                          5@  1U    +???:    
033503  261040 002425    PUSH 1,2425                        6(@ 45    ,"???    
033504  261040 002423    PUSH 1,2423                        6(@ 43    ,"???    
033505  200100 000006    MOVE 2,6                           0!   &     ????    
033506  260040 032125    PUSHJ 1,32125                      6 @#15    ,??4*    
033507  262040 002423    POP 1,2423                         60@ 43    ,B???    
033510  260040 002165    PUSHJ 1,2165                       6 @ 1U    ,???:    
033511  262040 000002    POP 1,2                            60@  "    ,B???    
033512  260040 002246    PUSHJ 1,2246                       6 @ 2F    ,???S    
033513  254000 032130    JRST 32130                         5@ #18    +??4,    
033514  254000 033770    JRST 33770                         5@ #?X    +??7|    
033515  200640 036540    MOVE 15,36540                      0&@#U@     ??=0    
033516  200600 002423    MOVE 14,2423                       0&  43     ????    
033517  513014 000177    HLLZS 0,177(14)                    I8, !_    R``??    
033520  260040 030223    PUSHJ 1,30223                      6 @#"3    ,??0I    
033521  275700 000040    SUBI 16,40                         7O   @    /<???    
033522  322700 033520    JUMPE 16,33520                     :7 #=0    4\?7(    
033523  302700 000135    CAIE 16,135                        87  !=    0\??.    
033524  607640 770000    TLNN 15,770000                     P^@_      az?p?    
033525  254000 033770    JRST 33770                         5@ #?X    +??7|    
033526  136700 000015    IDPB 16,15                         +W   -    ?\???    
033527  254000 033520    JRST 33520                         5@ #=0    +??7(    
033530  334640 033716    SKIPA 15,33716                     ;F@#?.    7??7g    
033531  201640 027634    MOVEI 15,27634                     0.@"^<     :?/N    
033532  402000 033667    SETZM 33667                        @0 #>W    @@?7[    
033533  542640 033660    HRRM 15,33660                      L6@#>P    XZ?7X    
033534  260040 034711    PUSHJ 1,34711                      6 @#G)    ,??9d    
033535  336000 033667    SKIPN 33667                        ;P #>W    7@?7[    
033536  254000 033545    JRST 33545                         5@ #=E    +??72    
033537  200300 036541    MOVE 6,36541                       0# #UA     ??=0    
033540  201600 000005    MOVEI 14,5                         0.   %     8???    
033541  260040 033655    PUSHJ 1,33655                      6 @#>M    ,??7V    
033542  200200 002425    MOVE 4,2425                        0"  45     ????    
033543  260040 031155    PUSHJ 1,31155                      6 @#)M    ,??26    
033544  260040 033665    PUSHJ 1,33665                      6 @#>U    ,??7Z    
033545  201200 000000    MOVEI 4,0                          0*         (???    
033546  200100 002423    MOVE 2,2423                        0!  43     ????    
033547  505100 777751    HRLI 2,777751                      HI __I    Q$??t    
033550  336002 000000    SKIPN 0(2)                         ;P"       7@???    
033551  332002 000001    SKIPE 1(2)                         ;0"  !    6@???    
033552  344100 033554    AOJA 2,33554                       <A #=L    9??76    
033553  344200 033552    AOJA 4,33552                       <B #=J    9??75    
033554  253100 033550    AOBJN 2,33550                      59 #=H    *d?74    
033555  326200 033561    JUMPN 4,33561                      :R #=Q    5H?78    
033556  205300 565700    MOVSI 6,565700                     0K NO     !,?k`    
033557  201600 000003    MOVEI 14,3                         0.   #     8???    
033560  260040 033655    PUSHJ 1,33655                      6 @#>M    ,??7V    
033561  200640 036544    MOVE 15,36544                      0&@#UD     ??=2    
033562  260040 033663    PUSHJ 1,33663                      6 @#>S    ,??7Y    
033563  322200 033566    JUMPE 4,33566                      :2 #=V    4H?7;    
033564  260040 031155    PUSHJ 1,31155                      6 @#)M    ,??26    
033565  260040 033665    PUSHJ 1,33665                      6 @#>U    ,??7Z    
033566  200640 036547    MOVE 15,36547                      0&@#UG     ??=3    
033567  260040 033663    PUSHJ 1,33663                      6 @#>S    ,??7Y    
033570  515540 777750    HRLZI 13,777750                    IM@__H    S6??t    
033571  201100 000000    MOVEI 2,0                          0)         $???    
033572  200340 002423    MOVE 7,2423                        0#@ 43     ????    
033573  275340 000002    SUBI 7,2                           7K@  "    /.???    
033574  254000 033627    JRST 33627                         5@ #>7    +??7K    
033575  271340 000002    ADDI 7,2                           7+@  "    ..???    
033576  336307 000000    SKIPN 6,0(7)                       ;S'       7L8??    
033577  253540 033575    AOBJN 13,33575                     5=@#=]    *v?7>    
033600  607540 777777    TLNN 13,777777                     P]@___    av???    
033601  263040 000000    POPJ 1,                            68@       ,b???    
033602  550200 000013    HRRZ 4,13                          M"   +    Z????    
033603  336000 033667    SKIPN 33667                        ;P #>W    7@?7[    
033604  254000 033610    JRST 33610                         5@ #>(    +??7D    
033605  260040 031155    PUSHJ 1,31155                      6 @#)M    ,??26    
033606  201700 000040    MOVEI 16,40                        0/   @     <???    
033607  260060 033660    PUSHJ 1,@33660                     6 P#>P    ,??7X    
033610  270540 002423    ADD 13,2423                        7%@ 43    .????    
033611  200213 000055    MOVE 4,55(13)                      0"+  M     ?X??    
033612  135700 036550    LDB 16,36550                       +O #UH    ?<?=4    
033613  137200 036551    DPB 4,36551                        +Z #UI    ?h?=4    
033614  274540 002423    SUB 13,2423                        7E@ 43    /????    
033615  271700 000040    ADDI 16,40                         7/   @    .<???    
033616  260060 033660    PUSHJ 1,@33660                     6 P#>P    ,??7X    
033617  260040 033665    PUSHJ 1,33665                      6 @#>U    ,??7Z    
033620  607300 770000    TLNN 6,770000                      P[ _      al?p?    
033621  260040 033665    PUSHJ 1,33665                      6 @#>U    ,??7Z    
033622  603300 770000    TLNE 6,770000                      P; _      `l?p?    
033623  260040 033653    PUSHJ 1,33653                      6 @#>K    ,??7U    
033624  200307 000001    MOVE 6,1(7)                        0#'  !     ?8??    
033625  260040 033653    PUSHJ 1,33653                      6 @#>K    ,??7U    
033626  550100 000013    HRRZ 2,13                          M!   +    Z????    
033627  403200 000005    SETZB 4,5                          @:   %    @h???    
033630  200640 002424    MOVE 15,2424                       0&@ 44     ????    
033631  134700 000015    ILDB 16,15                         +G   -    ?????    
033632  306702 000000    CAIN 16,0(2)                       8W"       1\???    
033633  350000 000005    AOS 5                              =    %    :????    
033634  302700 000037    CAIE 16,37                         87   ?    0\???    
033635  254000 033631    JRST 33631                         5@ #>9    +??7L    
033636  332300 000002    SKIPE 6,2                          ;3   "    6L???    
033637  260040 033421    PUSHJ 1,33421                      6 @#<1    ,??7?    
033640  334200 000005    SKIPA 4,5                          ;B   %    7????    
033641  254000 033630    JRST 33630                         5@ #>8    +??7L    
033642  260040 031155    PUSHJ 1,31155                      6 @#)M    ,??26    
033643  213000 033667    MOVNS 33667                        18 #>W    "`?7[    
033644  335000 033667    SKIPGE 33667                       ;H #>W    7 ?7[    
033645  260040 033665    PUSHJ 1,33665                      6 @#>U    ,??7Z    
033646  335000 033667    SKIPGE 33667                       ;H #>W    7 ?7[    
033647  260040 033665    PUSHJ 1,33665                      6 @#>U    ,??7Z    
033650  331000 033667    SKIPL 33667                        ;( #>W    6 ?7[    
033651  260040 030215    PUSHJ 1,30215                      6 @#"-    ,??0F    
033652  254000 033577    JRST 33577                         5@ #=_    +??7?    
033653  261040 033662    PUSH 1,33662                       6(@#>R    ,"?7Y    
033654  201600 000006    MOVEI 14,6                         0.   &     8???    
033655  200640 036552    MOVE 15,36552                      0&@#UJ     ??=5    
033656  134700 000015    ILDB 16,15                         +G   -    ?????    
033657  271700 000040    ADDI 16,40                         7/   @    .<???    
033660  260040 033660    PUSHJ 1,33660                      6 @#>P    ,??7X    
033661  367600 033656    SOJG 14,33656                      >^ #>N    =x?7W    
033662  263040 033665    POPJ 1,33665                       68@#>U    ,b?7Z    
033663  201600 000014    MOVEI 14,14                        0.   ,     8???    
033664  260040 033656    PUSHJ 1,33656                      6 @#>N    ,??7W    
033665  201700 000011    MOVEI 16,11                        0/   )     <???    
033666  254020 033660    JRST @33660                        5@0#>P    +??7X    
033667  000000 000000                                                 ?????    
033670  261040 000006    PUSH 1,6                           6(@  &    ,"???    
033671  260040 033435    PUSHJ 1,33435                      6 @#<=    ,??7?    
033672  260040 001766    PUSHJ 1,1766                       6 @ /V    ,???{    
033673  030000 036553                                       #  #UK    ???=5    
033674  261040 000004    PUSH 1,4                           6(@  $    ,"???    
033675  261040 000005    PUSH 1,5                           6(@  %    ,"???    
033676  260040 033435    PUSHJ 1,33435                      6 @#<=    ,??7?    
033677  260040 001766    PUSHJ 1,1766                       6 @ /V    ,???{    
033700  254000 033703    JRST 33703                         5@ #?#    +??7a    
033701  312241 000000    CAME 5,0(1)                        92A       2J???    
033702  030000 036556                                       #  #UN    ???=7    
033703  262040 000012    POP 1,12                           60@  *    ,B???    
033704  202112 000000    MOVEM 2,0(12)                      01*        DP??    
033705  202152 000001    MOVEM 3,1(12)                      01J  !     FP??    
033706  262040 000002    POP 1,2                            60@  "    ,B???    
033707  262040 000006    POP 1,6                            60@  &    ,B???    
033710  606000 000002    TRNN 0,2                           PP   "    a@???    
033711  263040 000000    POPJ 1,                            68@       ,b???    
033712  270100 002423    ADD 2,2423                         7!  43    .????    
033713  137300 036562    DPB 6,36562                        +[ #UR    ?l?=9    
033714  242300 777777    LSH 6,777777                       43 ___    (L???    
033715  137300 036563    DPB 6,36563                        +[ #US    ?l?=9    
033716  263040 030666    POPJ 1,30666                       68@#&V    ,b?1[    
033717  661000 001400    TLO 0,1400                         V(  ,     l ???    
033720  260040 002110    PUSHJ 1,2110                       6 @ 1(    ,???$    
033721  030000 036564                                       #  #UT    ???=:    
033722  254000 033770    JRST 33770                         5@ #?X    +??7|    
033723  000000 000000                                                 ?????    
033724  135200 036570    LDB 4,36570                        +J #UX    ?(?=<    
033725  306200 000030    CAIN 4,30                          8R   8    1H???    
033726  254000 033740    JRST 33740                         5@ #?@    +??7p    
033727  306200 000031    CAIN 4,31                          8R   9    1H???    
033730  254000 033763    JRST 33763                         5@ #?S    +??7y    
033731  306200 000032    CAIN 4,32                          8R   :    1H???    
033732  254000 033765    JRST 33765                         5@ #?U    +??7z    
033733  201200 000004    MOVEI 4,4                          0*   $     (???    
033734  201700 000007    MOVEI 16,7                         0/   '     <???    
033735  260040 027634    PUSHJ 1,27634                      6 @"^<    ,??/N    
033736  367200 033735    SOJG 4,33735                       >Z #?=    =h?7n    
033737  254000 027564    JRST 27564                         5@ "]T    +??/:    
033740  550200 000040    HRRZ 4,40                          M"   @    Z????    
033741  505200 440700    HRLI 4,440700                      HJ D'     Q(?A`    
033742  134700 000004    ILDB 16,4                          +G   $    ?????    
033743  306700 000041    CAIN 16,41                         8W   A    1\???    
033744  254000 033761    JRST 33761                         5@ #?Q    +??7x    
033745  260040 027634    PUSHJ 1,27634                      6 @"^<    ,??/N    
033746  254000 033742    JRST 33742                         5@ #?B    +??7q    
033747  201700 027634    MOVEI 16,27634                     0/ "^<     <?/N    
033750  542700 033660    HRRM 16,33660                      L7 #>P    X\?7X    
033751  514300 000040    HRLZ 6,40                          IC   @    S????    
033752  201600 000003    MOVEI 14,3                         0.   #     8???    
033753  260040 033655    PUSHJ 1,33655                      6 @#>M    ,??7V    
033754  135700 036571    LDB 16,36571                       +O #UY    ?<?=<    
033755  263040 000000    POPJ 1,                            68@       ,b???    
033756  271700 000060    ADDI 16,60                         7/   P    .<???    
033757  260040 027634    PUSHJ 1,27634                      6 @"^<    ,??/N    
033760  263040 000000    POPJ 1,                            68@       ,b???    
033761  260040 031641    PUSHJ 1,31641                      6 @#.A    ,??3P    
033762  254000 027552    JRST 27552                         5@ "]J    +??/5    
033763  260040 033747    PUSHJ 1,33747                      6 @#?G    ,??7s    
033764  254000 031422    JRST 31422                         5@ #,2    +??3?    
033765  260040 033747    PUSHJ 1,33747                      6 @#?G    ,??7s    
033766  260040 030213    PUSHJ 1,30213                      6 @#"+    ,??0E    
033767  254120 033723    JRST 2,@33723                      5A0#?3    +??7i    
033770  200100 034057    MOVE 2,34057                       0! #@O     ??8?    
033771  303100 000003    CAILE 2,3                          89   #    0d???    
033772  263040 000000    POPJ 1,                            68@       ,b???    
033773  550100 000001    HRRZ 2,1                           M!   !    Z????    
033774  303100 035665    CAILE 2,35665                      89 #NU    0d?;Z    
033775  263040 000000    POPJ 1,                            68@       ,b???    
033776  660000 000400    TRO 0,400                          V   $     l????    
033777  260040 032122    PUSHJ 1,32122                      6 @#12    ,??4)    
034000  477600 033667    SETOB 14,33667                     G^ #>W    Ox?7[    
034001  201100 000040    MOVEI 2,40                         0)   @     $???    
034002  542100 031167    HRRM 2,31167                       L1 #)W    XD?2;    
034003  261040 031363    PUSH 1,31363                       6(@#+S    ,"?2y    
034004  201100 000020    MOVEI 2,20                         0)   0     $???    
034005  202100 031363    MOVEM 2,31363                      01 #+S     D?2y    
034006  201100 032276    MOVEI 2,32276                      0) #2^     $?4_    
034007  542100 033660    HRRM 2,33660                       L1 #>P    XD?7X    
034010  260040 032251    PUSHJ 1,32251                      6 @#2I    ,??4T    
034011  200640 002424    MOVE 15,2424                       0&@ 44     ????    
034012  201300 000031    MOVEI 6,31                         0+   9     ,???    
034013  201440 000000    MOVEI 11,0                         0,@        2???    
034014  134200 000015    ILDB 4,15                          +B   -    ?????    
034015  306200 000037    CAIN 4,37                          8R   ?    1H???    
034016  254000 034026    JRST 34026                         5@ #@6    +??8?    
034017  322200 034024    JUMPE 4,34024                      :2 #@4    4H?8?    
034020  260040 034032    PUSHJ 1,34032                      6 @#@:    ,??8?    
034021  367300 034014    SOJG 6,34014                       >[ #@,    =l?8?    
034022  260040 030215    PUSHJ 1,30215                      6 @#"-    ,??0F    
034023  254000 034012    JRST 34012                         5@ #@*    +??8?    
034024  271440 000003    ADDI 11,3                          7,@  #    .2???    
034025  254000 034021    JRST 34021                         5@ #@1    +??8?    
034026  260040 033534    PUSHJ 1,33534                      6 @#=<    ,??7.    
034027  260040 032423    PUSHJ 1,32423                      6 @#43    ,??5?    
034030  262040 031363    POP 1,31363                        60@#+S    ,B?2y    
034031  263040 000000    POPJ 1,                            68@       ,b???    
034032  322440 031156    JUMPE 11,31156                     :4@#)N    4R?27    
034033  260040 034721    PUSHJ 1,34721                      6 @#G1    ,??9h    
034034  364440 034032    SOJA 11,34032                      >D@#@:    =??8?    
034035  602000 000004    TRNE 0,4                           P0   $    `@???    
034036  254000 034042    JRST 34042                         5@ #@B    +??8?    
034037  776240 000002    CONI 760,2                         _R@  "    ?J???    
034040  242100 777767    LSH 2,777767                       41 __W    (D??{    
034041  254000 030416    JRST 30416                         5@ #$.    +??1?    
034042  242200 000011    LSH 4,11                           42   )    (H???    
034043  776204 000000    CONO 760,0(4)                      _R$       ?H ??    
034044  254000 030361    JRST 30361                         5@ ##Q    +??0x    
034104  000000 607700                                          P_     ????`    
034112  602000 000004    TRNE 0,4                           P0   $    `@???    
034113  254000 034723    JRST 34723                         5@ #G3    +??9i    
034114  476000 034455    SETOM 34455                        GP #DM    O@?9?    
034115  200700 034052    MOVE 16,34052                      0' #@J     ??8?    
034116  231700 000005    IDIVI 16,5                         3/   %    &<???    
034117  271700 036623    ADDI 16,36623                      7/ #V3    .<?=I    
034120  231700 000003    IDIVI 16,3                         3/   #    &<???    
034121  221700 000003    IMULI 16,3                         2/   #    $<???    
034122  202700 034453    MOVEM 16,34453                     07 #DK     \?9?    
034123  202700 034451    MOVEM 16,34451                     07 #DI     \?9?    
034124  402000 034454    SETZM 34454                        @0 #DL    @@?9?    
034125  201700 000060    MOVEI 16,60                        0/   P     <???    
034126  542700 031167    HRRM 16,31167                      L7 #)W    X\?2;    
034127  260040 033452    PUSHJ 1,33452                      6 @#<J    ,??7?    
034130  202100 034452    MOVEM 2,34452                      01 #DJ     D?9?    
034131  205440 000001    MOVSI 11,1                         0L@  !    !2???    
034132  200200 036572    MOVE 4,36572                       0" #UZ     ??==    
034133  202200 034450    MOVEM 4,34450                      02 #DH     H?9?    
034134  476000 034457    SETOM 34457                        GP #DO    O@?9?    
034135  402000 034456    SETZM 34456                        @0 #DN    @@?9?    
034136  621000 010000    TLZ 0,10000                        R( !      d ???    
034137  260040 034246    PUSHJ 1,34246                      6 @#BF    ,??8S    
034140  335000 034045    SKIPGE 34045                       ;H #@E    7 ?8?    
034141  254000 027564    JRST 27564                         5@ "]T    +??/:    
034142  306700 000073    CAIN 16,73                         8W   [    1\???    
034143  254000 034217    JRST 34217                         5@ #B/    +??8G    
034144  606000 040000    TRNN 0,40000                       PP $      a@?@?    
034145  254000 034161    JRST 34161                         5@ #AQ    +??88    
034146  302700 000075    CAIE 16,75                         87   ]    0\???    
034147  306700 000072    CAIN 16,72                         8W   Z    1\???    
034150  254000 034406    JRST 34406                         5@ #D&    +??9?    
034151  607000 010000    TLNN 0,10000                       PX !      a`???    
034152  603000 004000    TLNE 0,4000                        P8  @     ``???    
034153  254000 034406    JRST 34406                         5@ #D&    +??9?    
034154  623000 002000    TLZE 0,2000                        R8  0     d`???    
034155  254000 034422    JRST 34422                         5@ #D2    +??9?    
034156  316640 036573    CAMN 15,36573                      9V@#U[    3Z?==    
034157  665000 010000    TLOA 0,10000                       VH !      m ???    
034160  254000 034167    JRST 34167                         5@ #AW    +??8;    
034161  306700 000014    CAIN 16,14                         8W   ,    1\???    
034162  254000 034234    JRST 34234                         5@ #B<    +??8N    
034163  302700 000013    CAIE 16,13                         87   +    0\???    
034164  306700 000012    CAIN 16,12                         8W   *    1\???    
034165  254000 034243    JRST 34243                         5@ #BC    +??8Q    
034166  254000 034137    JRST 34137                         5@ #A?    +??8/    
034167  336000 034454    SKIPN 34454                        ;P #DL    7@?9?    
034170  254000 034137    JRST 34137                         5@ #A?    +??8/    
034171  201340 000000    MOVEI 7,0                          0+@        .???    
034172  200100 034451    MOVE 2,34451                       0! #DI     ??9?    
034173  200200 034453    MOVE 4,34453                       0" #DK     ??9?    
034174  331000 000015    SKIPL 15                           ;(   -    6 ???    
034175  334200 034452    SKIPA 4,34452                      ;B #DJ    7??9?    
034176  200100 034452    MOVE 2,34452                       0! #DJ     ??9?    
034177  200300 000002    MOVE 6,2                           0#   "     ????    
034200  270300 000004    ADD 6,4                            7#   $    .????    
034201  231300 000006    IDIVI 6,6                          3+   &    &,???    
034202  221300 000003    IMULI 6,3                          2+   #    $,???    
034203  316646 000000    CAMN 15,0(6)                       9VF       3Z0??    
034204  254000 034213    JRST 34213                         5@ #B+    +??8E    
034205  301104 777775    CAIL 2,777775(4)                   8)$__]    0$'?~    
034206  254000 034161    JRST 34161                         5@ #AQ    +??88    
034207  311646 000000    CAML 15,0(6)                       9.F       2:0??    
034210  334100 000006    SKIPA 2,6                          ;A   &    7????    
034211  200200 000006    MOVE 4,6                           0"   &     ????    
034212  254000 034177    JRST 34177                         5@ #A_    +??8?    
034213  217346 000001    MOVMS 7,1(6)                       1[F  !    #n0??    
034214  302700 000051    CAIE 16,51                         87   I    0\???    
034215  202340 034456    MOVEM 7,34456                      03@#DN     N?9?    
034216  254000 034161    JRST 34161                         5@ #AQ    +??88    
034217  260040 034223    PUSHJ 1,34223                      6 @#B3    ,??8I    
034220  302700 000015    CAIE 16,15                         87   -    0\???    
034221  254000 034217    JRST 34217                         5@ #B/    +??8G    
034222  254000 034137    JRST 34137                         5@ #A?    +??8/    
034223  260040 030630    PUSHJ 1,30630                      6 @#&8    ,??1L    
034224  622000 001000    TRZE 0,1000                        R0  (     d@???    
034225  254000 034277    JRST 34277                         5@ #B_    +??8_    
034226  302700 000015    CAIE 16,15                         87   -    0\???    
034227  336000 034454    SKIPN 34454                        ;P #DL    7@?9?    
034230  263040 000000    POPJ 1,                            68@       ,b???    
034231  136700 034450    IDPB 16,34450                      +W #DH    ?\?9?    
034232  350000 034457    AOS 34457                          =  #DO    :??9?    
034233  263040 000000    POPJ 1,                            68@       ,b???    
034234  336000 034457    SKIPN 34457                        ;P #DO    7@?9?    
034235  624000 000004    TRZA 0,4                           R@   $    e????    
034236  260040 034327    PUSHJ 1,34327                      6 @#C7    ,??8k    
034237  332000 034454    SKIPE 34454                        ;0 #DL    6@?9?    
034240  260040 034642    PUSHJ 1,34642                      6 @#FB    ,??9Q    
034241  523000 000011    HLLOS 0,11                         J8   )    T`???    
034242  344440 034132    AOJA 11,34132                      <D@#A:    9??8-    
034243  260040 034327    PUSHJ 1,34327                      6 @#C7    ,??8k    
034244  660000 000004    TRO 0,4                            V    $    l????    
034245  344440 034132    AOJA 11,34132                      <D@#A:    9??8-    
034246  200200 036574    MOVE 4,36574                       0" #U\     ??=>    
034247  201640 000000    MOVEI 15,0                         0.@        :???    
034250  630000 036575    TDZ 0,36575                        S  #U]    f??=>    
034251  260040 034223    PUSHJ 1,34223                      6 @#B3    ,??8I    
034252  302700 000100    CAIE 16,100                        87  !     0\??     
034253  306700 000041    CAIN 16,41                         8W   A    1\???    
034254  254000 034251    JRST 34251                         5@ #BI    +??8T    
034255  306700 000042    CAIN 16,42                         8W   B    1\???    
034256  254000 034271    JRST 34271                         5@ #BY    +??8\    
034257  306700 000047    CAIN 16,47                         8W   G    1\???    
034260  254000 034272    JRST 34272                         5@ #BZ    +??8]    
034261  307700 000132    CAIG 16,132                        8_  !:    1|??-    
034262  305700 000101    CAIGE 16,101                       8O  !!    1<??     
034263  254000 034317    JRST 34317                         5@ #C/    +??8g    
034264  660000 040000    TRO 0,40000                        V  $      l??@?    
034265  640700 000040    TRC 16,40                          T'   @    h????    
034266  603200 770000    TLNE 4,770000                      P: _      `h?p?    
034267  136700 000004    IDPB 16,4                          +W   $    ?\???    
034270  254000 034251    JRST 34251                         5@ #BI    +??8T    
034271  665000 002000    TLOA 0,2000                        VH  0     m ???    
034272  661000 004000    TLO 0,4000                         V(  @     l ???    
034273  602000 040000    TRNE 0,40000                       P0 $      `@?@?    
034274  254000 034251    JRST 34251                         5@ #BI    +??8T    
034275  260040 034223    PUSHJ 1,34223                      6 @#B3    ,??8I    
034276  254000 034246    JRST 34246                         5@ #BF    +??8S    
034277  274040 036576    SUB 1,36576                        7@@#U^    /??=?    
034300  332000 034454    SKIPE 34454                        ;0 #DL    6@?9?    
034301  254000 034460    JRST 34460                         5@ #DP    +??9?    
034302  476000 034454    SETOM 34454                        GP #DL    O@?9?    
034303  260040 033452    PUSHJ 1,33452                      6 @#<J    ,??7?    
034304  260040 034631    PUSHJ 1,34631                      6 @#F9    ,??9L    
034305  402000 034457    SETZM 34457                        @0 #DO    @@?9?    
034306  200100 034451    MOVE 2,34451                       0! #DI     ??9?    
034307  200200 034453    MOVE 4,34453                       0" #DK     ??9?    
034310  260040 034572    PUSHJ 1,34572                      6 @#EZ    ,??9=    
034311  200100 034451    MOVE 2,34451                       0! #DI     ??9?    
034312  315100 034453    CAMGE 2,34453                      9I #DK    3$?9?    
034313  335002 000000    SKIPGE 0(2)                        ;H"       7 ???    
034314  254000 034130    JRST 34130                         5@ #A8    +??8,    
034315  271100 000003    ADDI 2,3                           7)   #    .$???    
034316  254000 034312    JRST 34312                         5@ #C*    +??8e    
034317  307700 000071    CAIG 16,71                         8_   Y    1|???    
034320  305700 000060    CAIGE 16,60                        8O   P    1<???    
034321  306700 000056    CAIN 16,56                         8W   N    1\???    
034322  254000 034265    JRST 34265                         5@ #BU    +??8Z    
034323  302700 000045    CAIE 16,45                         87   E    0\???    
034324  306700 000044    CAIN 16,44                         8W   D    1\???    
034325  254000 034264    JRST 34264                         5@ #BT    +??8Z    
034326  263040 000000    POPJ 1,                            68@       ,b???    
034327  336000 034454    SKIPN 34454                        ;P #DL    7@?9?    
034330  263040 000000    POPJ 1,                            68@       ,b???    
034331  622000 000004    TRZE 0,4                           R0   $    d@???    
034332  260040 030215    PUSHJ 1,30215                      6 @#"-    ,??0F    
034333  201211 000001    MOVEI 4,1(11)                      0*)  !     (H??    
034334  260040 031156    PUSHJ 1,31156                      6 @#)N    ,??27    
034335  513000 034372    HLLZS 0,34372                      I8 #CZ    R`?8}    
034336  260040 033665    PUSHJ 1,33665                      6 @#>U    ,??7Z    
034337  200340 034456    MOVE 7,34456                       0#@#DN     ??9?    
034340  322340 034346    JUMPE 7,34346                      :3@#CF    4N?8s    
034341  554200 000007    HLRZ 4,7                           MB   '    [????    
034342  260040 031156    PUSHJ 1,31156                      6 @#)N    ,??27    
034343  260040 034721    PUSHJ 1,34721                      6 @#G1    ,??9h    
034344  201207 000001    MOVEI 4,1(7)                       0*'  !     (8??    
034345  260040 031156    PUSHJ 1,31156                      6 @#)N    ,??27    
034346  260040 033665    PUSHJ 1,33665                      6 @#>U    ,??7Z    
034347  375000 034457    SOSGE 34457                        ?H #DO    ? ?9?    
034350  254000 034365    JRST 34365                         5@ #CU    +??8z    
034351  200200 036572    MOVE 4,36572                       0" #UZ     ??==    
034352  202200 034450    MOVEM 4,34450                      02 #DH     H?9?    
034353  134700 034450    ILDB 16,34450                      +G #DH    ???9?    
034354  260040 030147    PUSHJ 1,30147                      6 @#!G    ,??03    
034355  350140 034372    AOS 3,34372                        =!@#CZ    :??8}    
034356  302700 000011    CAIE 16,11                         87   )    0\???    
034357  254000 034363    JRST 34363                         5@ #CS    +??8y    
034360  271140 000007    ADDI 3,7                           7)@  '    .&???    
034361  620140 000007    TRZ 3,7                            R!@  '    d????    
034362  542140 034372    HRRM 3,34372                       L1@#CZ    XF?8}    
034363  371000 034457    SOSL 34457                         ?( #DO    > ?9?    
034364  254000 034353    JRST 34353                         5@ #CK    +??8u    
034365  550200 000011    HRRZ 4,11                          M"   )    Z????    
034366  231200 000074    IDIVI 4,74                         3*   \    &(???    
034367  326240 031143    JUMPN 5,31143                      :R@#)C    5J?21    
034370  261040 000004    PUSH 1,4                           6(@  $    ,"???    
034371  201140 000105    MOVEI 3,105                        0)@ !%     &??"    
034372  275140 034372    SUBI 3,34372                       7I@#CZ    /&?8}    
034373  260040 034721    PUSHJ 1,34721                      6 @#G1    ,??9h    
034374  367140 034373    SOJG 3,34373                       >Y@#C[    =f?8}    
034375  200300 036577    MOVE 6,36577                       0# #U_     ??=?    
034376  260040 033654    PUSHJ 1,33654                      6 @#>L    ,??7V    
034377  554200 000011    HLRZ 4,11                          MB   )    [????    
034400  260040 031155    PUSHJ 1,31155                      6 @#)M    ,??26    
034401  262040 000004    POP 1,4                            60@  $    ,B???    
034402  322200 031143    JUMPE 4,31143                      :2 #)C    4H?21    
034403  201700 000056    MOVEI 16,56                        0/   N     <???    
034404  260040 030147    PUSHJ 1,30147                      6 @#!G    ,??03    
034405  254000 031155    JRST 31155                         5@ #)M    +??26    
034406  332000 034454    SKIPE 34454                        ;0 #DL    6@?9?    
034407  254000 034137    JRST 34137                         5@ #A?    +??8/    
034410  260040 034430    PUSHJ 1,34430                      6 @#D8    ,??9?    
034411  326340 034136    JUMPN 7,34136                      :S@#A>    5N?8/    
034412  212450 000001    MOVNM 11,1(10)                     14H  !    "R@??    
034413  201340 660000    MOVEI 7,660000                     0+@V       .?`?    
034414  603000 010000    TLNE 0,10000                       P8 !      ``???    
034415  201340 550000    MOVEI 7,550000                     0+@M       .?P?    
034416  623000 014000    TLZE 0,14000                       R8 !@     d`???    
034417  202350 000002    MOVEM 7,2(10)                      03H  "     N@??    
034420  627000 002000    TLZN 0,2000                        RX  0     e`???    
034421  254000 034137    JRST 34137                         5@ #A?    +??8/    
034422  332000 034454    SKIPE 34454                        ;0 #DL    6@?9?    
034423  254000 034137    JRST 34137                         5@ #A?    +??8/    
034424  260040 034430    PUSHJ 1,34430                      6 @#D8    ,??9?    
034425  201340 470000    MOVEI 7,470000                     0+@G       .?p?    
034426  202350 000002    MOVEM 7,2(10)                      03H  "     N@??    
034427  254000 034137    JRST 34137                         5@ #A?    +??8/    
034430  201340 000000    MOVEI 7,0                          0+@        .???    
034431  200400 034451    MOVE 10,34451                      0$ #DI     ??9?    
034432  311400 034453    CAML 10,34453                      9, #DK    20?9?    
034433  254000 034440    JRST 34440                         5@ #D@    +??9?    
034434  316650 000000    CAMN 15,0(10)                      9VH       3Z@??    
034435  254000 034446    JRST 34446                         5@ #DF    +??9?    
034436  271400 000003    ADDI 10,3                          7,   #    .0???    
034437  254000 034432    JRST 34432                         5@ #D:    +??9?    
034440  202650 000000    MOVEM 15,0(10)                     06H        Z@??    
034441  402010 000001    SETZM 1(10)                        @0(  !    @@@??    
034442  402010 000002    SETZM 2(10)                        @0(  "    @@@??    
034443  271400 000003    ADDI 10,3                          7,   #    .0???    
034444  250400 034453    EXCH 10,34453                      5$ #DK    *??9?    
034445  263040 000000    POPJ 1,                            68@       ,b???    
034446  217350 000001    MOVMS 7,1(10)                      1[H  !    #n@??    
034447  263040 000000    POPJ 1,                            68@       ,b???    
034460  200100 034451    MOVE 2,34451                       0! #DI     ??9?    
034461  200200 034453    MOVE 4,34453                       0" #DK     ??9?    
034462  316100 000004    CAMN 2,4                           9Q   $    3D???    
034463  254000 034557    JRST 34557                         5@ #EO    +??97    
034464  200200 034453    MOVE 4,34453                       0" #DK     ??9?    
034465  275202 777775    SUBI 4,777775(2)                   7J"__]    /(??~    
034466  200140 036600    MOVE 3,36600                       0!@#V      ??=@    
034467  301200 002073    CAIL 4,2073                        8*  0[    0(???    
034470  254000 034502    JRST 34502                         5@ #E"    +??9!    
034471  231200 000022    IDIVI 4,22                         3*   2    &(???    
034472  201144 000001    MOVEI 3,1(4)                       0)D  !     & ??    
034473  221140 010101    IMULI 3,10101                      2)@!!!    $&??     
034474  221200 010101    IMULI 4,10101                      2* !!!    $(??     
034475  504140 000003    HRL 3,3                            HA@  #    Q????    
034476  504200 000004    HRL 4,4                            HB   $    Q????    
034477  240240 000001    ASH 5,1                            4"@  !    (????    
034500  211245 777734    MOVNI 5,777734(5)                  1*E__<    "*/?n    
034501  245145 000006    ROTC 3,6(5)                        4IE  &    )&(??    
034502  201400 000074    MOVEI 10,74                        0,   \     0???    
034503  202100 034457    MOVEM 2,34457                      01 #DO     D?9?    
034504  200440 036601    MOVE 11,36601                      0$@#V!     ??=@    
034505  201340 000006    MOVEI 7,6                          0+@  &     .???    
034506  331002 000002    SKIPL 2(2)                         ;("  "    6 ???    
034507  311100 034453    CAML 2,34453                       9) #DK    2$?9?    
034510  254000 034557    JRST 34557                         5@ #EO    +??97    
034511  200302 000000    MOVE 6,0(2)                        0#"        ????    
034512  260040 033654    PUSHJ 1,33654                      6 @#>L    ,??7V    
034513  260040 034721    PUSHJ 1,34721                      6 @#G1    ,??9h    
034514  514302 000002    HRLZ 6,2(2)                        IC"  "    S????    
034515  201600 000002    MOVEI 14,2                         0.   "     8???    
034516  260040 033655    PUSHJ 1,33655                      6 @#>M    ,??7V    
034517  563002 000002    HRROS 0,2(2)                       N8"  "    \`???    
034520  336002 000001    SKIPN 1(2)                         ;P"  !    7@???    
034521  254000 034553    JRST 34553                         5@ #EK    +??95    
034522  337002 000001    SKIPG 1(2)                         ;X"  !    7`???    
034523  660000 000200    TRO 0,200                          V   "     l???@    
034524  217302 000001    MOVMS 6,1(2)                       1["  !    #l???    
034525  554200 000006    HLRZ 4,6                           MB   &    [????    
034526  260040 031156    PUSHJ 1,31156                      6 @#)N    ,??27    
034527  201700 000040    MOVEI 16,40                        0/   @     <???    
034530  622000 000200    TRZE 0,200                         R0  "     d@??@    
034531  201700 000052    MOVEI 16,52                        0/   J     <???    
034532  260040 030147    PUSHJ 1,30147                      6 @#!G    ,??03    
034533  201206 000001    MOVEI 4,1(6)                       0*&  !     (0??    
034534  260040 031156    PUSHJ 1,31156                      6 @#)N    ,??27    
034535  260040 034721    PUSHJ 1,34721                      6 @#G1    ,??9h    
034536  260040 034721    PUSHJ 1,34721                      6 @#G1    ,??9h    
034537  260040 034721    PUSHJ 1,34721                      6 @#G1    ,??9h    
034540  134200 000011    ILDB 4,11                          +B   )    ?????    
034541  221200 000003    IMULI 4,3                          2*   #    $(???    
034542  270100 000004    ADD 2,4                            7!   $    .????    
034543  367340 034506    SOJG 7,34506                       >[@#E&    =n?9#    
034544  200100 034457    MOVE 2,34457                       0! #DO     ??9?    
034545  271100 000003    ADDI 2,3                           7)   #    .$???    
034546  202100 034457    MOVEM 2,34457                      01 #DO     D?9?    
034547  260040 030215    PUSHJ 1,30215                      6 @#"-    ,??0F    
034550  367400 034504    SOJG 10,34504                      >\ #E$    =p?9"    
034551  271100 001604    ADDI 2,1604                        7)  .$    .$??B    
034552  254000 034464    JRST 34464                         5@ #DT    +??9?    
034553  200300 036602    MOVE 6,36602                       0# #V"     ??=A    
034554  260040 033654    PUSHJ 1,33654                      6 @#>L    ,??7V    
034555  260040 034721    PUSHJ 1,34721                      6 @#G1    ,??9h    
034556  254000 034535    JRST 34535                         5@ #E=    +??9.    
034557  260040 034642    PUSHJ 1,34642                      6 @#FB    ,??9Q    
034560  335000 030146    SKIPGE 30146                       ;H #!F    7 ?03    
034561  254000 027564    JRST 27564                         5@ "]T    +??/:    
034562  377000 034455    SOSG 34455                         ?X #DM    ?`?9?    
034563  254000 030361    JRST 30361                         5@ ##Q    +??0x    
034564  201100 034451    MOVEI 2,34451                      0) #DI     $?9?    
034565  311100 034453    CAML 2,34453                       9) #DK    2$?9?    
034566  254000 034302    JRST 34302                         5@ #C"    +??8a    
034567  553002 000002    HRRZS 0,2(2)                       M8"  "    Z`???    
034570  271100 000003    ADDI 2,3                           7)   #    .$???    
034571  254000 034565    JRST 34565                         5@ #EU    +??9:    
034572  205300 400000    MOVSI 6,400000                     0K @      !,???    
034573  506201 000000    HRLM 4,0(1)                        HR!       QH???    
034574  301104 777775    CAIL 2,777775(4)                   8)$__]    0$'?~    
034575  254000 034627    JRST 34627                         5@ #F7    +??9K    
034576  261040 000002    PUSH 1,2                           6(@  "    ,"???    
034577  616302 000000    TDNN 6,0(2)                        QS"       cL???    
034600  254000 034615    JRST 34615                         5@ #F-    +??9F    
034601  275200 000003    SUBI 4,3                           7J   #    /(???    
034602  612304 000000    TDNE 6,0(4)                        Q3$       bL ??    
034603  254000 034616    JRST 34616                         5@ #F.    +??9G    
034604  250302 000000    EXCH 6,0(2)                        5#"       *????    
034605  250304 000000    EXCH 6,0(4)                        5#$       *? ??    
034606  250302 000000    EXCH 6,0(2)                        5#"       *????    
034607  250302 000001    EXCH 6,1(2)                        5#"  !    *????    
034610  250304 000001    EXCH 6,1(4)                        5#$  !    *? ??    
034611  250302 000001    EXCH 6,1(2)                        5#"  !    *????    
034612  250302 000002    EXCH 6,2(2)                        5#"  "    *????    
034613  250304 000002    EXCH 6,2(4)                        5#$  "    *? ??    
034614  250302 000002    EXCH 6,2(2)                        5#"  "    *????    
034615  271100 000003    ADDI 2,3                           7)   #    .$???    
034616  312100 000004    CAME 2,4                           91   $    2D???    
034617  254000 034577    JRST 34577                         5@ #E_    +??9?    
034620  241300 777777    ROT 6,777777                       4+ ___    (,???    
034621  262040 000002    POP 1,2                            60@  "    ,B???    
034622  321300 034626    JUMPL 6,34626                      :+ #F6    4,?9K    
034623  260040 034573    PUSHJ 1,34573                      6 @#E[    ,??9=    
034624  554201 000000    HLRZ 4,0(1)                        MB!       [????    
034625  260040 034573    PUSHJ 1,34573                      6 @#E[    ,??9=    
034626  241300 000001    ROT 6,1                            4+   !    (,???    
034627  554101 000000    HLRZ 2,0(1)                        MA!       [????    
034630  263040 000000    POPJ 1,                            68@       ,b???    
034631  201100 030147    MOVEI 2,30147                      0) #!G     $?03    
034632  542100 033660    HRRM 2,33660                       L1 #>P    XD?7X    
034633  201100 260040    MOVEI 2,260040                     0) 6 @     $?`?    
034634  506100 034647    HRLM 2,34647                       HQ #FG    QD?9S    
034635  260040 034636    PUSHJ 1,34636                      6 @#F>    ,??9O    
034636  200100 033466    MOVE 2,33466                       0! #<V     ??7?    
034637  260040 034646    PUSHJ 1,34646                      6 @#FF    ,??9S    
034640  200100 033467    MOVE 2,33467                       0! #<W     ??7?    
034641  260040 034646    PUSHJ 1,34646                      6 @#FF    ,??9S    
034642  201700 000015    MOVEI 16,15                        0/   -     <???    
034643  260060 033660    PUSHJ 1,@33660                     6 P#>P    ,??7X    
034644  201700 000014    MOVEI 16,14                        0/   ,     <???    
034645  254020 033660    JRST @33660                        5@0#>P    +??7X    
034646  261040 000002    PUSH 1,2                           6(@  "    ,"???    
034647  260040 034711    PUSHJ 1,34711                      6 @#G)    ,??9d    
034650  200101 000000    MOVE 2,0(1)                        0!!        ????    
034651  201200 000004    MOVEI 4,4                          0*   $     (???    
034652  260040 030215    PUSHJ 1,30215                      6 @#"-    ,??0F    
034653  366200 034652    SOJN 4,34652                       >R #FJ    =H?9U    
034654  201540 000007    MOVEI 13,7                         0-@  '     6???    
034655  201340 000003    MOVEI 7,3                          0+@  #     .???    
034656  402000 000003    SETZM 3                            @0   #    @@???    
034657  245100 000006    ROTC 2,6                           4I   &    )$???    
034660  201440 000003    MOVEI 11,3                         0,@  #     2???    
034661  256011 034737    XCT 34737(11)                      5P)#G?    +@H9o    
034662  221140 010101    IMULI 3,10101                      2)@!!!    $&??     
034663  402000 000006    SETZM 6                            @0   &    @@???    
034664  602500 000002    TRNE 12,2                          P5   "    `T???    
034665  506140 000006    HRLM 3,6                           HQ@  &    QF???    
034666  307440 000001    CAIG 11,1                          8\@  !    1r???    
034667  254000 034672    JRST 34672                         5@ #FZ    +??9]    
034670  602500 000001    TRNE 12,1                          P5   !    `T???    
034671  542140 000006    HRRM 3,6                           L1@  &    XF???    
034672  260040 033654    PUSHJ 1,33654                      6 @#>L    ,??7V    
034673  231140 010101    IDIVI 3,10101                      3)@!!!    &&??     
034674  366440 034661    SOJN 11,34661                      >T@#FQ    =R?9X    
034675  322100 034703    JUMPE 2,34703                      :1 #G#    4D?9a    
034676  201700 000040    MOVEI 16,40                        0/   @     <???    
034677  260040 030147    PUSHJ 1,30147                      6 @#!G    ,??03    
034700  260040 030147    PUSHJ 1,30147                      6 @#!G    ,??03    
034701  260040 030147    PUSHJ 1,30147                      6 @#!G    ,??03    
034702  254000 034656    JRST 34656                         5@ #FN    +??9W    
034703  200101 000000    MOVE 2,0(1)                        0!!        ????    
034704  260040 030215    PUSHJ 1,30215                      6 @#"-    ,??0F    
034705  366340 034656    SOJN 7,34656                       >S@#FN    =N?9W    
034706  366540 034655    SOJN 13,34655                      >U@#FM    =V?9V    
034707  262040 000002    POP 1,2                            60@  "    ,B???    
034710  263040 000000    POPJ 1,                            68@       ,b???    
034711  260040 030215    PUSHJ 1,30215                      6 @#"-    ,??0F    
034712  200300 002423    MOVE 6,2423                        0#  43     ????    
034713  200306 000177    MOVE 6,177(6)                      0#& !_     ?0??    
034714  316300 036603    CAMN 6,36603                       9S #V#    3L?=A    
034715  254000 030215    JRST 30215                         5@ #"-    +??0F    
034716  242300 000022    LSH 6,22                           43   2    (L???    
034717  260040 033654    PUSHJ 1,33654                      6 @#>L    ,??7V    
034720  254000 030215    JRST 30215                         5@ #"-    +??0F    
034721  201700 000040    MOVEI 16,40                        0/   @     <???    
034722  254020 033660    JRST @33660                        5@0#>P    +??7X    
034723  202200 034455    MOVEM 4,34455                      02 #DM     H?9?    
034724  327200 034115    JUMPG 4,34115                      :Z #A-    5h?8&    
034725  201700 030147    MOVEI 16,30147                     0/ #!G     <?03    
034726  542700 033660    HRRM 16,33660                      L7 #>P    X\?7X    
034727  201700 255000    MOVEI 16,255000                    0/ 5H      <?Z?    
034730  506700 034647    HRLM 16,34647                      HW #FG    Q\?9S    
034731  260040 033435    PUSHJ 1,33435                      6 @#<=    ,??7?    
034732  261040 000003    PUSH 1,3                           6(@  #    ,"???    
034733  260040 034646    PUSHJ 1,34646                      6 @#FF    ,??9S    
034734  262040 000002    POP 1,2                            60@  "    ,B???    
034735  260040 034646    PUSHJ 1,34646                      6 @#FF    ,??9S    
034736  260040 034642    PUSHJ 1,34642                      6 @#FB    ,??9Q    
034737  254000 030361    JRST 30361                         5@ ##Q    +??0x    
034740  135513 034742    LDB 12,34742(13)                   +M+#GB    ?4X9q    
034741  135513 034751    LDB 12,34751(13)                   +M+#GI    ?4X9t    
034742  135513 034760    LDB 12,34760(13)                   +M+#GP    ?4X9x    
034743  000203 034770                                        "##GX    ???9|    
034744  050203 034770                                       %"##GX    ???9|    
034745  120203 034770                                       *"##GX    ???9|    
034746  170203 034770    FDV 4,34770(3)                     /"##GX    ???9|    
034747  240203 034770    ASH 4,34770(3)                     4"##GX    (??9|    
034750  310203 034770    CAM 4,34770(3)                     9"##GX    2??9|    
034751  360203 034770    SOJ 4,34770(3)                     >"##GX    <??9|    
034752  020203 034770                                       ""##GX    ???9|    
034753  070203 034770                                       '"##GX    ???9|    
034754  140203 034770    FAD 4,34770(3)                     ,"##GX    ???9|    
034755  210203 034770    MOVN 4,34770(3)                    1"##GX    "??9|    
034756  260203 034770    PUSHJ 4,34770(3)                   6"##GX    ,??9|    
034757  330203 034770    SKIP 4,34770(3)                    ;"##GX    6??9|    
034760  400203 034770    SETZ 4,34770(3)                    @"##GX    @??9|    
034761  040203 034770                                       $"##GX    ???9|    
034762  110203 034770                                       )"##GX    ???9|    
034763  160203 034770    FMP 4,34770(3)                     ."##GX    ???9|    
034764  230203 034770    IDIV 4,34770(3)                    3"##GX    &??9|    
034765  300203 034770    CAI 4,34770(3)                     8"##GX    0??9|    
034766  350203 034770    AOS 4,34770(3)                     ="##GX    :??9|    
034767  420203 034770    ANDCM 4,34770(3)                   B"##GX    D??9|    
034770  000000 000000                                                 ?????    
034771  102041 020010                                       (0A" (    ?B? ?    
034772  245120 000000    ROTC 2,@0                          4I0       )%???    
034773  245372 575224    ROTC 7,@575224(12)                 4KZOJ4    )/UzJ    
034774  107643 427610                                       (^CB^(    ?z?/D    
034775  754421 042306    BLKI 544,@42306(1)                 ]D1$3&    {??Dc    
034776  105042 126232                                       (HB*R:    ?"?,M    
034777  102040 000000                                       (0@       ?B???    
035000  042102 040404                                       $1"$$$    ?D?A?    
035001  202020 410420    MOVEM 0,@410420                    000A$0     A???    
035002  012566 672500                                       !5VW5     ?W6u     
035003  000046 620000                                         FR      ??6 ?    
035004  000000 060420                                          &$0    ???a?    
035005  000003 400000                                         #@      ?????    
035006  000000 001430                                           ,8    ?????    
035007  000421 042000                                        $1$0     ???D?    
035010  350635 346134    AOS 14,@346134(15)                 =&=<Q<    :?kL.    
035011  106041 020434                                       (PA"$<    ?B?!?    
035012  350410 421076    AOS 10,421076(10)                  =$(B(^    :?D"?    
035013  350411 406134    AOS 10,406134(11)                  =$)@Q<    :?L?.    
035014  043127 610204                                       $97Q"$    ?e>?B    
035015  770360 206134    CONSO 700,@206134                  _#P0Q<    ~???.    
035016  350607 506134    AOS 14,506134(7)                   =&'HQ<    :?=?.    
035017  760421 042040    BLKI 604,@42040(1)                 ^$1$0@    |??D?    
035020  350564 306134    AOS 13,@306134(4)                  =%T8Q<    :?#?.    
035021  350613 606134    AOS 14,606134(13)                  =&+PQ<    :?^?.    
035022  006140 061400                                        Q@&,     ?F?c?    
035023  006140 060420                                        Q@&$0    ?F?a?    
035024  001042 020200                                        (B""     ?"? @    
035025  000370 174000                                        #X/@     ??Ax?    
035026  004040 421000                                        @@B(     ???"?    
035027  350421 020010    AOS 10,@20010(1)                   =$1" (    :?? ?    
035030  007335 355600                                        [==N     ?mk[@    
035031  350617 706142    AOS 14,706142(17)                  =&/XQB    :???1    
035032  750617 506174    CONO 504,506174(17)                ]&/HQ\    z?}?>    
035033  350604 102134    AOS 14,102134(4)                   =&$(1<    :?!?.    
035034  750614 306174    CONO 504,306174(14)                ]&,8Q\    z?c?>    
035035  770207 502076    CONO 700,502076(7)                 _"'H0^    ~?=??    
035036  770207 502040    CONO 700,502040(7)                 _"'H0@    ~?=??    
035037  350604 116134    AOS 14,116134(4)                   =&$)Q<    :?!?.    
035040  430617 706142    XOR 14,706142(17)                  C&/XQB    F???1    
035041  342041 020434    AOJE 1,20434(1)                    <0A"$<    8B?!?    
035042  160410 206134    FMP 10,206134(10)                  .$(0Q<    ??B?.    
035043  431247 112142    XORI 5,112142(7)                   C*G)1B    F*9?1    
035044  410204 102076    ANDCA 4,102076(4)                  A"$(0^    B?!??    
035045  435654 306142    IORI 15,306142(14)                 CNL8QB    G:c?1    
035046  430715 316142    XOR 16,316142(15)                  C'-9QB    F?k?1    
035047  350614 306134    AOS 14,306134(14)                  =&,8Q<    :?c?.    
035050  750617 502040    CONO 504,502040(17)                ]&/H0@    z?}??    
035051  350614 326336    AOS 14,326336(14)                  =&,:S>    :?c,o    
035052  750617 506142    CONO 504,506142(17)                ]&/HQB    z?}?1    
035053  350603 406134    AOS 14,406134(3)                   =&#@Q<    :???.    
035054  762041 020410    DATAI 620,20410(1)                 ^0A"$(    |B?!?    
035055  430614 306134    XOR 14,306134(14)                  C&,8Q<    F?c?.    
035056  430614 305210    XOR 14,305210(14)                  C&,8J(    F?c?D    
035057  430614 306524    XOR 14,306524(14)                  C&,8U4    F?c?*    
035060  430521 052142    XOR 12,@52142(1)                   C%1%1B    F??T1    
035061  430521 020410    XOR 12,@20410(1)                   C%1"$(    F??!?    
035062  761043 421076    DATAI 610,421076(3)                ^(CB(^    |"?"?    
035063  142041 020414    FADM 1,20414(1)                    ,0A"$,    ?B?!?    
035064  010101 010100                                       !!!!!     ????     
035065  302041 020430    CAIE 1,20430(1)                    80A"$8    0B?!?    
035066  107251 020410                                       (ZI"$(    ?jH!?    
035067  002107 640400                                        1'T$     ?D>A?    
035070  200100 034074    MOVE 2,34074                       0! #@\     ??8?    
035071  561140 030634    HRROI 3,30634                      N)@#&<    \&?1N    
035072  201140 032136    MOVEI 3,32136                      0)@#1>     &?4/    
035073  201140 032024    MOVEI 3,32024                      0)@#04     &?4?    
035074  201140 031203    MOVEI 3,31203                      0)@#*#     &?2A    
035075  621000 000020    TLZ 0,20                           R(   0    d ???    
035076  201140 031354    MOVEI 3,31354                      0)@#+L     &?2v    
035077  201140 031616    MOVEI 3,31616                      0)@#..     &?3G    
035100  561140 030634    HRROI 3,30634                      N)@#&<    \&?1N    
035101  561140 030634    HRROI 3,30634                      N)@#&<    \&?1N    
035102  201140 030361    MOVEI 3,30361                      0)@##Q     &?0x    
035103  561140 030634    HRROI 3,30634                      N)@#&<    \&?1N    
035104  561140 030634    HRROI 3,30634                      N)@#&<    \&?1N    
035105  201140 030361    MOVEI 3,30361                      0)@##Q     &?0x    
035106  201140 031573    MOVEI 3,31573                      0)@#-[     &?3=    
035107  201140 034112    MOVEI 3,34112                      0)@#A*     &?8%    
035110  561140 030634    HRROI 3,30634                      N)@#&<    \&?1N    
035111  661000 000200    TLO 0,200                          V(  "     l ??@    
035112  621000 001000    TLZ 0,1000                         R(  (     d ???    
035113  621000 000200    TLZ 0,200                          R(  "     d ??@    
035114  661000 001000    TLO 0,1000                         V(  (     l ???    
035115  561140 033776    HRROI 3,33776                      N)@#?^    \&?7?    
035116  621000 000400    TLZ 0,400                          R(  $     d ???    
035117  661000 000400    TLO 0,400                          V(  $     l ???    
035120  200100 036611    MOVE 2,36611                       0! #V)     ??=D    
035121  200100 036612    MOVE 2,36612                       0! #V*     ??=E    
035122  561140 031651    HRROI 3,31651                      N)@#.I    \&?3T    
035123  561140 030634    HRROI 3,30634                      N)@#&<    \&?1N    
035124  201140 034035    MOVEI 3,34035                      0)@#@=     &?8?    
035125  201140 033154    MOVEI 3,33154                      0)@#9L     &?66    
035126  201140 031435    MOVEI 3,31435                      0)@#,=     &?3?    
035127  201140 033163    MOVEI 3,33163                      0)@#9S     &?69    
035130  201140 030365    MOVEI 3,30365                      0)@##U     &?0z    
035131  201140 031237    MOVEI 3,31237                      0)@#*?     &?2O    
035132  201140 031207    MOVEI 3,31207                      0)@#*'     &?2C    
035133  201140 030430    MOVEI 3,30430                      0)@#$8     &?1?    
035134  561140 030634    HRROI 3,30634                      N)@#&<    \&?1N    
035135  201140 031352    MOVEI 3,31352                      0)@#+J     &?2u    
035136  201140 030426    MOVEI 3,30426                      0)@#$6     &?1?    
035137  201140 030361    MOVEI 3,30361                      0)@##Q     &?0x    
035140  201140 030445    MOVEI 3,30445                      0)@#$E     &?1?    
035141  201140 030454    MOVEI 3,30454                      0)@#$L     &?1?    
035142  201140 030434    MOVEI 3,30434                      0)@#$<     &?1?    
035143  201140 030365    MOVEI 3,30365                      0)@##U     &?0z    
035144  201140 030421    MOVEI 3,30421                      0)@#$1     &?1?    
035145  201140 030432    MOVEI 3,30432                      0)@#$:     &?1?    
035146  254000 030501    JRST 30501                         5@ #%!    +??1     
035147  201140 030436    MOVEI 3,30436                      0)@#$>     &?1?    
035150  254000 030407    JRST 30407                         5@ #$'    +??1?    
035151  254000 030407    JRST 30407                         5@ #$'    +??1?    
035152  254000 030407    JRST 30407                         5@ #$'    +??1?    
035153  254000 030407    JRST 30407                         5@ #$'    +??1?    
035154  254000 030407    JRST 30407                         5@ #$'    +??1?    
035155  254000 030407    JRST 30407                         5@ #$'    +??1?    
035156  254000 030407    JRST 30407                         5@ #$'    +??1?    
035157  254000 030407    JRST 30407                         5@ #$'    +??1?    
035160  254000 030407    JRST 30407                         5@ #$'    +??1?    
035161  254000 030407    JRST 30407                         5@ #$'    +??1?    
035162  660000 000100    TRO 0,100                          V   !     l???     
035163  201140 031537    MOVEI 3,31537                      0)@#-?     &?3/    
035164  201140 031575    MOVEI 3,31575                      0)@#-]     &?3>    
035165  561140 031175    HRROI 3,31175                      N)@#)]    \&?2>    
035166  201140 031557    MOVEI 3,31557                      0)@#-O     &?37    
035167  201140 031440    MOVEI 3,31440                      0)@#,@     &?3?    
035170  561140 030634    HRROI 3,30634                      N)@#&<    \&?1N    
035171  201140 030506    MOVEI 3,30506                      0)@#%&     &?1#    
035172  201100 000000    MOVEI 2,0                          0)         $???    
035173  201140 030572    MOVEI 3,30572                      0)@#%Z     &?1=    
035174  201140 030613    MOVEI 3,30613                      0)@#&+     &?1E    
035175  561140 032067    HRROI 3,32067                      N)@#0W    \&?4?    
035176  561140 030624    HRROI 3,30624                      N)@#&4    \&?1J    
035177  201140 031771    MOVEI 3,31771                      0)@#/Y     &?3|    
035200  201140 030440    MOVEI 3,30440                      0)@#$@     &?1?    
035201  561140 030635    HRROI 3,30635                      N)@#&=    \&?1N    
035202  201140 030577    MOVEI 3,30577                      0)@#%_     &?1?    
035203  201140 030606    MOVEI 3,30606                      0)@#&&     &?1C    
035204  201140 031610    MOVEI 3,31610                      0)@#.(     &?3D    
035205  254000 031656    JRST 31656                         5@ #.N    +??3W    
035206  201140 030701    MOVEI 3,30701                      0)@#'!     &?1`    
035207  201140 031265    MOVEI 3,31265                      0)@#*U     &?2Z    
035210  561140 031123    HRROI 3,31123                      N)@#)3    \&?2)    
035211  201140 031112    MOVEI 3,31112                      0)@#)*     &?2%    
035212  201140 030570    MOVEI 3,30570                      0)@#%X     &?1<    
035213  201140 030702    MOVEI 3,30702                      0)@#'"     &?1a    
035214  561140 031063    HRROI 3,31063                      N)@#(S    \&?2?    
035215  201140 031105    MOVEI 3,31105                      0)@#)%     &?2"    
035216  201140 031364    MOVEI 3,31364                      0)@#+T     &?2z    
035217  201140 030361    MOVEI 3,30361                      0)@##Q     &?0x    
035220  201140 031725    MOVEI 3,31725                      0)@#/5     &?3j    
035221  561140 030522    HRROI 3,30522                      N)@#%2    \&?1)    
035222  201140 030442    MOVEI 3,30442                      0)@#$B     &?1?    
035223  201140 031532    MOVEI 3,31532                      0)@#-:     &?3-    
035224  201140 031445    MOVEI 3,31445                      0)@#,E     &?3?    
035225  201140 031531    MOVEI 3,31531                      0)@#-9     &?3,    
035226  660000 000020    TRO 0,20                           V    0    l????    
035227  201140 030700    MOVEI 3,30700                      0)@#'      &?1`    
035230  561140 030634    HRROI 3,30634                      N)@#&<    \&?1N    
035231  031000 212421                                       #( 141    ? ???    
035232  561140 030634    HRROI 3,30634                      N)@#&<    \&?1N    
035233  561140 030634    HRROI 3,30634                      N)@#&<    \&?1N    
035234  561140 030634    HRROI 3,30634                      N)@#&<    \&?1N    
035235  561140 030634    HRROI 3,30634                      N)@#&<    \&?1N    
035236  561140 030634    HRROI 3,30634                      N)@#&<    \&?1N    
035237  561140 030634    HRROI 3,30634                      N)@#&<    \&?1N    
035240  561140 030634    HRROI 3,30634                      N)@#&<    \&?1N    
035241  561140 030634    HRROI 3,30634                      N)@#&<    \&?1N    
035242  561140 030634    HRROI 3,30634                      N)@#&<    \&?1N    
035243  561140 030634    HRROI 3,30634                      N)@#&<    \&?1N    
035244  561140 030634    HRROI 3,30634                      N)@#&<    \&?1N    
035245  561140 030634    HRROI 3,30634                      N)@#&<    \&?1N    
035246  561140 030634    HRROI 3,30634                      N)@#&<    \&?1N    
035247  561140 030634    HRROI 3,30634                      N)@#&<    \&?1N    
035250  561140 030634    HRROI 3,30634                      N)@#&<    \&?1N    
035251  561140 030634    HRROI 3,30634                      N)@#&<    \&?1N    
035252  561140 030634    HRROI 3,30634                      N)@#&<    \&?1N    
035253  561140 030634    HRROI 3,30634                      N)@#&<    \&?1N    
035254  561140 030634    HRROI 3,30634                      N)@#&<    \&?1N    
035255  561140 030634    HRROI 3,30634                      N)@#&<    \&?1N    
035256  561140 030634    HRROI 3,30634                      N)@#&<    \&?1N    
035257  561140 030634    HRROI 3,30634                      N)@#&<    \&?1N    
035260  561140 030634    HRROI 3,30634                      N)@#&<    \&?1N    
035261  561140 030634    HRROI 3,30634                      N)@#&<    \&?1N    
035262  561140 030634    HRROI 3,30634                      N)@#&<    \&?1N    
035263  561140 030634    HRROI 3,30634                      N)@#&<    \&?1N    
035264  561140 030634    HRROI 3,30634                      N)@#&<    \&?1N    
035265  254000 027576    JRST 27576                         5@ "]^    +??/?    
035266  254000 027576    JRST 27576                         5@ "]^    +??/?    
035267  561140 030634    HRROI 3,30634                      N)@#&<    \&?1N    
036435  777600 035662    CONO 774,35662                     _^ #NR    ?x?;Y    
036436  777700 035415    CONSZ 774,35415                    __ #L-    ?|?;?    
036437  010700 030101                                       !' #!!    ???0     
036440  010700 030141                                       !' #!A    ???00    
036441  522032 042500    HLLOM 0,@42500(12)                 J0:$5     TAPE     
036442  432531 446102    XORM 12,@446102(11)                C59DQ"    FULL!    
036443  035330 035331                                       #K8#K9    ?-@:l    
036444  170700 036613    FDV 16,36613                       /' #V+    ???=E    
036445  260700 036613    PUSHJ 16,36613                     6' #V+    ,??=E    
036446  000700 036612                                        ' #V*    ???=E    
036447  340200 030400    AOJ 4,30400                        <" #$     8??1?    
036450  000001 000001                                         !  !    ?????    
036451  264040 031053    JSR 1,31053                        6@@#(K    -??2?    
036452  254000 031246    JRST 31246                         5@ #*F    +??2S    
036453  777775 031166    CONSO 774,@31166(15)               __]#)V    ??h2;    
036454  000700 035305                                        ' #K%    ???:b    
036455  262740 000000    POP 17,0                           67@       ,^???    
036456  000003 000003                                         #  #    ?????    
036457  440700 777760    ANDCB 16,777760                    D' __P    H???x    
036460  526351 152100    HRLOM 7,152100(11)                 JSI-1     UNIT     
036461  526350 141230    HRLOM 7,141230(10)                 JSH,*8    UNABL    
036462  424321 220400    SETA 6,@220400(1)                  BC12$     E??!?    
036463  412030 420210    ANDCAM 0,@420210(10)               A08B"(    BAD D    
036464  446450 541650    EQVM 11,541650(10)                 DTHL.H    IRECT    
036465  476453 106424    SETOM 11,106424(13)                GTK(T4    ORY??    
036466  204000 000000    MOVS 0,0                           0@        !????    
036467  522371 720232    HLLOM 7,@720232(11)                J3YZ":    TOO M    
036470  406353 120210    ANDM 7,120210(13)                  @SK*"(    ANY D    
036471  446450 541650    EQVM 11,541650(10)                 DTHL.H    IRECT    
036472  476451 142646    SETOM 11,142646(11)                GTI,6F    ORIES    
036473  064244 100000                                       &BD(      ??!??    
036474  221700 060000    IMULI 16,60000                     2/ &      $<?`?    
036475  040200 031363                                       $" #+S    ???2y    
036476  000300 034100                                        # #A     ???8     
036477  000002 035270                                         "#JX    ???:\    
036500  300600 032543    CAI 14,32543                       8& #5C    0??51    
036501  254000 032535    JRST 32535                         5@ #5=    +??5.    
036502  300600 032611    CAI 14,32611                       8& #6)    0??5D    
036503  360600 032611    SOJ 14,32611                       >& #6)    <??5D    
036504  272120 000013    ADDM 2,@13                         710  +    .E???    
036505  254000 032607    JRST 32607                         5@ #6'    +??5C    
036506  516511 751202    HRLZM 12,751202(11)                IU)]*"    STORA    
036507  436124 041602    IORM 2,@41602(4)                   CQ4$."    GE CA    
036510  502030 344650    HLLM 0,@344650(10)                 H08<FH    PACIT    
036511  545010 554206    HLRI 0,554206(10)                  LH(MB&    Y EXC    
036512  426130 442610    SETAM 2,@442610(10)                BQ8D6(    EEDED    
036513  064244 100000                                       &BD(      ??!??    
036514  777734 035616    CONSZ 774,@35616(14)               __<#N.    ?}`;G    
036515  436064 042644    IORM 1,@42644(4)                   CPT$6D    GC ER    
036516  512372 206424    HLLZM 7,@206424(12)                I3Z0T4    ROR??    
036517  204000 000000    MOVS 0,0                           0@        !????    
036520  221411 000000    IMULI 10,0(11)                     2,)       $0H??    
036521  360611 000000    SOJ 14,0(11)                       >&)       <?H??    
036522  777600 035663    CONO 774,35663                     _^ #NS    ?x?;Y    
036523  031000 275472                                       #( 7LZ    ? ?{?    
036524  000600 000002                                        &   "    ?????    
036525  000600 000003                                        &   #    ?????    
036526  432231 442500    XORM 4,@442500(11)                 C29D5     FILE     
036527  472372 420214    ORCBM 7,@420214(12)                G3ZB",    NOT F    
036530  476531 642032    SETOM 12,@642032(11)               GU9T0:    OUND?    
036531  051020 000000                                       %(0       ?!???    
036532  432231 442500    XORM 4,@442500(11)                 C29D5     FILE     
036533  472372 420214    ORCBM 7,@420214(12)                G3ZB",    NOT F    
036534  476531 642032    SETOM 12,@642032(11)               GU9T0:    OUND?    
036535  051020 000000                                       %(0       ?!???    
036536  522032 042500    HLLOM 0,@42500(12)                 J0:$5     TAPE     
036537  432531 446102    XORM 12,@446102(11)                C59DQ"    FULL!    
036540  220614 000177    IMUL 14,177(14)                    2&, !_    $?`??    
036541  644160 450000    TRCA 3,@450000                     TAPE      i??P?    
036542  466245 450046    ORCMM 5,450046(5)                  FREE F    MJ,P?    
036543  515445 630000    HRLZI 11,630000(5)                 ILES      S2.0?    
036544  000600 036541                                        & #UA    ???=0    
036545  466245 450042    ORCMM 5,450042(5)                  FREE B    MJ,P?    
036546  545743 536300    HLRI 17,536300(3)                  LOCKS     Y>?<`    
036547  000600 036544                                        & #UD    ???=2    
036550  000113 000104                                        !+ !$    ??X?"    
036551  010100 000016                                       !!   .    ?????    
036552  000600 000005                                        &   %    ?????    
036553  472372 420214    ORCBM 7,@420214(12)                G3ZB",    NOT F    
036554  476531 642032    SETOM 12,@642032(11)               GU9T0:    OUND?    
036555  051020 000000                                       %(0       ?!???    
036556  406312 242602    ANDM 6,242602(12)                  @S*46"    ALREA    
036557  422624 042660    ANDCMM 14,@42660(4)                B64$6P    DY EX    
036560  446472 451432    EQVM 11,@451432(12)                DTZE,:    ISTS?    
036561  051020 000000                                       %(0       ?!???    
036562  000102 000104                                        !" !$    ????"    
036563  000102 000055                                        !"  M    ?????    
036564  472364 043244    ORCBM 7,@43244(4)                  G3T$:D    NO FR    
036565  426124 043222    SETAM 2,@43222(4)                  BQ4$:2    EE FI    
036566  462132 306424    SETCMM 2,@306424(12)               F1:8T4    LES??    
036567  204000 000000    MOVS 0,0                           0@        !????    
036570  331100 000040    SKIPL 2,40                         ;)   @    6$???    
036571  270400 000040    ADD 10,40                          7$   @    .????    
036572  440700 035270    ANDCB 16,35270                     D' #JX    H??:\    
036573  444546 515645    EQV 13,515645(6)                   DEFINE    I?5?R    
036574  440600 000015    ANDCB 14,15                        D&   -    H????    
036575  006000 040000                                        P $      ?@?@?    
036576  000002 000002                                         "  "    ?????    
036577  006041 474500                                        PAGE     ?B?y     
036600  747474 747474    DATAI 474,@747474(14)              \\\\\\    ysgO?    
036601  440600 000003    ANDCB 14,3                         D&   #    H????    
036602  006556 444546                                        UNDEF    ?VtI3    
036603  777777 777777    CONSO 774,@777777(17)              ______    ?????    
776000  205340 740000    MOVSI 7,740000                     0K@\      !.?@?    
776001  335000 000005    SKIPGE 5                           ;H   %    7 ???    
776002  205140 400000    MOVSI 3,400000                     0I@@      !&???    
776003  200200 777144    MOVE 4,777144                      0" _YD     ??~2    
776004  202210 776574    MOVEM 4,776574(10)                 02(_U\     HG}>    
776005  134210 776574    ILDB 4,776574(10)                  +B(_U\    ??G}>    
776006  202200 776023    MOVEM 4,776023                     02 _P3     H?|?    
776007  254000 776023    JRST 776023                        5@ _P3    +??|?    
776010  616342 000000    TDNN 7,0(2)                        QSB       cN???    
776011  661300 100000    TLO 6,100000                       V+ (      l,???    
776012  331000 000002    SKIPL 2                            ;(   "    6 ???    
776013  200120 773777    MOVE 2,@773777                     0!0_?_     ??w?    
776014  316110 776576    CAMN 2,776576(10)                  9Q(_U^    3DG}?    
776015  625300 777777    TLZA 6,777777                      RK ___    e,???    
776016  270100 777123    ADD 2,777123                       7! _Y3    .??~)    
776017  604000 000000    TRNA                               P@        a????    
776020  260040 773202    PUSHJ 1,773202                     6 @_:"    ,??vA    
776021  713300 000200    CONSZ DIS,200                      Y;  "     rl??@    
776022  254000 776041    JRST 776041                        5@ _PA    +??|?    
776023  316110 776576    CAMN 2,776576(10)                  9Q(_U^    3DG}?    
776024  254000 776044    JRST 776044                        5@ _PD    +??|?    
776025  311242 000001    CAML 5,1(2)                        9*B  !    2*???    
776026  311142 000001    CAML 3,1(2)                        9)B  !    2&???    
776027  254000 776016    JRST 776016                        5@ _P.    +??|?    
776030  554200 000006    HLRZ 4,6                           MB   &    [????    
776031  617202 000000    TSNN 4,0(2)                        QZ"       ch???    
776032  616342 000000    TDNN 7,0(2)                        QSB       cN???    
776033  254000 776016    JRST 776016                        5@ _P.    +??|?    
776034  540300 000002    HRR 6,2                            L#   "    X????    
776035  316242 000001    CAMN 5,1(2)                        9RB  !    3J???    
776036  254000 776430    JRST 776430                        5@ _T8    +??}?    
776037  200142 000001    MOVE 3,1(2)                        0!B  !     ????    
776040  254000 776016    JRST 776016                        5@ _P.    +??|?    
776041  713100 773030    BLKO DIS,773030                    Y9 _88    rd?v?    
776042  260040 773224    PUSHJ 1,773224                     6 @_:4    ,??vJ    
776043  254000 776023    JRST 776023                        5@ _P3    +??|?    
776044  350210 776574    AOS 4,776574(10)                   ="(_U\    :?G}>    
776045  256004 000000    XCT 0(4)                           5P$       +@ ??    
776046  254000 776005    JRST 776005                        5@ _P%    +??|?    
776047  202250 776574    MOVEM 5,776574(10)                 02H_U\     JG}>    
776050  602300 777777    TRNE 6,777777                      P3 ___    `L???    
776051  274240 000003    SUB 5,3                            7B@  #    /????    
776052  254000 774701    JRST 774701                        5@ _G!    +??y`    
776053  202250 776573    MOVEM 5,776573(10)                 02H_U[     JG}=    
776054  606000 002000    TRNN 0,2000                        PP  0     a@???    
776055  254020 776713    JRST @776713                       5@0_W+    +??}e    
776056  602000 000400    TRNE 0,400                         P0  $     `@???    
776057  254000 776405    JRST 776405                        5@ _T%    +??}?    
776060  620000 000200    TRZ 0,200                          R   "     d???@    
776061  641240 700000    TLC 5,700000                       T*@X      h*???    
776062  647240 700000    TLCN 5,700000                      TZ@X      ij???    
776063  254000 776160    JRST 776160                        5@ _QP    +??|8    
776064  260040 774212    PUSHJ 1,774212                     6 @_B*    ,??xE    
776065  205240 777000    MOVSI 5,777000                     0J@_X     !*?~?    
776066  404250 776573    AND 5,776573(10)                   @BH_U[    A?G}=    
776067  322240 776075    JUMPE 5,776075                     :2@_P]    4J?|?    
776070  606000 000010    TRNN 0,10                          PP   (    a@???    
776071  260040 775774    PUSHJ 1,775774                     6 @_O\    ,??{~    
776072  664000 000200    TROA 0,200                         V@  "     m???@    
776073  254000 776123    JRST 776123                        5@ _Q3    +??|)    
776074  260040 773331    PUSHJ 1,773331                     6 @_;9    ,??vl    
776075  135240 777145    LDB 5,777145                       +J@_YE    ?*?~2    
776076  322240 776101    JUMPE 5,776101                     :2@_Q!    4J?|     
776077  260040 776132    PUSHJ 1,776132                     6 @_Q:    ,??|-    
776100  256600 773525    XCT 14,773525                      5V _=5    +X?w*    
776101  200310 776573    MOVE 6,776573(10)                  0#(_U[     ?G}=    
776102  201240 000100    MOVEI 5,100                        0*@ !      *??     
776103  603300 000020    TLNE 6,20                          P;   0    `l???    
776104  260040 773430    PUSHJ 1,773430                     6 @_<8    ,??w?    
776105  550250 776573    HRRZ 5,776573(10)                  M"H_U[    Z?G}=    
776106  135300 777146    LDB 6,777146                       +K _YF    ?,?~3    
776107  301300 000240    CAIL 6,240                         8+  "@    0,??P    
776110  303300 000247    CAILE 6,247                        8;  "G    0l??S    
776111  260040 776131    PUSHJ 1,776131                     6 @_Q9    ,??|,    
776112  260040 776152    PUSHJ 1,776152                     6 @_QJ    ,??|5    
776113  620000 000200    TRZ 0,200                          R   "     d???@    
776114  135100 777147    LDB 2,777147                       +I _YG    ?$?~3    
776115  322100 776136    JUMPE 2,776136                     :1 _Q>    4D?|/    
776116  256400 773525    XCT 10,773525                      5T _=5    +P?w*    
776117  200240 000002    MOVE 5,2                           0"@  "     ????    
776120  260040 776132    PUSHJ 1,776132                     6 @_Q:    ,??|-    
776121  201240 000051    MOVEI 5,51                         0*@  I     *???    
776122  254000 773430    JRST 773430                        5@ _<8    +??w?    
776123  660000 000200    TRO 0,200                          V   "     l???@    
776124  554250 776573    HLRZ 5,776573(10)                  MBH_U[    [?G}=    
776125  260040 776132    PUSHJ 1,776132                     6 @_Q:    ,??|-    
776126  256600 773525    XCT 14,773525                      5V _=5    +X?w*    
776127  256600 773525    XCT 14,773525                      5V _=5    +X?w*    
776130  334250 776573    SKIPA 5,776573(10)                 ;BH_U[    7?G}=    
776131  350001 000000    AOS 0(1)                           = !       :????    
776132  405240 777777    ANDI 5,777777                      @J@___    A*???    
776133  254020 776714    JRST @776714                       5@0_W,    +??}f    
776134  322240 776417    JUMPE 5,776417                     :2@_T/    4J?}?    
776135  260040 775774    PUSHJ 1,775774                     6 @_O\    ,??{~    
776136  263040 000000    POPJ 1,                            68@       ,b???    
776137  200346 000001    MOVE 7,1(6)                        0#F  !     ?0??    
776140  305240 000100    CAIGE 5,100                        8J@ !     1*??     
776141  305340 000060    CAIGE 7,60                         8K@  P    1.???    
776142  254000 776151    JRST 776151                        5@ _QI    +??|4    
776143  202250 776574    MOVEM 5,776574(10)                 02H_U\     JG}>    
776144  322300 776150    JUMPE 6,776150                     :3 _QH    4L?|4    
776145  260040 776430    PUSHJ 1,776430                     6 @_T8    ,??}?    
776146  256540 773525    XCT 13,773525                      5U@_=5    +V?w*    
776147  550250 776574    HRRZ 5,776574(10)                  M"H_U\    Z?G}>    
776150  254000 776405    JRST 776405                        5@ _T%    +??}?    
776151  200250 776574    MOVE 5,776574(10)                  0"H_U\     ?G}>    
776152  602000 000200    TRNE 0,200                         P0  "     `@??@    
776153  305240 776000    CAIGE 5,776000                     8J@_P     1*?|?    
776154  254000 776405    JRST 776405                        5@ _T%    +??}?    
776155  212250 776574    MOVNM 5,776574(10)                 12H_U\    "JG}>    
776156  256640 773525    XCT 15,773525                      5V@_=5    +Z?w*    
776157  254000 776147    JRST 776147                        5@ _QG    +??|3    
776160  650240 777150    TDC 5,777150                       U"@_YH    j??~4    
776161  656240 777150    TDCN 5,777150                      UR@_YH    kJ?~4    
776162  254000 776155    JRST 776155                        5@ _QM    +??|6    
776163  554100 000005    HLRZ 2,5                           MA   %    [????    
776164  303100 777620    CAILE 2,777620                     89 _^0    0d??H    
776165  254000 776123    JRST 776123                        5@ _Q3    +??|)    
776166  404240 777151    AND 5,777151                       @B@_YI    A??~4    
776167  260040 775774    PUSHJ 1,775774                     6 @_O\    ,??{~    
776170  254000 776172    JRST 776172                        5@ _QZ    +??|=    
776171  254000 776123    JRST 776123                        5@ _Q3    +??|)    
776172  260040 773331    PUSHJ 1,773331                     6 @_;9    ,??vl    
776173  200250 776573    MOVE 5,776573(10)                  0"H_U[     ?G}=    
776174  404240 777152    AND 5,777152                       @B@_YJ    A??~5    
776175  322240 776101    JUMPE 5,776101                     :2@_Q!    4J?|     
776176  260040 775774    PUSHJ 1,775774                     6 @_O\    ,??{~    
776177  254000 776100    JRST 776100                        5@ _Q     +??|     
776200  200250 776574    MOVE 5,776574(10)                  0"H_U\     ?G}>    
776201  242240 777750    LSH 5,777750                       42@__H    (J??t    
776202  260040 776405    PUSHJ 1,776405                     6 @_T%    ,??}?    
776203  254000 776100    JRST 776100                        5@ _Q     +??|     
776204  603000 000001    TLNE 0,1                           P8   !    ``???    
776205  254000 776212    JRST 776212                        5@ _R*    +??|E    
776206  201240 776636    MOVEI 5,776636                     0*@_V>     *?}O    
776207  201200 000001    MOVEI 4,1                          0*   !     (???    
776210  202200 776722    MOVEM 4,776722                     02 _W2     H?}i    
776211  254000 774651    JRST 774651                        5@ _FI    +??yT    
776212  202240 776636    MOVEM 5,776636                     02@_V>     J?}O    
776213  254000 774135    JRST 774135                        5@ _A=    +??x.    
776214  661000 000020    TLO 0,20                           V(   0    l ???    
776215  550240 000005    HRRZ 5,5                           M"@  %    Z????    
776216  334200 776175    SKIPA 4,776175                     ;B _Q]    7??|>    
776217  205200 326240    MOVSI 4,326240                     0J :R@    !(?,P    
776220  502200 776245    HLLM 4,776245                      H2 _RE    PH?|R    
776221  627000 000001    TLZN 0,1                           RX   !    e`???    
776222  254000 774132    JRST 774132                        5@ _A:    +??x-    
776223  452240 776522    SETCAM 5,776522                    E2@_U2    JJ?})    
776224  200240 777153    MOVE 5,777153                      0"@_YK     ??~5    
776225  603000 000020    TLNE 0,20                          P8   0    ``???    
776226  200240 777154    MOVE 5,777154                      0"@_YL     ??~6    
776227  202240 776243    MOVEM 5,776243                     02@_RC     J?|Q    
776230  205240 777773    MOVSI 5,777773                     0J@__[    !*??}    
776231  462005 776525    SETCMM 776525(5)                   F0%_U5    L@/}*    
776232  253240 776231    AOBJN 5,776231                     5:@_R9    *j?|L    
776233  200240 776547    MOVE 5,776547                      0"@_UG     ??}3    
776234  603000 002000    TLNE 0,2000                        P8  0     ``???    
776235  661000 000001    TLO 0,1                            V(   !    l ???    
776236  260040 776334    PUSHJ 1,776334                     6 @_S<    ,??|n    
776237  260040 773525    PUSHJ 1,773525                     6 @_=5    ,??w*    
776240  606100 777760    TRNN 2,777760                      PQ __P    aD??x    
776241  254000 776260    JRST 776260                        5@ _RP    +??|X    
776242  200242 000000    MOVE 5,0(2)                        0"B        ????    
776243  444240 776522    EQV 5,776522                       DB@_U2    I??})    
776244  404240 776636    AND 5,776636                       @B@_V>    A??}O    
776245  322240 776270    JUMPE 5,776270                     :2@_RX    4J?|\    
776246  606100 000077    TRNN 2,77                          PQ   _    aD???    
776247  254000 776255    JRST 776255                        5@ _RM    +??|V    
776250  253100 776240    AOBJN 2,776240                     59 _R@    *d?|P    
776251  603100 777777    TLNE 2,777777                      P9 ___    `d???    
776252  254000 776240    JRST 776240                        5@ _R@    +??|P    
776253  462010 776573    SETCMM 776573(10)                  F0(_U[    L@G}=    
776254  254000 774014    JRST 774014                        5@ _@,    +??x?    
776255  260040 773340    PUSHJ 1,773340                     6 @_;@    ,??vp    
776256  254000 776250    JRST 776250                        5@ _RH    +??|T    
776257  254000 776253    JRST 776253                        5@ _RK    +??|U    
776260  260040 775753    PUSHJ 1,775753                     6 @_OK    ,??{u    
776261  254000 776246    JRST 776246                        5@ _RF    +??|S    
776262  254000 776243    JRST 776243                        5@ _RC    +??|Q    
776263  260040 776311    PUSHJ 1,776311                     6 @_S)    ,??|d    
776264  254000 776246    JRST 776246                        5@ _RF    +??|S    
776265  444240 776522    EQV 5,776522                       DB@_U2    I??})    
776266  405240 777777    ANDI 5,777777                      @J@___    A*???    
776267  254000 776245    JRST 776245                        5@ _RE    +??|R    
776270  260040 775753    PUSHJ 1,775753                     6 @_OK    ,??{u    
776271  254000 774132    JRST 774132                        5@ _A:    +??x-    
776272  202250 776573    MOVEM 5,776573(10)                 02H_U[     JG}=    
776273  202100 776531    MOVEM 2,776531                     01 _U9     D?},    
776274  202100 000005    MOVEM 2,5                          01   %     D???    
776275  552100 776551    HRRZM 2,776551                     M1 _UI    ZD?}4    
776276  260040 775212    PUSHJ 1,775212                     6 @_J*    ,??zE    
776277  260040 776132    PUSHJ 1,776132                     6 @_Q:    ,??|-    
776300  256740 773525    XCT 17,773525                      5W@_=5    +^?w*    
776301  260040 773327    PUSHJ 1,773327                     6 @_;7    ,??vk    
776302  200250 776573    MOVE 5,776573(10)                  0"H_U[     ?G}=    
776303  260040 776053    PUSHJ 1,776053                     6 @_PK    ,??|?    
776304  260040 773525    PUSHJ 1,773525                     6 @_=5    ,??w*    
776305  462010 776573    SETCMM 776573(10)                  F0(_U[    L@G}=    
776306  462010 776574    SETCMM 776574(10)                  F0(_U\    L@G}>    
776307  200100 776531    MOVE 2,776531                      0! _U9     ??},    
776310  254000 776255    JRST 776255                        5@ _RM    +??|V    
776311  202100 776531    MOVEM 2,776531                     01 _U9     D?},    
776312  201200 000100    MOVEI 4,100                        0*  !      (??     
776313  202210 776574    MOVEM 4,776574(10)                 02(_U\     HG}>    
776314  200200 000005    MOVE 4,5                           0"   %     ????    
776315  135100 777155    LDB 2,777155                       +I _YM    ?$?~6    
776316  322100 776321    JUMPE 2,776321                     :1 _S1    4D?|h    
776317  550242 776673    HRRZ 5,776673(2)                   M"B_V[    Z??}]    
776320  270240 000004    ADD 5,4                            7"@  $    .????    
776321  540100 000005    HRR 2,5                            L!   %    X????    
776322  607200 000020    TLNN 4,20                          PZ   0    ah???    
776323  254000 776330    JRST 776330                        5@ _S8    +??|l    
776324  372010 776574    SOSE 776574(10)                    ?0(_U\    >@G}>    
776325  260040 775753    PUSHJ 1,775753                     6 @_OK    ,??{u    
776326  254000 776331    JRST 776331                        5@ _S9    +??|l    
776327  254000 776314    JRST 776314                        5@ _S,    +??|f    
776330  350001 000000    AOS 0(1)                           = !       :????    
776331  200100 776531    MOVE 2,776531                      0! _U9     ??},    
776332  263040 000000    POPJ 1,                            68@       ,b???    
776333  661000 000020    TLO 0,20                           V(   0    l ???    
776334  201245 000001    MOVEI 5,1(5)                       0*E  !     *(??    
776335  607000 000001    TLNN 0,1                           PX   !    a`???    
776336  550240 776535    HRRZ 5,776535                      M"@_U=    Z??}.    
776337  542240 776547    HRRM 5,776547                      L2@_UG    XJ?}3    
776340  550100 776546    HRRZ 2,776546                      M! _UF    Z??}3    
776341  607000 001000    TLNN 0,1000                        PX  (     a`???    
776342  201100 000000    MOVEI 2,0                          0)         $???    
776343  311100 776547    CAML 2,776547                      9) _UG    2$?}3    
776344  254000 774132    JRST 774132                        5@ _A:    +??x-    
776345  202100 776546    MOVEM 2,776546                     01 _UF     D?}3    
776346  200200 000002    MOVE 4,2                           0"   "     ????    
776347  274200 776547    SUB 4,776547                       7B _UG    /??}3    
776350  506200 000002    HRLM 4,2                           HR   "    QH???    
776351  263040 000000    POPJ 1,                            68@       ,b???    
776352  325000 774132    JUMPGE 0,774132                    :H _A:    5 ?x-    
776353  260040 776333    PUSHJ 1,776333                     6 @_S;    ,??|m    
776354  602100 777740    TRNE 2,777740                      P1 __@    `D??p    
776355  254000 776364    JRST 776364                        5@ _ST    +??|z    
776356  606100 000020    TRNN 2,20                          PQ   0    aD???    
776357  402002 776673    SETZM 776673(2)                    @0"_V[    @@?}]    
776360  253100 776354    AOBJN 2,776354                     59 _SL    *d?|v    
776361  603100 777777    TLNE 2,777777                      P9 ___    `d???    
776362  254000 776354    JRST 776354                        5@ _SL    +??|v    
776363  254000 774013    JRST 774013                        5@ _@+    +??x?    
776364  550140 000005    HRRZ 3,5                           M!@  %    Z????    
776365  301140 774000    CAIL 3,774000                      8)@_@     0&?x?    
776366  201140 774000    MOVEI 3,774000                     0)@_@      &?x?    
776367  303142 000000    CAILE 3,0(2)                       89B       0f???    
776370  265200 776400    JSP 4,776400                       6J _T     -(?}?    
776371  550100 000002    HRRZ 2,2                           M!   "    Z????    
776372  307100 773637    CAIG 2,773637                      8Y _>?    1d?wO    
776373  201100 773637    MOVEI 2,773637                     0) _>?     $?wO    
776374  550140 000005    HRRZ 3,5                           M!@  %    Z????    
776375  313140 000002    CAMLE 3,2                          99@  "    2f???    
776376  265200 776400    JSP 4,776400                       6J _T     -(?}?    
776377  254000 774013    JRST 774013                        5@ _@+    +??x?    
776400  504100 000002    HRL 2,2                            HA   "    Q????    
776401  402002 000000    SETZM 0(2)                         @0"       @@???    
776402  271100 000001    ADDI 2,1                           7)   !    .$???    
776403  251103 777777    BLT 2,777777(3)                    5)#___    *$???    
776404  254004 000000    JRST 0(4)                          5@$       +? ??    
776405  550300 776715    HRRZ 6,776715                      M# _W-    Z??}f    
776406  306300 000012    CAIN 6,12                          8S   *    1L???    
776407  254000 776421    JRST 776421                        5@ _T1    +??}?    
776410  246240 777735    LSHC 5,777735                      4R@__=    )J??n    
776411  242300 777777    LSH 6,777777                       43 ___    (L???    
776412  235260 776715    DIVI 5,@776715                     3JP_W-    '+?}f    
776413  506301 000000    HRLM 6,0(1)                        HS!       QL???    
776414  322240 776416    JUMPE 5,776416                     :2@_T.    4J?}?    
776415  260040 776410    PUSHJ 1,776410                     6 @_T(    ,??}?    
776416  554241 000000    HLRZ 5,0(1)                        MBA       [????    
776417  271240 000060    ADDI 5,60                          7*@  P    .*???    
776420  254000 773430    JRST 773430                        5@ _<8    +??w?    
776421  214300 000005    MOVM 6,5                           1C   %    #????    
776422  325240 776424    JUMPGE 5,776424                    :J@_T4    5*?}?    
776423  256640 773525    XCT 15,773525                      5V@_=5    +Z?w*    
776424  201240 000000    MOVEI 5,0                          0*@        *???    
776425  260040 776412    PUSHJ 1,776412                     6 @_T*    ,??}?    
776426  201240 000056    MOVEI 5,56                         0*@  N     *???    
776427  254000 773430    JRST 773430                        5@ _<8    +??w?    
776430  200240 776420    MOVE 5,776420                      0"@_T0     ??}?    
776431  202250 776601    MOVEM 5,776601(10)                 02H_V!     JG}@    
776432  200246 000000    MOVE 5,0(6)                        0"F        ?0??    
776433  202310 776577    MOVEM 6,776577(10)                 03(_U_     LG}?    
776434  621240 740000    TLZ 5,740000                       R*@\      d*?@?    
776435  230240 777156    IDIV 5,777156                      3"@_YN    &??~7    
776436  260040 776443    PUSHJ 1,776443                     6 @_TC    ,??}?    
776437  200240 000006    MOVE 5,6                           0"@  &     ????    
776440  221240 000050    IMULI 5,50                         2*@  H    $*???    
776441  326240 776435    JUMPN 5,776435                     :R@_T=    5J?}?    
776442  263040 000000    POPJ 1,                            68@       ,b???    
776443  271240 000257    ADDI 5,257                         7*@ "O    .*??W    
776444  303240 000271    CAILE 5,271                        8:@ "Y    0j??\    
776445  271240 000007    ADDI 5,7                           7*@  '    .*???    
776446  303240 000332    CAILE 5,332                        8:@ #:    0j??m    
776447  275240 000070    SUBI 5,70                          7J@  X    /*???    
776450  306240 000243    CAIN 5,243                         8R@ "C    1J??Q    
776451  201240 000256    MOVEI 5,256                        0*@ "N     *??W    
776452  256010 776601    XCT 776601(10)                     5P(_V!    +@G}@    
776453  263040 000000    POPJ 1,                            68@       ,b???    
776454  260040 775657    PUSHJ 1,775657                     6 @_NO    ,??{W    
776455  713240 000005    CONI DIS,5                         Y:@  %    rj???    
776456  137240 777157    DPB 5,777157                       +Z@_YO    ?j?~7    
776457  712640 000005    CONI LPT,5                         Y6@  %    rZ???    
776460  137240 777160    DPB 5,777160                       +Z@_YP    ?j?~8    
776461  332000 776533    SKIPE 776533                       ;0 _U;    6@?}-    
776462  712600 000010    CONO LPT,10                        Y6   (    rX???    
776463  201240 000010    MOVEI 5,10                         0*@  (     *???    
776464  206240 773027    MOVSM 5,773027                     0R@_87    !J?v?    
776465  712240 776635    CONI TTY,776635                    Y2@_V=    rJ?}N    
776466  712205 400000    CONO TTY,400000(5)                 Y2%@      rH,??    
776467  260040 773000    PUSHJ 1,773000                     6 @_8     ,??v?    
776470  256000 776463    XCT 776463                         5P _TS    +@?}?    
776471  201340 040000    MOVEI 7,40000                      0+@$       .?@?    
776472  712300 000120    CONSZ TTY,120                      Y3  !0    rL??(    
776473  367340 776472    SOJG 7,776472                      >[@_TZ    =n?}?    
776474  712240 000007    CONI TTY,7                         Y2@  '    rJ???    
776475  430340 776635    XOR 7,776635                       C#@_V=    F??}N    
776476  405340 000010    ANDI 7,10                          @K@  (    A.???    
776477  432340 776635    XORM 7,776635                      C3@_V=    FN?}N    
776500  712040 000007    DATAI TTY,7                        Y0@  '    rB???    
776501  506340 776635    HRLM 7,776635                      HS@_V=    QN?}N    
776502  712205 003400    CONO TTY,3400(5)                   Y2% <     rH(??    
776503  712205 400000    CONO TTY,400000(5)                 Y2%@      rH,??    
776504  263040 000000    POPJ 1,                            68@       ,b???    
776505  204240 773027    MOVS 5,773027                      0B@_87    !??v?    
776506  306260 776463    CAIN 5,@776463                     8RP_TS    1K?}?    
776507  254000 776512    JRST 776512                        5@ _U*    +??}%    
776510  713200 000100    CONO DIS,100                       Y:  !     rh??     
776511  713140 777161    DATAO DIS,777161                   Y9@_YQ    rf?~8    
776512  332240 776532    SKIPE 5,776532                     ;2@_U:    6J?}-    
776513  712605 000010    CONO LPT,10(5)                     Y6%  (    rX(??    
776514  200240 776635    MOVE 5,776635                      0"@_V=     ??}N    
776515  405240 170017    ANDI 5,170017                      @J@/ /    A*?p?    
776516  606240 000010    TRNN 5,10                          PR@  (    aJ???    
776517  660240 000200    TRO 5,200                          V"@ "     l???@    
776520  254000 776471    JRST 776471                        5@ _TY    +??}?    
776521  777666 772664    CONI 774,@772664(6)                _^V_6T    ?{7uZ    
776524  777777 777777    CONSO 774,@777777(17)              ______    ?????    
776525  777777 777400    CONSO 774,@777400(17)              ____\     ?????    
776530  777777 777777    CONSO 774,@777777(17)              ______    ?????    
776531  777777 777777    CONSO 774,@777777(17)              ______    ?????    
776532  000000 763360                                          ^;P    ???fx    
776533  000000 000000                                                 ?????    
776534  777777 777777    CONSO 774,@777777(17)              ______    ?????    
776535  000000 772664                                          _6T    ???uZ    
776536  000000 772664                                          _6T    ???uZ    
776542  000000 774000                                          _@     ???x?    
776543  000000 777401                                          _\!    ?????    
776544  000000 777075                                          _X]    ???~?    
776545  000000 777075                                          _X]    ???~?    
776546  000000 000003                                            #    ?????    
776547  000000 046505                                          $U%    ???M"    
776550  000000 777760                                          __P    ????x    
776551  000000 777760                                          __P    ????x    
776552  000000 000001                                            !    ?????    
776553  000000 777065                                          _XU    ???~?    
776554  000000 000112                                           !*    ????%    
776555  000000 006373                                           S[    ????}    
776556  000000 000103                                           !#    ????!    
776557  000000 006374                                           S\    ????~    
776560  000000 044046                                          $@F    ???H?    
776561  000000 042052                                          $0J    ???D?    
776562  000040 000014                                         @  ,    ?????    
776563  000003 773642                                         #_>B    ???wQ    
776564  000000 000000                                                 ?????    
776565  000000 000001                                            !    ?????    
776566  000000 003062                                           8R    ?????    
776567  446512 306401    EQVM 12,306401(12)                 DU*8T!    ITS??    
776570  000000 772664                                          _6T    ???uZ    
776571  000000 000040                                            @    ?????    
776572  000000 000446                                           $F    ?????    
776573  446512 306401    EQVM 12,306401(12)                 DU*8T!    ITS??    
776574  036411 000000                                       #T)       ?PH??    
776575  000000 000000                                                 ?????    
776576  777666 772664    CONI 774,@772664(6)                _^V_6T    ?{7uZ    
776577  000000 776545                                          _UE    ???}2    
776600  000000 000000                                                 ?????    
776601  254000 773430    JRST 773430                        5@ _<8    +??w?    
776602  200261 777777    MOVE 5,@777777(1)                  0"Q___     ????    
776603  000000 776604                                          _V$    ???}B    
776604  000000 000000                                                 ?????    
776605  000000 000214                                           ",    ????F    
776606  202243 773713    MOVEM 5,773713(3)                  02C_?+     J?we    
776607  777742 772740    CONSO 774,772740(2)                __B_7@    ?~?up    
776610  000000 000000                                                 ?????    
776611  616342 000000    TDNN 7,0(2)                        QSB       cN???    
776612  000000 404040                                          @@@    ?????    
776613  600000 000000    TRN                                P         `????    
776614  740000 000000    BLKI 400,0                         \         x????    
776615  000000 000404                                           $$    ?????    
776616  404040 404040    AND 1,404040                       @@@@@@    A????    
776617  004400 776010                                        D _P(    ???|?    
776620  000000 000000                                                 ?????    
776621  777666 772664    CONI 774,@772664(6)                _^V_6T    ?{7uZ    
776622  700000 772752    BLKI APR,772752                    X  _7J    p??uu    
776623  000000 773043                                          _8C    ???v?    
776624  254000 773430    JRST 773430                        5@ _<8    +??w?    
776625  205240 604040    MOVSI 5,604040                     0J@P@@    !*???    
776626  000000 776627                                          _V7    ???}K    
776627  000000 000000                                                 ?????    
776630  777777 777777    CONSO 774,@777777(17)              ______    ?????    
776631  000000 777777                                          ___    ?????    
776632  000000 000000                                                 ?????    
776633  740000 000000    BLKI 400,0                         \         x????    
776634  000000 001177                                           )_    ?????    
776635  000215 000010                                        "-  (    ??h??    
776636  777777 777777    CONSO 774,@777777(17)              ______    ?????    
776663  777777 777777    CONSO 774,@777777(17)              ______    ?????    
776664  000000 000000                                                 ?????    
776665  777666 772664    CONI 774,@772664(6)                _^V_6T    ?{7uZ    
776666  000000 000120                                           !0    ????(    
776667  254000 777076    JRST 777076                        5@ _X^    +??~?    
776670  000000 000010                                            (    ?????    
776671  740000 777632    BLKI 400,777632                    \  _^:    x???M    
776672  254000 777076    JRST 777076                        5@ _X^    +??~?    
776673  777777 777777    CONSO 774,@777777(17)              ______    ?????    
776674  000000 000000                                                 ?????    
776675  777666 772664    CONI 774,@772664(6)                _^V_6T    ?{7uZ    
776676  777777 000130    CONSO 774,@130(17)                 ___ !8    ??x?,    
776677  254000 777066    JRST 777066                        5@ _XV    +??~?    
776700  000000 000010                                            (    ?????    
776701  740000 777632    BLKI 400,777632                    \  _^:    x???M    
776702  254000 777066    JRST 777066                        5@ _XV    +??~?    
776703  000000 000003                                            #    ?????    
776704  400000 000073    SETZ 0,73                          @    [    @????    
776705  777777 777777    CONSO 774,@777777(17)              ______    ?????    
776706  250500 777265    EXCH 12,777265                     5% _ZU    *??~Z    
776707  000000 000000                                                 ?????    
776710  740000 777516    BLKI 400,777516                    \  _].    x???'    
776711  034156 261770                                       #AN6/X    ??rc|    
776712  776562 000000    DATAO 764,@0(2)                    _UR       ?W???    
776713  000000 776060                                          _PP    ???|?    
776714  000000 776134                                          _Q<    ???|.    
776715  000000 000010                                            (    ?????    
776716  000000 776060                                          _PP    ???|?    
776717  000000 776134                                          _Q<    ???|.    
776720  000000 000010                                            (    ?????    
776721  777777 777777    CONSO 774,@777777(17)              ______    ?????    
776722  254000 776732    JRST 776732                        5@ _W:    +??}m    
776723  700640 776626    CONI PI,776626                     X&@_V6    p??}K    
776724  000000 000006                                            &    ?????    
776725  000600 772572                                        & _5Z    ???u=    
776726  740000 774011    BLKI 400,774011                    \  _@)    x??x?    
776727  336000 776721    SKIPN 776721                       ;P _W1    7@?}h    
776730  254000 776733    JRST 776733                        5@ _W;    +??}m    
776731  350000 776726    AOS 776726                         =  _W6    :??}k    
776732  254000 776742    JRST 776742                        5@ _WB    +??}q    
776733  700640 776633    CONI PI,776633                     X&@_V;    p??}M    
776734  700620 776634    CONO PI,@776634                    X&0_V<    p??}N    
776735  202740 776712    MOVEM 17,776712                    07@_W*     ^?}e    
776736  551740 776673    HRRZI 17,776673                    M/@_V[    Z>?}]    
776737  251740 776711    BLT 17,776711                      5/@_W)    *>?}d    
776740  200240 776726    MOVE 5,776726                      0"@_W6     ??}k    
776741  502240 776633    HLLM 5,776633                      H2@_V;    PJ?}M    
776742  476000 776721    SETOM 776721                       GP _W1    O@?}h    
776743  201040 773637    MOVEI 1,773637                     0(@_>?     "?wO    
776744  200000 777117    MOVE 0,777117                      0  _Y/     ??~'    
776745  251000 776715    BLT 0,776715                       5( _W-    * ?}f    
776746  403000 000010    SETZB 0,10                         @8   (    @`???    
776747  254020 776726    JRST @776726                       5@0_W6    +??}k    
776750  623000 000001    TLZE 0,1                           R8   !    d`???    
776751  336000 000005    SKIPN 5                            ;P   %    7@???    
776752  254000 774132    JRST 774132                        5@ _A:    +??x-    
776753  201200 000044    MOVEI 4,44                         0*   D     (???    
776754  137240 777162    DPB 5,777162                       +Z@_YR    ?j?~9    
776755  137240 777163    DPB 5,777163                       +Z@_YS    ?j?~9    
776756  230200 000005    IDIV 4,5                           3"   %    &????    
776757  202200 776772    MOVEM 4,776772                     02 _WZ     H?}}    
776760  254000 775303    JRST 775303                        5@ _K#    +??za    
776761  201200 000044    MOVEI 4,44                         0*   D     (???    
776762  137200 777164    DPB 4,777164                       +Z _YT    ?h?~:    
776763  200200 776772    MOVE 4,776772                      0" _WZ     ??}}    
776764  202250 776604    MOVEM 5,776604(10)                 02H_V$     JG}B    
776765  134250 776603    ILDB 5,776603(10)                  +BH_V#    ??G}A    
776766  260040 776405    PUSHJ 1,776405                     6 @_T%    ,??}?    
776767  260040 773331    PUSHJ 1,773331                     6 @_;9    ,??vl    
776770  367200 776765    SOJG 4,776765                      >Z _WU    =h?}z    
776771  263040 000000    POPJ 1,                            68@       ,b???    
776772  000000 000000                                                 ?????    
776773  242240 000020    LSH 5,20                           42@  0    (J???    
776774  550300 000005    HRRZ 6,5                           M#   %    Z????    
776775  271240 177777    ADDI 5,177777                      7*@/__    .*???    
776776  627000 000001    TLZN 0,1                           RX   !    e`???    
776777  254000 774132    JRST 774132                        5@ _A:    +??x-    
777000  270300 777165    ADD 6,777165                       7# _YU    .??~:    
777001  251305 000000    BLT 6,0(5)                         5+%       *,(??    
777002  263040 000000    POPJ 1,                            68@       ,b???    
777003  242240 000020    LSH 5,20                           42@  0    (J???    
777004  514300 000005    HRLZ 6,5                           IC   %    S????    
777005  201240 177777    MOVEI 5,177777                     0*@/__     *???    
777006  254000 776776    JRST 776776                        5@ _W^    +??}?    
777007  242240 000020    LSH 5,20                           42@  0    (J???    
777010  514300 000005    HRLZ 6,5                           IC   %    S????    
777011  336000 000006    SKIPN 6                            ;P   &    7@???    
777012  254000 774132    JRST 774132                        5@ _A:    +??x-    
777013  402005 000000    SETZM 0(5)                         @0%       @@(??    
777014  541305 000001    HRRI 6,1(5)                        L+%  !    X,(??    
777015  274300 777165    SUB 6,777165                       7C _YU    /??~:    
777016  254000 776775    JRST 776775                        5@ _W]    +??}~    
777017  301402 777022    CAIL 10,777022(2)                  8,"_X2    00?~?    
777020  141402 777022    FADL 10,777022(2)                  ,,"_X2    ?0?~?    
777021  001402 777022                                        ,"_X2    ?0?~?    
777022  013201 320042                                       !:!: B    ?h? ?    
777023  074501 320042                                       'E!: B    ??? ?    
777024  013201 320132                                       !:!:!:    ?h? -    
777025  113011 320132                                       )8):!:    ?`K -    
777026  013211 660132                                       !:)V!:    ?hN`-    
777027  013201 320132                                       !:!:!:    ?h? -    
777030  013201 320132                                       !:!:!:    ?h? -    
777031  013200 420042                                       !: B B    ?h? ?    
777032  277330 033007    SUBB 6,@33007(10)                  7[8#8'    /m@6?    
777033  065501 320132                                       &M!:!:    ?4? -    
777034  013201 321104                                       !:!:)$    ?h?""    
777035  120013 541047                                       * +L(G    ??]B?    
777036  050705 071272                                       %'%'*Z    ??(r]    
777037  104510 531110                                       (E(K)(    ??E2$    
777040  104410 511067                                       (D(I(W    ??E??    
777041  105006 271201                                       (H&7*!    ? 2r@    
777042  047504 750475                                       $]$]$]    ?t'Q?    
777043  047504 750475                                       $]$]$]    ?t'Q?    
777044  047504 750475                                       $]$]$]    ?t'Q?    
777045  047507 540762                                       $]'L'R    ?t=Ay    
777046  176212 661765    FDVMR 4,661765(12)                 /R*V/U    ?HVcz    
777047  123510 631313                                       *=(S++    ?tF2e    
777050  166713 061317    FMPMR 16,61317(13)                 .W+&+/    ?\Xbg    
777051  221413 021330    IMULI 10,21330(13)                 2,+"+8    $0X"l    
777052  130106 500132                                       +!&H!:    ??5?-    
777053  070301 322204                                       '#!:2$    ???$B    
777054  221713 201527    IMULI 16,201527(13)                2/+0-7    $<Z?+    
777055  064713 101305                                       &G+(+%    ??Y?b    
777056  275030 621376    SUBI 0,@621376(10)                 7H8R+^    /!F"?    
777057  221613 370132    IMULI 14,370132(13)                2.+?!:    $8[p-    
777060  235211 731206    DIVI 4,731206(11)                  3J)[*&    '(O2C    
777061  122411 271267                                       *4)7*W    ?PJr[    
777062  712300 000020    CONSZ TTY,20                       Y3   0    rL???    
777063  260040 773176    PUSHJ 1,773176                     6 @_9^    ,??v?    
777064  476000 776630    SETOM 776630                       GP _V8    O@?}L    
777065  254000 777700    JRST 777700                        5@ __     +???`    
777066  402000 776630    SETZM 776630                       @0 _V8    @@?}L    
777067  333240 773777    SKIPLE 5,773777                    ;:@_?_    6j?w?    
777070  254000 774000    JRST 774000                        5@ _@     +??x?    
777071  200105 000000    MOVE 2,0(5)                        0!%        ?(??    
777072  326240 777076    JUMPN 5,777076                     :R@_X^    5J?~?    
777073  200100 776521    MOVE 2,776521                      0! _U1     ??}(    
777074  202100 773776    MOVEM 2,773776                     01 _?^     D?w?    
777075  201240 773776    MOVEI 5,773776                     0*@_?^     *?w?    
777076  552240 773777    HRRZM 5,773777                     M2@_?_    ZJ?w?    
777077  552100 776535    HRRZM 2,776535                     M1 _U=    ZD?}.    
777100  552100 776536    HRRZM 2,776536                     M1 _U>    ZD?}/    
777101  275240 001112    SUBI 5,1112                        7J@ )*    /*??%    
777102  542240 776521    HRRM 5,776521                      L2@_U1    XJ?}(    
777103  202100 776576    MOVEM 2,776576                     01 _U^     D?}?    
777104  712240 000005    CONI TTY,5                         Y2@  %    rJ???    
777105  405240 170000    ANDI 5,170000                      @J@/      A*?p?    
777106  435240 000010    IORI 5,10                          CJ@  (    G*???    
777107  542240 776463    HRRM 5,776463                      L2@_TS    XJ?}?    
777110  254000 774000    JRST 774000                        5@ _@     +??x?    
777111  353535 353535    AOSLE 12,@353535(15)               ======    :ukW.    
777112  020157 261777                                       "!O6/_    ??zc?    
777113  300600 773312    CAI 14,773312                      8& _;*    0??ve    
777114  270605 777777    ADD 14,777777(5)                   7&%___    .?/??    
777115  300200 773604    CAI 4,773604                       8" _>$    0??wB    
777116  200000 000000    MOVE 0,0                           0          ????    
777117  776716 776713    CONSZ 764,776713(16)               _W._W+    ?\w}e    
777120  773767 002422    CONSO 734,@2422(7)                 _?W 42    ~?8??    
777121  770767 000200    CONSO 704,@200(7)                  _'W "     ~?8?@    
777122  000100 776524                                        ! _U4    ???}*    
777123  000002 000002                                         "  "    ?????    
777124  440700 774343    ANDCB 16,774343                    D' _CC    H??xq    
777125  340500 774341    AOJ 12,774341                      <% _CA    8??xp    
777126  300600 774341    CAI 14,774341                      8& _CA    0??xp    
777127  331000 000002    SKIPL 2                            ;(   "    6 ???    
777130  331000 776543    SKIPL 776543                       ;( _UC    6 ?}1    
777131  420202 000000    ANDCM 4,0(2)                       B""       D????    
777132  000016 000000                                         .       ??p??    
777133  410300 776522    ANDCA 6,776522                     A# _U2    B??})    
777134  777777 777600    CONSO 774,@777600(17)              ____^     ????@    
777135  331120 775463    SKIPL 2,@775463                    ;)0_LS    6%?{?    
777136  002700 776574                                        7 _U\    ?\?}>    
777137  270400 776574    ADD 10,776574                      7$ _U\    .??}>    
777140  331100 776574    SKIPL 2,776574                     ;) _U\    6$?}>    
777141  270400 773522    ADD 10,773522                      7$ _=2    .??w)    
777142  264000 775430    JSR 775430                         6@ _L8    -??{?    
777143  776642 776643    CONI 764,776643(2)                 _VB_VC    ?Z?}Q    
777144  444400 776010    EQV 10,776010                      DD _P(    I??|?    
777145  270410 776573    ADD 10,776573(10)                  7$(_U[    .?G}=    
777146  331110 776573    SKIPL 2,776573(10)                 ;)(_U[    6$G}=    
777147  220410 776573    IMUL 10,776573(10)                 2$(_U[    $?G}=    
777150  777777 400000    CONSO 774,@400000(17)              ___@      ??|??    
777151  700340 000000    CONSO APR,0                        X#@       p????    
777152  077400 000000                                       '\        ?p???    
777153  444240 776522    EQV 5,776522                       DB@_U2    I??})    
777154  254000 776263    JRST 776263                        5@ _RS    +??|Y    
777155  220400 000005    IMUL 10,5                          2$   %    $????    
777156  000606 500000                                        &&H      ??5??    
777157  000600 776510                                        & _U(    ???}$    
777160  000300 776532                                        # _U:    ???}-    
777161  000000 003000                                           8     ?????    
777162  300600 776603    CAI 14,776603                      8& _V#    0??}A    
777163  300600 776626    CAI 14,776626                      8& _V6    0??}K    
777164  360610 776603    SOJ 14,776603(10)                  >&(_V#    <?G}A    
777165  000040 000040                                         @  @    ?????    
777166  300600 776577    CAI 14,776577                      8& _U_    0??}?    
777167  300600 776622    CAI 14,776622                      8& _V2    0??}I    
777170  360610 776577    SOJ 14,776577(10)                  >&(_U_    <?G}?    
777171  000040 000040                                         @  @    ?????    
777177  516463 000000    HRLZM 11,@0(3)                     ITS       SS???    
