000000  254000 000001    5@   !    +????    JRST	0,1
000001  777756 000020    __N  0    ?~p??    CONSO	774,20(16)
000002  710600 000060    Y&   P    r????    CONO	104,60
000003  710740 000010    Y'@  (    r????    CONSO	104,10
000004  254000 000021    5@   1    +????    JRST	0,21
000005  710440 000026    Y$@  6    r????    DATAI	104,26
000006  710740 000010    Y'@  (    r????    CONSO	104,10
000007  254000 000024    5@   4    +????    JRST	0,24
000010  254000 000001    5@   !    +????    JRST	0,1
000011  254000 000021    5@   1    +????    JRST	0,21
000012  710740 000010    Y'@  (    r????    CONSO	104,10
000013  254000 000030    5@   8    +????    JRST	0,30
000014  254014 000000    5@,       +?`??    JRST	0,0(14)
000015  710440 000016    Y$@  .    r????    DATAI	104,16
000016  316640 000016    9V@  .    3Z???    CAMN	15,16
000017  324000 000001    :@   !    5????    JUMPA	0,1
000020  254200 000000    5B        +????    JRST	4,0
000021  000000 037577       #]_    ?????    UUO00	0,37577
000022  000000 000000              ?????    UUO00	0,0
000023  264000 023472    6@ "<Z    -??'?    JSR	0,23472
000024  467057 322366    FXO:3V    Mb{${    ORCMB	1,322366(17)
000025  777773 000044    __[  D    ??X??    CONSO	774,@44(13)
000026  264000 002512    6@  5*    -???%    JSR	0,2512
000027  264000 002512    6@  5*    -???%    JSR	0,2512
000030  264000 001203    6@  *#    -???A    JSR	0,1203
000031  000000 000000              ?????    UUO00	0,0
000032  264000 000475    6@  $]    -????    JSR	0,475
000033  143540 107312    ,=@([*    ?v??e    FADB	13,107312
000034  777774 000054    __\  L    ??`??    CONSO	774,@54(14)
000035  264000 000526    6@  %6    -???+    JSR	0,526
000036  000000 000000              ?????    UUO00	0,0
000037  713100 001640    Y9  .@    rd??P    BLKO	130,1640
000040  254200 000057    5B   O    +????    JRST	4,57
000041  742300 012351    \3 !3I    xL??t    CONSZ	420,12351
000042  777170 000100    _YX !     ?g@?     DATAO	770,@100(10)
000043  700200 633556    X" S=N    p??77    CONO	0,633556
000044  700600 012233    X& !2;    p???M    CONO	4,12233
000045  200040 001540    0 @ -@     ???0    MOVE	1,1540
000046  721200 000000    Z*        t(???    CONO	210,0
000047  720200 000000    Z"        t????    CONO	200,0
000050  710600 000020    Y&   0    r????    CONO	104,20
000051  710600 000000    Y&        r????    CONO	104,0
000052  712600 001000    Y6  (     rX???    CONO	124,1000
000053  712200 000006    Y2   &    rH???    CONO	120,6
000054  260040 002246    6 @ 2F    ,???S    PUSHJ	1,2246
000055  476000 001004    GP  ($    O@???    SETOM	0,1004
000056  402000 000710    @0  '(    @@??d    SETZM	0,710
000057  712200 000016    Y2   .    rH???    CONO	120,16
000060  337000 001012    ;X  (*    7`???    SKIPG	0,1012
000061  254000 000121    5@  !1    +???(    JRST	0,121
000062  260040 000570    6 @ %X    ,???<    PUSHJ	1,570
000063  254000 000115    5@  !-    +???&    JRST	0,115
000064  402000 001004    @0  ($    @@???    SETZM	0,1004
000065  331000 001004    ;(  ($    6 ???    SKIPL	0,1004
000066  335000 000710    ;H  '(    7 ??d    SKIPGE	0,710
000067  254000 000112    5@  !*    +???%    JRST	0,112
000070  260040 001420    6 @ ,0    ,????    PUSHJ	1,1420
000071  200200 001541    0"  -A     ???0    MOVE	4,1541
000072  202200 001437    02  ,?     H???    MOVEM	4,1437
000073  201200 000141    0*  !A     (??0    MOVEI	4,141
000074  136200 001437    +R  ,?    ?H???    IDPB	4,1437
000075  476000 001444    GP  ,D    O@???    SETOM	0,1444
000076  260040 000570    6 @ %X    ,???<    PUSHJ	1,570
000077  136200 001437    +R  ,?    ?H???    IDPB	4,1437
000100  306200 000177    8R  !_    1H???    CAIN	4,177
000101  254000 000215    5@  "-    +???F    JRST	0,215
000102  302200 000044    82   D    0H???    CAIE	4,44
000103  254000 000132    5@  !:    +???-    JRST	0,132
000104  357000 001444    =X  ,D    ;`???    AOSG	0,1444
000105  254000 000133    5@  !;    +???-    JRST	0,133
000106  201200 000141    0*  !A     (??0    MOVEI	4,141
000107  136200 001437    +R  ,?    ?H???    IDPB	4,1437
000110  260040 001420    6 @ ,0    ,????    PUSHJ	1,1420
000111  200200 001542    0"  -B     ???1    MOVE	4,1542
000112  202200 001437    02  ,?     H???    MOVEM	4,1437
000113  402000 001442    @0  ,B    @@???    SETZM	0,1442
000114  476000 001440    GP  ,@    O@???    SETOM	0,1440
000115  402000 001441    @0  ,A    @@???    SETZM	0,1441
000116  260040 000244    6 @ "D    ,???R    PUSHJ	1,244
000117  301200 000060    8*   P    0(???    CAIL	4,60
000120  301200 000072    8*   Z    0(???    CAIL	4,72
000121  254000 000163    5@  !S    +???9    JRST	0,163
000122  275200 000060    7J   P    /(???    SUBI	4,60
000123  202200 001442    02  ,B     H???    MOVEM	4,1442
000124  402000 001440    @0  ,@    @@???    SETZM	0,1440
000125  254000 000153    5@  !K    +???5    JRST	0,153
000126  200240 001442    0"@ ,B     ????    MOVE	5,1442
000127  200300 001443    0#  ,C     ????    MOVE	6,1443
000130  306200 000105    8R  !%    1H??"    CAIN	4,105
000131  254000 000266    5@  "V    +???[    JRST	0,266
000132  306200 000054    8R   L    1H???    CAIN	4,54
000133  254000 000226    5@  "6    +???K    JRST	0,226
000134  306200 000044    8R   D    1H???    CAIN	4,44
000135  254000 000122    5@  !2    +???)    JRST	0,122
000136  306200 000101    8R  !!    1H??     CAIN	4,101
000137  254000 000320    5@  #0    +???h    JRST	0,320
000140  201340 000000    0+@        .???    MOVEI	7,0
000141  306200 000111    8R  !)    1H??$    CAIN	4,111
000142  201340 020763    0+@"'S     .?!y    MOVEI	7,20763
000143  306200 000117    8R  !/    1H??'    CAIN	4,117
000144  201340 023652    0+@">J     .?'U    MOVEI	7,23652
000145  306200 000124    8R  !4    1H??*    CAIN	4,124
000146  201340 023141    0+@"9A     .?&0    MOVEI	7,23141
000147  306200 000123    8R  !3    1H??)    CAIN	4,123
000150  201340 023175    0+@"9]     .?&>    MOVEI	7,23175
000151  306200 000114    8R  !,    1H??&    CAIN	4,114
000152  201340 021135    0+@")=     .?".    MOVEI	7,21135
000153  326340 000341    :S@ #A    5N??p    JUMPN	7,341
000154  302200 000104    82  !$    0H??"    CAIE	4,104
000155  254000 000151    5@  !I    +???4    JRST	0,151
000156  260040 000424    6 @ $4    ,????    PUSHJ	1,424
000157  254000 777701    5@ __!    +???`    JRST	0,777701
000160  133000 001437    +8  ,?    ?`???    IBP	0,1437
000161  133000 001437    +8  ,?    ?`???    IBP	0,1437
000162  133000 001437    +8  ,?    ?`???    IBP	0,1437
000163  370240 001437    ?"@ ,?    >????    SOS	5,1437
000164  134200 000005    +B   %    ?????    ILDB	4,5
000165  306200 000141    8R  !A    1H??0    CAIN	4,141
000166  254000 000122    5@  !2    +???)    JRST	0,122
000167  260040 000610    6 @ &(    ,???D    PUSHJ	1,610
000170  254000 000132    5@  !:    +???-    JRST	0,132
000171  352000 001440    =0  ,@    :@???    AOSE	0,1440
000172  476000 001441    GP  ,A    O@???    SETOM	0,1441
000173  200200 001442    0"  ,B     ????    MOVE	4,1442
000174  202200 001443    02  ,C     H???    MOVEM	4,1443
000175  402000 001442    @0  ,B    @@???    SETZM	0,1442
000176  254000 000153    5@  !K    +???5    JRST	0,153
000177  000000 000000              ?????    UUO00	0,0
000200  201200 000077    0*   _     (???    MOVEI	4,77
000201  260040 000610    6 @ &(    ,???D    PUSHJ	1,610
000202  254000 000122    5@  !2    +???)    JRST	0,122
000203  134440 001437    +D@ ,?    ?????    ILDB	11,1437
000204  302440 000141    84@ !A    0R??0    CAIE	11,141
000205  263040 000000    68@       ,b???    POPJ	1,0
000206  254000 000122    5@  !2    +???)    JRST	0,122
000207  134200 001437    +B  ,?    ?????    ILDB	4,1437
000210  302200 000141    82  !A    0H??0    CAIE	4,141
000211  263040 000000    68@       ,b???    POPJ	1,0
000212  254000 000122    5@  !2    +???)    JRST	0,122
000213  254000 000256    5@  "N    +???W    JRST	0,256
000214  302200 000141    82  !A    0H??0    CAIE	4,141
000215  263040 000000    68@       ,b???    POPJ	1,0
000216  260040 003531    6 @ =9    ,???,    PUSHJ	1,3531
000217  000000 564544       NED    ???i2    UUO00	0,564544
000220  263040 000000    68@       ,b???    POPJ	1,0
000221  260040 001117    6 @ )/    ,???'    PUSHJ	1,1117
000222  626200 000200    RR  "     eH??@    TRZN	4,200
000223  263040 000000    68@       ,b???    POPJ	1,0
000224  254000 000570    5@  %X    +???<    JRST	0,570
000225  334000 000000    ;@        7????    SKIPA	0,0
000226  254000 001433    5@  ,;    +????    JRST	0,1433
000227  260040 001166    6 @ )V    ,???;    PUSHJ	1,1166
000230  254000 000246    5@  "F    +???S    JRST	0,246
000231  261040 000212    6(@ "*    ,"??E    PUSH	1,212
000232  335000 001440    ;H  ,@    7 ???    SKIPGE	0,1440
000233  254000 000274    5@  "\    +???^    JRST	0,274
000234  200200 000005    0"   %     ????    MOVE	4,5
000235  260040 003444    6 @ <D    ,????    PUSHJ	1,3444
000236  254000 000343    5@  #C    +???q    JRST	0,343
000237  260040 000240    6 @ "@    ,???P    PUSHJ	1,240
000240  306440 000114    8T@ !,    1R??&    CAIN	11,114
000241  254000 001267    5@  *W    +???[    JRST	0,1267
000242  306440 000122    8T@ !2    1R??)    CAIN	11,122
000243  254000 001255    5@  *M    +???V    JRST	0,1255
000244  306440 000103    8T@ !#    1R??!    CAIN	11,103
000245  254000 003363    5@  ;S    +???y    JRST	0,3363
000246  306440 000106    8T@ !&    1R??#    CAIN	11,106
000247  254000 001426    5@  ,6    +????    JRST	0,1426
000250  306440 000104    8T@ !$    1R??"    CAIN	11,104
000251  254000 001424    5@  ,4    +????    JRST	0,1424
000252  306440 000116    8T@ !.    1R??'    CAIN	11,116
000253  254000 001373    5@  +[    +???}    JRST	0,1373
000254  306440 000111    8T@ !)    1R??$    CAIN	11,111
000255  254000 001410    5@  ,(    +????    JRST	0,1410
000256  306440 000113    8T@ !+    1R??%    CAIN	11,113
000257  254000 003433    5@  <;    +????    JRST	0,3433
000260  306440 000124    8T@ !4    1R??*    CAIN	11,124
000261  263040 000000    68@       ,b???    POPJ	1,0
000262  264000 000234    6@  "<    -???N    JSR	0,234
000263  265200 020763    6J "'S    -(?!y    JSP	4,20763
000264  265200 023652    6J ">J    -(?'U    JSP	4,23652
000265  550200 000250    M"  "H    Z???T    HRRZ	4,250
000266  606000 040000    PP $      a@?@?    TRNN	0,40000
000267  254000 000327    5@  #7    +???k    JRST	0,327
000270  306200 003617    8R  >/    1H??G    CAIN	4,3617
000271  260040 001247    6 @ *G    ,???S    PUSHJ	1,1247
000272  260040 001140    6 @ )@    ,???0    PUSHJ	1,1140
000273  265200 023175    6J "9]    -(?&>    JSP	4,23175
000274  265200 023141    6J "9A    -(?&0    JSP	4,23141
000275  265200 021135    6J ")=    -(?".    JSP	4,21135
000276  201240 000454    0*@ $L     *???    MOVEI	5,454
000277  260040 000420    6 @ $0    ,????    PUSHJ	1,420
000300  550200 016151    M" !QI    Z???4    HRRZ	4,16151
000301  306200 002277    8R  2_    1H??_    CAIN	4,2277
000302  260040 002427    6 @ 47    ,????    PUSHJ	1,2427
000303  254000 000151    5@  !I    +???4    JRST	0,151
000304  265207 000000    6J'       -(8??    JSP	4,0(7)
000305  254000 000151    5@  !I    +???4    JRST	0,151
000306  074000 001543    '@  -C    ????1    UUO74	0,1543
000307  254000 000122    5@  !2    +???)    JRST	0,122
000310  261040 000005    6(@  %    ,"???    PUSH	1,5
000311  306200 000021    8R   1    1H???    CAIN	4,21
000312  254000 000437    5@  $?    +????    JRST	0,437
000313  306200 000023    8R   3    1H???    CAIN	4,23
000314  254000 000455    5@  $M    +????    JRST	0,455
000315  201240 001166    0*@ )V     *??;    MOVEI	5,1166
000316  306200 000022    8R   2    1H???    CAIN	4,22
000317  542240 000264    L2@ "T    XJ??Z    HRRM	5,264
000320  201240 000246    0*@ "F     *??S    MOVEI	5,246
000321  306200 000024    8R   4    1H???    CAIN	4,24
000322  542240 000264    L2@ "T    XJ??Z    HRRM	5,264
000323  306200 000002    8R   "    1H???    CAIN	4,2
000324  542240 000265    L2@ "U    XJ??Z    HRRM	5,265
000325  200240 001550    0"@ -H     ???4    MOVE	5,1550
000326  306200 000022    8R   2    1H???    CAIN	4,22
000327  202240 000462    02@ $R     J???    MOVEM	5,462
000330  205240 263040    0J@68@    !*?f?    MOVSI	5,263040
000331  306200 000024    8R   4    1H???    CAIN	4,24
000332  202240 000462    02@ $R     J???    MOVEM	5,462
000333  205240 334000    0J@;@     !*?8?    MOVSI	5,334000
000334  306200 000026    8R   6    1H???    CAIN	4,26
000335  202240 000262    02@ "R     J??Y    MOVEM	5,262
000336  306200 000026    8R   6    1H???    CAIN	4,26
000337  202240 000460    02@ $P     J???    MOVEM	5,460
000340  201240 001230    0*@ *8     *??L    MOVEI	5,1230
000341  306200 000005    8R   %    1H???    CAIN	4,5
000342  542240 000265    L2@ "U    XJ??Z    HRRM	5,265
000343  200240 001551    0"@ -I     ???4    MOVE	5,1551
000344  306200 000027    8R   7    1H???    CAIN	4,27
000345  202240 000262    02@ "R     J??Y    MOVEM	5,262
000346  200240 001552    0"@ -J     ???5    MOVE	5,1552
000347  306200 000027    8R   7    1H???    CAIN	4,27
000350  202240 000460    02@ $P     J???    MOVEM	5,460
000351  306200 000007    8R   '    1H???    CAIN	4,7
000352  254400 000122    5D  !2    +???)    JRST	10,122
000353  306200 000001    8R   !    1H???    CAIN	4,1
000354  254000 000445    5@  $E    +????    JRST	0,445
000355  306200 000003    8R   #    1H???    CAIN	4,3
000356  254000 000431    5@  $9    +????    JRST	0,431
000357  306200 000004    8R   $    1H???    CAIN	4,4
000360  254000 000444    5@  $D    +????    JRST	0,444
000361  262040 000005    60@  %    ,B???    POP	1,5
000362  263040 000000    68@       ,b???    POPJ	1,0
000363  201200 000000    0*         (???    MOVEI	4,0
000364  260060 000264    6 P "T    ,???Z    PUSHJ	1,@264
000365  367240 000420    >Z@ $0    =j???    SOJG	5,420
000366  263040 000000    68@       ,b???    POPJ	1,0
000367  260040 002457    6 @ 4O    ,????    PUSHJ	1,2457
000370  710340 000007    Y#@  '    r????    CONSO	100,7
000371  712300 000030    Y3   8    rL???    CONSZ	120,30
000372  254000 000425    5@  $5    +????    JRST	0,425
000373  263040 000000    68@       ,b???    POPJ	1,0
000374  205240 263040    0J@68@    !*?f?    MOVSI	5,263040
000375  202240 016151    02@!QI     J??4    MOVEM	5,16151
000376  621000 040000    R( $      d ?@?    TLZ	0,40000
000377  200240 001553    0"@ -K     ???5    MOVE	5,1553
000400  202240 015471    02@!LY     J???    MOVEM	5,15471
000401  254000 000416    5@  $.    +????    JRST	0,416
000402  200240 001554    0"@ -L     ???6    MOVE	5,1554
000403  202240 000250    02@ "H     J??T    MOVEM	5,250
000404  607000 040000    PX $      a`?@?    TLNN	0,40000
000405  202240 015461    02@!LQ     J???    MOVEM	5,15461
000406  254000 000416    5@  $.    +????    JRST	0,416
000407  334240 001555    ;B@ -M    7???6    SKIPA	5,1555
000410  200240 001556    0"@ -N     ???7    MOVE	5,1556
000411  202240 016151    02@!QI     J??4    MOVEM	5,16151
000412  205240 255000    0J@5H     !*?Z?    MOVSI	5,255000
000413  202240 015471    02@!LY     J???    MOVEM	5,15471
000414  661000 040000    V( $      l ?@?    TLO	0,40000
000415  200240 001557    0"@ -O     ???7    MOVE	5,1557
000416  202240 015461    02@!LQ     J???    MOVEM	5,15461
000417  254000 000416    5@  $.    +????    JRST	0,416
000420  200240 001560    0"@ -P     ???8    MOVE	5,1560
000421  202240 000250    02@ "H     J??T    MOVEM	5,250
000422  254000 000452    5@  $J    +????    JRST	0,452
000423  334000 000000    ;@        7????    SKIPA	0,0
000424  254000 001433    5@  ,;    +????    JRST	0,1433
000425  261040 000005    6(@  %    ,"???    PUSH	1,5
000426  201240 000006    0*@  &     *???    MOVEI	5,6
000427  241200 000006    4*   &    ((???    ROT	4,6
000430  261040 000004    6(@  $    ,"???    PUSH	1,4
000431  405200 000077    @J   _    A(???    ANDI	4,77
000432  660200 000200    V"  "     l???@    TRO	4,200
000433  260040 001166    6 @ )V    ,???;    PUSHJ	1,1166
000434  262040 000004    60@  $    ,B???    POP	1,4
000435  367240 000464    >Z@ $T    =j???    SOJG	5,464
000436  262040 000005    60@  %    ,B???    POP	1,5
000437  263040 000000    68@       ,b???    POPJ	1,0
000440  000000 000000              ?????    UUO00	0,0
000441  264000 000523    6@  %3    -???)    JSR	0,523
000442  250240 000523    5"@ %3    *???)    EXCH	5,523
000443  261040 000004    6(@  $    ,"???    PUSH	1,4
000444  211200 000010    1*   (    "(???    MOVNI	4,10
000445  202200 001165    02  )U     H??:    MOVEM	4,1165
000446  136240 001162    +R@ )R    ?J??9    IDPB	5,1162
000447  550200 001162    M"  )R    Z???9    HRRZ	4,1162
000450  306200 001536    8R  ->    1H??/    CAIN	4,1536
000451  201200 001517    0*  -/     (??'    MOVEI	4,1517
000452  542200 001162    L2  )R    XH??9    HRRM	4,1162
000453  350200 001163    ="  )S    :???9    AOS	4,1163
000454  303200 000024    8:   4    0h???    CAILE	4,24
000455  302240 000214    82@ ",    0J??F    CAIE	5,214
000456  301200 000070    8*   X    0(???    CAIL	4,70
000457  254000 000520    5@  %0    +???(    JRST	0,520
000460  262040 000004    60@  $    ,B???    POP	1,4
000461  200240 000523    0"@ %3     ???)    MOVE	5,523
000462  254520 000475    5E0 $]    +????    JRST	12,@475
000463  201200 264000    0* 6@      (?h?    MOVEI	4,264000
000464  506200 000476    HR  $^    QH???    HRLM	4,476
000465  254000 000515    5@  %-    +???&    JRST	0,515
000466  000000 000000              ?????    UUO00	0,0
000467  710600 000004    Y&   $    r????    CONO	104,4
000470  254520 000475    5E0 $]    +????    JRST	12,@475
000471  000000 000000              ?????    UUO00	0,0
000472  261040 000004    6(@  $    ,"???    PUSH	1,4
000473  700340 001200    X#@ *     p???@    CONSO	0,1200
000474  254000 000634    5@  &<    +???N    JRST	0,634
000475  700200 001446    X"  ,F    p????    CONO	0,1446
000476  264000 002467    6@  4W    -????    JSR	0,2467
000477  335000 000476    ;H  $^    7 ???    SKIPGE	0,476
000500  357000 001165    =X  )U    ;`??:    AOSG	0,1165
000501  254000 000543    5@  %C    +???1    JRST	0,543
000502  201200 264000    0* 6@      (?h?    MOVEI	4,264000
000503  506200 000476    HR  $^    QH???    HRLM	4,476
000504  476000 001164    GP  )T    O@??:    SETOM	0,1164
000505  710600 000000    Y&        r????    CONO	104,0
000506  350000 000567    =   %W    :???;    AOS	0,567
000507  713340 000077    Y;@  _    rn???    CONSO	130,77
000510  254000 000554    5@  %L    +???6    JRST	0,554
000511  200200 001640    0"  .@     ???P    MOVE	4,1640
000512  250200 001630    5"  .8    *???L    EXCH	4,1630
000513  312200 001630    92  .8    2H??L    CAME	4,1630
000514  254000 000554    5@  %L    +???6    JRST	0,554
000515  713200 000130    Y:  !8    rh??,    CONO	130,130
000516  713140 001561    Y9@ -Q    rf??8    DATAO	130,1561
000517  262040 000004    60@  $    ,B???    POP	1,4
000520  254520 000526    5E0 %6    +???+    JRST	12,@526
000521  201240 604345    0*@PCE     *??r    MOVEI	5,604345
000522  700340 200000    X#@0      p????    CONSO	0,200000
000523  201240 515455    0*@ILM     *???    MOVEI	5,515455
000524  700200 433556    X" C=N    p??77    CONO	0,433556
000525  201040 066107    0(@&Q'     "?l#    MOVEI	1,66107
000526  202240 000040    02@  @     J???    MOVEM	5,40
000527  200240 000526    0"@ %6     ???+    MOVE	5,526
000530  254400 000566    5D  %V    +???;    JRST	10,566
000531  266260 000041    6RP  A    -K???    JSA	5,@41
000532  000000 000000              ?????    UUO00	0,0
000533  134200 777777    +B ___    ?????    ILDB	4,777777
000534  326200 000713    :R  '+    5H??e    JUMPN	4,713
000535  402000 777777    @0 ___    @@???    SETZM	0,777777
000536  260040 001200    6 @ *     ,???@    PUSHJ	1,1200
000537  335000 000710    ;H  '(    7 ??d    SKIPGE	0,710
000540  254000 000112    5@  !*    +???%    JRST	0,112
000541  337000 001012    ;X  (*    7`???    SKIPG	0,1012
000542  254000 000574    5@  %\    +???>    JRST	0,574
000543  200200 001011    0"  ()     ????    MOVE	4,1011
000544  316200 001562    9R  -R    3H??9    CAMN	4,1562
000545  201200 001014    0*  (,     (???    MOVEI	4,1014
000546  542200 001011    L2  ()    XH???    HRRM	4,1011
000547  134200 001011    +B  ()    ?????    ILDB	4,1011
000550  370000 001012    ?   (*    >????    SOS	0,1012
000551  263040 000000    68@       ,b???    POPJ	1,0
000552  201200 000011    0*   )     (???    MOVEI	4,11
000553  356000 000712    =P  '*    ;@??e    AOSN	0,712
000554  306200 000012    8R   *    1H???    CAIN	4,12
000555  254000 000617    5@  &/    +???G    JRST	0,617
000556  261040 000004    6(@  $    ,"???    PUSH	1,4
000557  201200 000012    0*   *     (???    MOVEI	4,12
000560  260040 000610    6 @ &(    ,???D    PUSHJ	1,610
000561  262040 000004    60@  $    ,B???    POP	1,4
000562  337000 001007    ;X  ('    7`???    SKIPG	0,1007
000563  254000 000617    5@  &/    +???G    JRST	0,617
000564  136200 001005    +R  (%    ?H???    IDPB	4,1005
000565  370000 001007    ?   ('    >????    SOS	0,1007
000566  250200 001005    5"  (%    *????    EXCH	4,1005
000567  316200 001563    9R  -S    3H??9    CAMN	4,1563
000570  541200 001046    L*  (F    X(???    HRRI	4,1046
000571  250200 001005    5"  (%    *????    EXCH	4,1005
000572  306200 000015    8R   -    1H???    CAIN	4,15
000573  476000 000712    GP  '*    O@??e    SETOM	0,712
000574  712340 000030    Y3@  8    rN???    CONSO	120,30
000575  712200 000016    Y2   .    rH???    CONO	120,16
000576  263040 000000    68@       ,b???    POPJ	1,0
000577  712300 000010    Y3   (    rL???    CONSZ	120,10
000600  254000 000716    5@  '.    +???g    JRST	0,716
000601  712340 000040    Y3@  @    rN???    CONSO	120,40
000602  254000 000556    5@  %N    +???7    JRST	0,556
000603  712040 000004    Y0@  $    rB???    DATAI	120,4
000604  620200 000200    R"  "     d???@    TRZ	4,200
000605  302200 000033    82   ;    0H???    CAIE	4,33
000606  306200 000176    8R  !^    1H???    CAIN	4,176
000607  201200 000175    0*  !]     (??>    MOVEI	4,175
000610  306200 000175    8R  !]    1H??>    CAIN	4,175
000611  201200 000044    0*   D     (???    MOVEI	4,44
000612  260040 000345    6 @ #E    ,???r    PUSHJ	1,345
000613  261040 000005    6(@  %    ,"???    PUSH	1,5
000614  200240 001014    0"@ (,     ????    MOVE	5,1014
000615  270240 001012    7"@ (*    .????    ADD	5,1012
000616  301240 000200    8*@ "     0*??@    CAIL	5,200
000617  661200 400000    V* @      l(???    TLO	4,400000
000620  262040 000005    60@  %    ,B???    POP	1,5
000621  321200 000670    :*  &X    4(??\    JUMPL	4,670
000622  136200 001010    +R  ((    ?H???    IDPB	4,1010
000623  465200 000177    FJ  !_    M(???    ORCMI	4,177
000624  342200 000673    <2  &[    8H??]    AOJE	4,673
000625  402000 000710    @0  '(    @@??d    SETZM	0,710
000626  200200 001010    0"  ((     ????    MOVE	4,1010
000627  316200 001562    9R  -R    3H??9    CAMN	4,1562
000630  201200 001014    0*  (,     (???    MOVEI	4,1014
000631  542200 001010    L2  ((    XH???    HRRM	4,1010
000632  354000 001014    =@  (,    ;????    AOSA	0,1014
000633  476000 001110    GP  )(    O@??$    SETOM	0,1110
000634  260040 000631    6 @ &9    ,???L    PUSHJ	1,631
000635  254000 000554    5@  %L    +???6    JRST	0,554
000636  200200 000567    0"  %W     ???;    MOVE	4,567
000637  336000 000710    ;P  '(    7@??d    SKIPN	0,710
000640  202200 000711    02  ')     H??d    MOVEM	4,711
000641  350200 000710    ="  '(    :???d    AOS	4,710
000642  302200 000003    82   #    0H???    CAIE	4,3
000643  254000 000663    5@  &S    +???Y    JRST	0,663
000644  200200 000567    0"  %W     ???;    MOVE	4,567
000645  274200 000711    7B  ')    /???d    SUB	4,711
000646  301200 000031    8*   9    0(???    CAIL	4,31
000647  254000 000662    5@  &R    +???Y    JRST	0,662
000650  563000 000710    N8  '(    \`??d    HRROS	0,710
000651  476000 001004    GP  ($    O@???    SETOM	0,1004
000652  254000 000663    5@  &S    +???Y    JRST	0,663
000653  246001 206043    4P!0PC    )@???    LSHC	0,206043(1)
000654  777677 000713    _^_ '+    ?{x?e    CONI	774,@713(17)
000655  306200 000175    8R  !]    1H??>    CAIN	4,175
000656  201200 000044    0*   D     (???    MOVEI	4,44
000657  254000 000345    5@  #E    +???r    JRST	0,345
000660  201200 000012    0*   *     (???    MOVEI	4,12
000661  356000 001107    =P  )'    ;@??#    AOSN	0,1107
000662  254000 000741    5@  'A    +???p    JRST	0,741
000663  201200 000007    0*   '     (???    MOVEI	4,7
000664  356000 001110    =P  )(    ;@??$    AOSN	0,1110
000665  254000 000741    5@  'A    +???p    JRST	0,741
000666  201200 000040    0*   @     (???    MOVEI	4,40
000667  357000 001111    =X  ))    ;`??$    AOSG	0,1111
000670  254000 000741    5@  'A    +???p    JRST	0,741
000671  200200 001007    0"  ('     ????    MOVE	4,1007
000672  301200 000240    8*  "@    0(??P    CAIL	4,240
000673  254000 000751    5@  'I    +???t    JRST	0,751
000674  200200 001006    0"  (&     ????    MOVE	4,1006
000675  316200 001563    9R  -S    3H??9    CAMN	4,1563
000676  201200 001046    0*  (F     (???    MOVEI	4,1046
000677  542200 001006    L2  (&    XH???    HRRM	4,1006
000700  134200 001006    +B  (&    ?????    ILDB	4,1006
000701  350000 001007    =   ('    :????    AOS	0,1007
000702  260040 000345    6 @ #E    ,???r    PUSHJ	1,345
000703  302200 000011    82   )    0H???    CAIE	4,11
000704  254000 000746    5@  'F    +???s    JRST	0,746
000705  211200 000003    1*   #    "(???    MOVNI	4,3
000706  202200 001111    02  ))     H??$    MOVEM	4,1111
000707  254000 000554    5@  %L    +???6    JRST	0,554
000710  331000 001004    ;(  ($    6 ???    SKIPL	0,1004
000711  712140 000004    Y1@  $    rF???    DATAO	120,4
000712  254000 000554    5@  %L    +???6    JRST	0,554
000713  337000 001014    ;X  (,    7`???    SKIPG	0,1014
000714  254000 000774    5@  '\    +???~    JRST	0,774
000715  200200 001013    0"  (+     ????    MOVE	4,1013
000716  316200 001562    9R  -R    3H??9    CAMN	4,1562
000717  201200 001014    0*  (,     (???    MOVEI	4,1014
000720  542200 001013    L2  (+    XH???    HRRM	4,1013
000721  201200 000012    0*   *     (???    MOVEI	4,12
000722  542200 000716    L2  '.    XH??g    HRRM	4,716
000723  134200 001013    +B  (+    ?????    ILDB	4,1013
000724  370000 001014    ?   (,    >????    SOS	0,1014
000725  350000 001012    =   (*    :????    AOS	0,1012
000726  306200 000015    8R   -    1H???    CAIN	4,15
000727  476000 001107    GP  )'    O@??#    SETOM	0,1107
000730  306200 000010    8R   (    1H???    CAIN	4,10
000731  254000 000776    5@  '^    +????    JRST	0,776
000732  303200 000006    8:   &    0h???    CAILE	4,6
000733  301200 000016    8*   .    0(???    CAIL	4,16
000734  254000 000776    5@  '^    +????    JRST	0,776
000735  254000 000741    5@  'A    +???p    JRST	0,741
000736  712200 000206    Y2  "&    rH??C    CONO	120,206
000737  254000 000554    5@  %L    +???6    JRST	0,554
000740  301200 000040    8*   @    0(???    CAIL	4,40
000741  254000 000741    5@  'A    +???p    JRST	0,741
000742  271200 000100    7*  !     .(??     ADDI	4,100
000743  542200 000716    L2  '.    XH??g    HRRM	4,716
000744  201200 000136    0*  !>     (??/    MOVEI	4,136
000745  254000 000765    5@  'U    +???z    JRST	0,765
000746  000000 000000              ?????    UUO00	0,0
000747  010700 001046    !'  (F    ?????    UUO10	16,1046
000750  010700 001046    !'  (F    ?????    UUO10	16,1046
000751  000000 000240        "@    ????P    UUO00	0,240
000752  010700 001014    !'  (,    ?????    UUO10	16,1014
000753  010700 001014    !'  (,    ?????    UUO10	16,1014
000754  000000 000000              ?????    UUO00	0,0
000755  010700 001014    !'  (,    ?????    UUO10	16,1014
000756  235132 113355    3I:);M    '%Q?v    DIVI	2,@113355(12)
000757  777727 001112    __7 )*    ?}8?%    CONSZ	774,@1112(7)
000760  357000 001164    =X  )T    ;`??:    AOSG	0,1164
000761  254000 001140    5@  )@    +???0    JRST	0,1140
000762  201200 000020    0*   0     (???    MOVEI	4,20
000763  331000 000476    ;(  $^    6 ???    SKIPL	0,476
000764  260040 001152    6 @ )J    ,???5    PUSHJ	1,1152
000765  337000 001163    ;X  )S    7`??9    SKIPG	0,1163
000766  254000 001112    5@  )*    +???%    JRST	0,1112
000767  550200 001161    M"  )Q    Z???8    HRRZ	4,1161
000770  306200 001536    8R  ->    1H??/    CAIN	4,1536
000771  201200 001517    0*  -/     (??'    MOVEI	4,1517
000772  542200 001161    L2  )Q    XH??8    HRRM	4,1161
000773  370200 001163    ?"  )S    >???9    SOS	4,1163
000774  331000 001164    ;(  )T    6 ??:    SKIPL	0,1164
000775  301200 000074    8*   \    0(???    CAIL	4,74
000776  254000 001133    5@  );    +???-    JRST	0,1133
000777  331000 000476    ;(  $^    6 ???    SKIPL	0,476
001000  260040 001151    6 @ )I    ,???4    PUSHJ	1,1151
001001  134200 001161    +B  )Q    ????8    ILDB	4,1161
001002  306200 000177    8R  !_    1H???    CAIN	4,177
001003  254000 001117    5@  )/    +???'    JRST	0,1117
001004  322200 001117    :2  )/    4H??'    JUMPE	4,1117
001005  263040 000000    68@       ,b???    POPJ	1,0
001006  710600 000000    Y&        r????    CONO	104,0
001007  211200 000010    1*   (    "(???    MOVNI	4,10
001010  202200 001163    02  )S     H??9    MOVEM	4,1163
001011  200200 001162    0"  )R     ???9    MOVE	4,1162
001012  202200 001161    02  )Q     H??8    MOVEM	4,1161
001013  201200 264000    0* 6@      (?h?    MOVEI	4,264000
001014  506200 000476    HR  $^    QH???    HRLM	4,476
001015  201200 000214    0*  ",     (??F    MOVEI	4,214
001016  263040 000000    68@       ,b???    POPJ	1,0
001017  201200 000010    0*   (     (???    MOVEI	4,10
001020  212200 001165    12  )U    "H??:    MOVNM	4,1165
001021  710700 000020    Y'   0    r????    CONSZ	104,20
001022  254000 001153    5@  )K    +???5    JRST	0,1153
001023  505200 710440    HJ Y$@    Q(???    HRLI	4,710440
001024  502200 000476    H2  $^    PH???    HLLM	4,476
001025  710604 000004    Y&$  $    r? ??    CONO	104,4(4)
001026  263040 000000    68@       ,b???    POPJ	1,0
001027  000700 001517     '  -/    ????'    UUO00	16,1517
001030  000700 001517     '  -/    ????'    UUO00	16,1517
001031  054517 076330    %E/'S8    ??x|l    UUO54	12,76330(17)
001032  777531 001166    _]9 )V    ?uH?;    BLKO	774,@1166(11)
001033  337000 001225    ;X  *5    7`??J    SKIPG	0,1225
001034  254000 001166    5@  )V    +???;    JRST	0,1166
001035  136200 001226    +R  *6    ?H??K    IDPB	4,1226
001036  550200 001226    M"  *6    Z???K    HRRZ	4,1226
001037  306200 001515    8R  --    1H??&    CAIN	4,1515
001040  201200 001446    0*  ,F     (???    MOVEI	4,1446
001041  542200 001226    L2  *6    XH??K    HRRM	4,1226
001042  370200 001225    ?"  *5    >???J    SOS	4,1225
001043  301200 000154    8*  !L    0(??6    CAIL	4,154
001044  263040 000000    68@       ,b???    POPJ	1,0
001045  710340 000007    Y#@  '    r????    CONSO	100,7
001046  710200 000013    Y"   +    r????    CONO	100,13
001047  263040 000000    68@       ,b???    POPJ	1,0
001050  000000 000000              ?????    UUO00	0,0
001051  264000 002631    6@  69    -???L    JSR	0,2631
001052  261040 000004    6(@  $    ,"???    PUSH	1,4
001053  710340 000010    Y#@  (    r????    CONSO	100,10
001054  254000 001631    5@  .9    +???L    JRST	0,1631
001055  201200 000234    0*  "<     (??N    MOVEI	4,234
001056  317200 001225    9Z  *5    3h??J    CAMG	4,1225
001057  254000 001222    5@  *2    +???I    JRST	0,1222
001060  134200 001227    +B  *7    ????K    ILDB	4,1227
001061  710140 000004    Y!@  $    r????    DATAO	100,4
001062  550200 001227    M"  *7    Z???K    HRRZ	4,1227
001063  306200 001515    8R  --    1H??&    CAIN	4,1515
001064  201200 001446    0*  ,F     (???    MOVEI	4,1446
001065  542200 001227    L2  *7    XH??K    HRRM	4,1227
001066  354000 001225    =@  *5    ;???J    AOSA	0,1225
001067  710200 000000    Y"        r????    CONO	100,0
001070  262040 000004    60@  $    ,B???    POP	1,4
001071  254520 001203    5E0 *#    +???A    JRST	12,@1203
001072  000000 000234        "<    ????N    UUO00	0,234
001073  001000 001445     (  ,E    ? ???    UUO01	0,1445
001074  001000 001445     (  ,E    ? ???    UUO01	0,1445
001075  263040 000000    68@       ,b???    POPJ	1,0
001076  334200 000005    ;B   %    7????    SKIPA	4,5
001077  205200 400000    0J @      !(???    MOVSI	4,400000
001100  205240 400000    0J@@      !*???    MOVSI	5,400000
001101  200400 001564    0$  -T     ???:    MOVE	10,1564
001102  260040 000240    6 @ "@    ,???P    PUSHJ	1,240
001103  306440 000044    8T@  D    1R???    CAIN	11,44
001104  263040 000000    68@       ,b???    POPJ	1,0
001105  640440 000040    T$@  @    h????    TRC	11,40
001106  322440 001231    :4@ *9    4R??L    JUMPE	11,1231
001107  306440 000077    8T@  _    1R???    CAIN	11,77
001110  201440 000000    0,@        2???    MOVEI	11,0
001111  312400 001565    94  -U    2P??:    CAME	10,1565
001112  136440 000010    +T@  (    ?R???    IDPB	11,10
001113  254000 001235    5@  *=    +???N    JRST	0,1235
001114  135200 001566    +J  -V    ?(??;    LDB	4,1566
001115  260040 003444    6 @ <D    ,????    PUSHJ	1,3444
001116  264000 000234    6@  "<    -???N    JSR	0,234
001117  200200 001435    0"  ,=     ????    MOVE	4,1435
001120  200240 001436    0"@ ,>     ????    MOVE	5,1436
001121  254000 001262    5@  *R    +???Y    JRST	0,1262
001122  201200 000021    0*   1     (???    MOVEI	4,21
001123  260040 000345    6 @ #E    ,???r    PUSHJ	1,345
001124  260040 001232    6 @ *:    ,???M    PUSHJ	1,1232
001125  202200 001435    02  ,=     H???    MOVEM	4,1435
001126  202240 001436    02@ ,>     J???    MOVEM	5,1436
001127  260040 003201    6 @ :!    ,???@    PUSHJ	1,3201
001130  254000 001265    5@  *U    +???Z    JRST	0,1265
001131  263040 000000    68@       ,b???    POPJ	1,0
001132  074000 001567    '@  -W    ????;    UUO74	0,1567
001133  254000 000122    5@  !2    +???)    JRST	0,122
001134  200300 003621    0#  >1     ???H    MOVE	6,3621
001135  200306 000177    0#& !_     ?0??    MOVE	6,177(6)
001136  316300 001573    9S  -[    3L??=    CAMN	6,1573
001137  254000 001276    5@  *^    +???_    JRST	0,1276
001140  242300 000006    43   &    (L???    LSH	6,6
001141  260040 001352    6 @ +J    ,???u    PUSHJ	1,1352
001142  260040 001420    6 @ ,0    ,????    PUSHJ	1,1420
001143  200600 001576    0&  -^     ????    MOVE	14,1576
001144  260040 001353    6 @ +K    ,???u    PUSHJ	1,1353
001145  260040 001353    6 @ +K    ,???u    PUSHJ	1,1353
001146  260040 000607    6 @ &'    ,???C    PUSHJ	1,607
001147  205400 777750    0L __H    !0??t    MOVSI	10,777750
001150  201540 000000    0-@        6???    MOVEI	13,0
001151  200500 003621    0%  >1     ???H    MOVE	12,3621
001152  275500 000002    7M   "    /4???    SUBI	12,2
001153  254000 001331    5@  +9    +???l    JRST	0,1331
001154  271500 000002    7-   "    .4???    ADDI	12,2
001155  336312 000000    ;S*       7LP??    SKIPN	6,0(12)
001156  253400 001307    5<  +'    *p??c    AOBJN	10,1307
001157  607400 777777    P\ ___    ap???    TLNN	10,777777
001160  263040 000000    68@       ,b???    POPJ	1,0
001161  270400 003621    7$  >1    .???H    ADD	10,3621
001162  200250 000055    0"H  M     ?@??    MOVE	5,55(10)
001163  135200 001577    +J  -_    ?(???    LDB	4,1577
001164  137240 001600    +Z@ .     ?j??@    DPB	5,1600
001165  274400 003621    7D  >1    /???H    SUB	10,3621
001166  271200 000040    7*   @    .(???    ADDI	4,40
001167  260040 000610    6 @ &(    ,???D    PUSHJ	1,610
001170  201200 000040    0*   @     (???    MOVEI	4,40
001171  260040 000610    6 @ &(    ,???D    PUSHJ	1,610
001172  260040 001351    6 @ +I    ,???t    PUSHJ	1,1351
001173  200312 000001    0#*  !     ?P??    MOVE	6,1(12)
001174  260040 001351    6 @ +I    ,???t    PUSHJ	1,1351
001175  550540 000010    M%@  (    Z????    HRRZ	13,10
001176  403200 000003    @:   #    @h???    SETZB	4,3
001177  200600 003622    0&  >2     ???I    MOVE	14,3622
001200  134440 000014    +D@  ,    ?????    ILDB	11,14
001201  306453 000000    8TK       1RX??    CAIN	11,0(13)
001202  350000 000003    =    #    :????    AOS	0,3
001203  302440 000037    84@  ?    0R???    CAIE	11,37
001204  254000 001333    5@  +;    +???m    JRST	0,1333
001205  202340 001445    03@ ,E     N???    MOVEM	7,1445
001206  322540 001343    :5@ +C    4V??q    JUMPE	13,1343
001207  260040 003161    6 @ 9Q    ,???8    PUSHJ	1,3161
001210  334240 000003    ;B@  #    7????    SKIPA	5,3
001211  254000 001370    5@  +X    +???|    JRST	0,1370
001212  200340 001445    0#@ ,E     ????    MOVE	7,1445
001213  260040 001361    6 @ +Q    ,???x    PUSHJ	1,1361
001214  260040 001420    6 @ ,0    ,????    PUSHJ	1,1420
001215  254000 001311    5@  +)    +???d    JRST	0,1311
001216  261040 001360    6(@ +P    ,"??x    PUSH	1,1360
001217  200600 001565    0&  -U     ???:    MOVE	14,1565
001220  201140 000006    0)@  &     &???    MOVEI	3,6
001221  134200 000014    +B   ,    ?????    ILDB	4,14
001222  271200 000040    7*   @    .(???    ADDI	4,40
001223  260040 000610    6 @ &(    ,???D    PUSHJ	1,610
001224  367140 001354    >Y@ +L    =f??v    SOJG	3,1354
001225  263040 000607    68@ &'    ,b??C    POPJ	1,607
001226  231240 000012    3*@  *    &*???    IDIVI	5,12
001227  506301 000000    HS!       QL???    HRLM	6,0(1)
001230  322240 001365    :2@ +U    4J??z    JUMPE	5,1365
001231  260040 001361    6 @ +Q    ,???x    PUSHJ	1,1361
001232  554201 000000    MB!       [????    HLRZ	4,0(1)
001233  271200 000060    7*   P    .(???    ADDI	4,60
001234  254000 000610    5@  &(    +???D    JRST	0,610
001235  550540 000006    M%@  &    Z????    HRRZ	13,6
001236  200340 001445    0#@ ,E     ????    MOVE	7,1445
001237  254000 001332    5@  +:    +???m    JRST	0,1332
001240  260040 001232    6 @ *:    ,???M    PUSHJ	1,1232
001241  260040 003161    6 @ 9Q    ,???8    PUSHJ	1,3161
001242  254000 001265    5@  *U    +???Z    JRST	0,1265
001243  261040 000007    6(@  '    ,"???    PUSH	1,7
001244  260040 001232    6 @ *:    ,???M    PUSHJ	1,1232
001245  260040 003161    6 @ 9Q    ,???8    PUSHJ	1,3161
001246  254000 001404    5@  ,$    +????    JRST	0,1404
001247  312341 000000    93A       2N???    CAME	7,0(1)
001250  074000 001601    '@  .!    ????@    UUO74	0,1601
001251  262040 000007    60@  '    ,B???    POP	1,7
001252  202207 000000    02'        H8??    MOVEM	4,0(7)
001253  202247 000001    02G  !     J8??    MOVEM	5,1(7)
001254  263040 000000    68@       ,b???    POPJ	1,0
001255  201200 000024    0*   4     (???    MOVEI	4,24
001256  260040 000345    6 @ #E    ,???r    PUSHJ	1,345
001257  201200 000027    0*   7     (???    MOVEI	4,27
001260  260040 000345    6 @ #E    ,???r    PUSHJ	1,345
001261  200200 000005    0"   %     ????    MOVE	4,5
001262  260040 003305    6 @ ;%    ,???b    PUSHJ	1,3305
001263  264000 000234    6@  "<    -???N    JSR	0,234
001264  263040 000000    68@       ,b???    POPJ	1,0
001265  201200 000015    0*   -     (???    MOVEI	4,15
001266  260040 000610    6 @ &(    ,???D    PUSHJ	1,610
001267  201200 000012    0*   *     (???    MOVEI	4,12
001270  254000 000610    5@  &(    +???D    JRST	0,610
001271  260040 001232    6 @ *:    ,???M    PUSHJ	1,1232
001272  254000 003521    5@  =1    +???(    JRST	0,3521
001273  260040 001232    6 @ *:    ,???M    PUSHJ	1,1232
001274  201300 000003    0+   #     ,???    MOVEI	6,3
001275  332000 014735    ;0 !G=    6@??n    SKIPE	0,14735
001276  201300 000002    0+   "     ,???    MOVEI	6,2
001277  260040 003241    6 @ :A    ,???P    PUSHJ	1,3241
001300  074000 001605    '@  .%    ????B    UUO74	0,1605
001301  263040 000000    68@       ,b???    POPJ	1,0
001302  070044 755657    ' D]NO    ??'[W    UUO70	1,755657(4)
001303  777730 001540    __8 -@    ?}@?0    CONSZ	774,@1540(10)
001304  773000 066107    _8 &Q'    ~`?l#    BLKI	730,66107
001305  000700 001607     '  .'    ????C    UUO00	16,1607
001306  350700 001610    ='  .(    :???D    AOS	16,1610
001307  522371 720232    J3YZ":    TOO M    HLLOM	7,@720232(11)
001310  406353 120210    @SK*"(    ANY D    ANDM	7,120210(13)
001311  446450 541650    DTHL.H    IRECT    EQVM	11,541650(10)
001312  476451 142646    GTI,6F    ORIES    SETOM	11,142646(11)
001313  064244 100000    &BD(      ??!??    UUO64	5,100000(4)
001314  261040 000005    6(@  %    ,"???    PUSH	1,5
001315  260040 003564    6 @ =T    ,???:    PUSHJ	1,3564
001316  260040 002737    6 @ 7?    ,???o    PUSHJ	1,2737
001317  606000 010000    PP !      a@???    TRNN	0,10000
001320  134200 003617    +B  >/    ????G    ILDB	4,3617
001321  254000 002277    5@  2_    +???_    JRST	0,2277
001322  254000 000610    5@  &(    +???D    JRST	0,610
001323  260040 016145    6 @!QE    ,???2    PUSHJ	1,16145
001324  254000 000256    5@  "N    +???W    JRST	0,256
001325  000000 003000        8     ?????    UUO00	0,3000
001326  010700 001046    !'  (F    ?????    UUO10	16,1046
001327  010700 001106    !'  )&    ????#    UUO10	16,1106
001330  000600 000004     &   $    ?????    UUO00	14,4
001331  000600 000005     &   %    ?????    UUO00	14,5
001332  270400 002762    7$  7R    .???y    ADD	10,2762
001333  432231 442500    C29D5     FILE     XORM	4,@442500(11)
001334  472372 420214    G3ZB",    NOT F    ORCBM	7,@420214(12)
001335  476531 642032    GU9T0:    OUND?    SETOM	12,@642032(11)
001336  051020 000000    %(0       ?!???    UUO51	0,@0
001337  777777 777777    ______    ?????    CONSO	774,@777777(17)
001340  466245 450042    FREE B    MJ,P?    ORCMM	5,450042(5)
001341  545743 536300    LOCKS     Y>?<`    HLRI	17,536300(3)
001342  000600 001573     &  -[    ????=    UUO00	14,1573
001343  000110 000104     !( !$    ??@?"    UUO00	2,104(10)
001344  010100 000004    !!   $    ?????    UUO10	2,4
001345  406312 242602    @S*46"    ALREA    ANDM	6,242602(12)
001346  422624 042660    B64$6P    DY EX    ANDCMM	14,@42660(4)
001347  446472 451432    DTZE,:    ISTS?    EQVM	11,@451432(12)
001350  051020 000000    %(0       ?!???    UUO51	0,@0
001351  522032 042500    J0:$5     TAPE     HLLOM	0,@42500(12)
001352  432531 446032    C59DP:    FULL?    XORM	12,@446032(11)
001353  051020 000000    %(0       ?!???    UUO51	0,@0
001354  422140 602623    B1@P63    DF??I    ANDCMM	3,602623
001355  777767 001631    __W .9    ??8?L    CONSO	774,@1631(7)
001356  713340 007400    Y;@ \     rn???    CONSO	130,7400
001357  254000 001223    5@  *3    +???I    JRST	0,1223
001360  250200 001641    5"  .A    *???P    EXCH	4,1641
001361  202200 001640    02  .@     H??P    MOVEM	4,1640
001362  250200 001641    5"  .A    *???P    EXCH	4,1641
001363  713200 000137    Y:  !?    rh??/    CONO	130,137
001364  254000 001223    5@  *3    +???I    JRST	0,1223
001365  000000 001641        .A    ????P    UUO00	0,1641
001366  000000 001641        .A    ????P    UUO00	0,1641
001367  515006 225632    IH&2N:    S 2+M    HRLZI	0,225632(6)
001370  777777 002242    ___ 2B    ??x?Q    CONSO	774,@2242(17)
001371  000000 000020         0    ?????    UUO00	0,20
001372  777776 004525    __^ E5    ??p?*    CONSO	774,@4525(16)
001373  777534 002246    _]< 2F    ?u`?S    BLKO	774,@2246(14)
001374  261040 000004    6(@  $    ,"???    PUSH	1,4
001375  261040 000005    6(@  %    ,"???    PUSH	1,5
001376  713200 000100    Y:  !     rh??     CONO	130,100
001377  201200 001641    0*  .A     (??P    MOVEI	4,1641
001400  201240 020117    0*@"!/     *? '    MOVEI	5,20117
001401  434240 002242    CB@ 2B    G???Q    IOR	5,2242
001402  261200 000005    6*   %    ,(???    PUSH	4,5
001403  261200 002453    6*  4K    ,(???    PUSH	4,2453
001404  505200 000600    HJ  &     Q(??@    HRLI	4,600
001405  202200 002245    02  2E     H??R    MOVEM	4,2245
001406  135240 002454    +J@ 4L    ?*???    LDB	5,2454
001407  213000 000005    18   %    "`???    MOVNS	0,5
001410  201200 000252    0*  "J     (??U    MOVEI	4,252
001411  242205 000000    42%       (H(??    LSH	4,0(5)
001412  620200 000007    R"   '    d????    TRZ	4,7
001413  202200 002243    02  2C     H??Q    MOVEM	4,2243
001414  212200 002244    12  2D    "H??R    MOVNM	4,2244
001415  201200 000050    0*   H     (???    MOVEI	4,50
001416  202200 002370    02  3X     H??|    MOVEM	4,2370
001417  254000 002450    5@  4H    +????    JRST	0,2450
001420  261040 000004    6(@  $    ,"???    PUSH	1,4
001421  260040 002427    6 @ 47    ,????    PUSHJ	1,2427
001422  260040 000570    6 @ %X    ,???<    PUSHJ	1,570
001423  260040 002246    6 @ 2F    ,???S    PUSHJ	1,2246
001424  262040 000004    60@  $    ,B???    POP	1,4
001425  336000 002370    ;P  3X    7@??|    SKIPN	0,2370
001426  254000 002272    5@  2Z    +???]    JRST	0,2272
001427  261040 000004    6(@  $    ,"???    PUSH	1,4
001430  301200 000040    8*   @    0(???    CAIL	4,40
001431  303200 000132    8:  !:    0h??-    CAILE	4,132
001432  254000 002315    5@  3-    +???f    JRST	0,2315
001433  357000 002244    =X  2D    ;`??R    AOSG	0,2244
001434  136200 002245    +R  2E    ?H??R    IDPB	4,2245
001435  550200 002245    M"  2E    Z???R    HRRZ	4,2245
001436  303200 002237    8:  2?    0h??O    CAILE	4,2237
001437  402000 002370    @0  3X    @@??|    SETZM	0,2370
001440  262040 000004    60@  $    ,B???    POP	1,4
001441  202200 002452    02  4J     H???    MOVEM	4,2452
001442  263040 000000    68@       ,b???    POPJ	1,0
001443  306200 000015    8R   -    1H???    CAIN	4,15
001444  254000 002332    5@  3:    +???m    JRST	0,2332
001445  306200 000012    8R   *    1H???    CAIN	4,12
001446  254000 002351    5@  3I    +???t    JRST	0,2351
001447  306200 000007    8R   '    1H???    CAIN	4,7
001450  254000 002360    5@  3P    +???x    JRST	0,2360
001451  302200 000011    82   )    0H???    CAIE	4,11
001452  254000 002337    5@  3?    +???o    JRST	0,2337
001453  201200 000040    0*   @     (???    MOVEI	4,40
001454  260040 002371    6 @ 3Y    ,???|    PUSHJ	1,2371
001455  135200 002455    +J  4M    ?(???    LDB	4,2455
001456  326200 002325    :R  35    5H??j    JUMPN	4,2325
001457  254000 002312    5@  3*    +???e    JRST	0,2312
001460  200200 002243    0"  2C     ???Q    MOVE	4,2243
001461  212200 002244    12  2D    "H??R    MOVNM	4,2244
001462  201200 000034    0*   <     (???    MOVEI	4,34
001463  260040 002373    6 @ 3[    ,???}    PUSHJ	1,2373
001464  254000 002355    5@  3M    +???v    JRST	0,2355
001465  301200 000040    8*   @    0(???    CAIL	4,40
001466  303200 000140    8:  !@    0h??0    CAILE	4,140
001467  254000 002375    5@  3]    +???~    JRST	0,2375
001470  204204 002227    0B$ 27    !? ?K    MOVS	4,2227(4)
001471  541200 000036    L*   >    X(???    HRRI	4,36
001472  136200 002245    +R  2E    ?H??R    IDPB	4,2245
001473  207000 000004    0X   $    !`???    MOVSS	0,4
001474  136200 002245    +R  2E    ?H??R    IDPB	4,2245
001475  201200 000035    0*   =     (???    MOVEI	4,35
001476  254000 002305    5@  3%    +???b    JRST	0,2305
001477  250200 002452    5"  4J    *????    EXCH	4,2452
001500  302200 000015    82   -    0H???    CAIE	4,15
001501  316200 002452    9R  4J    3H???    CAMN	4,2452
001502  254000 002312    5@  3*    +???e    JRST	0,2312
001503  370000 002370    ?   3X    >???|    SOS	0,2370
001504  201200 000033    0*   ;     (???    MOVEI	4,33
001505  254000 002306    5@  3&    +???c    JRST	0,2306
001506  205200 000063    0J   S    !(???    MOVSI	4,63
001507  254000 002343    5@  3C    +???q    JRST	0,2343
001510  000000 000053         K    ?????    UUO00	0,53
001511  000000 000052         J    ?????    UUO00	0,52
001512  000000 000054         L    ?????    UUO00	0,54
001513  000000 000046         F    ?????    UUO00	0,46
001514  000000 000051         I    ?????    UUO00	0,51
001515  000000 000050         H    ?????    UUO00	0,50
001516  000000 000000              ?????    UUO00	0,0
001517  261040 000004    6(@  $    ,"???    PUSH	1,4
001520  254000 002305    5@  3%    +???b    JRST	0,2305
001521  261040 000004    6(@  $    ,"???    PUSH	1,4
001522  254000 002306    5@  3&    +???c    JRST	0,2306
001523  261040 000004    6(@  $    ,"???    PUSH	1,4
001524  201200 000036    0*   >     (???    MOVEI	4,36
001525  136200 002245    +R  2E    ?H??R    IDPB	4,2245
001526  201200 000050    0*   H     (???    MOVEI	4,50
001527  136200 002245    +R  2E    ?H??R    IDPB	4,2245
001530  201200 000073    0*   [     (???    MOVEI	4,73
001531  136200 002245    +R  2E    ?H??R    IDPB	4,2245
001532  201200 000035    0*   =     (???    MOVEI	4,35
001533  136200 002245    +R  2E    ?H??R    IDPB	4,2245
001534  200201 000000    0"!        ????    MOVE	4,0(1)
001535  305200 000100    8J  !     1(??     CAIGE	4,100
001536  254000 002413    5@  4+    +????    JRST	0,2413
001537  201200 000061    0*   Q     (???    MOVEI	4,61
001540  260040 002371    6 @ 3Y    ,???|    PUSHJ	1,2371
001541  200201 000000    0"!        ????    MOVE	4,0(1)
001542  405200 000070    @J   X    A(???    ANDI	4,70
001543  322200 002421    :2  41    4H???    JUMPE	4,2421
001544  242200 777775    42 __]    (H??~    LSH	4,777775
001545  271200 000060    7*   P    .(???    ADDI	4,60
001546  260040 002371    6 @ 3Y    ,???|    PUSHJ	1,2371
001547  262040 000004    60@  $    ,B???    POP	1,4
001550  405200 000007    @J   '    A(???    ANDI	4,7
001551  271200 000060    7*   P    .(???    ADDI	4,60
001552  260040 002371    6 @ 3Y    ,???|    PUSHJ	1,2371
001553  205200 000077    0J   _    !(???    MOVSI	4,77
001554  254000 002343    5@  3C    +???q    JRST	0,2343
001555  261040 000004    6(@  $    ,"???    PUSH	1,4
001556  261040 000005    6(@  %    ,"???    PUSH	1,5
001557  200200 002245    0"  2E     ???R    MOVE	4,2245
001560  201240 000037    0*@  ?     *???    MOVEI	5,37
001561  136240 000004    +R@  $    ?J???    IDPB	5,4
001562  603200 550000    P: M      `h?P?    TLNE	4,550000
001563  254000 002433    5@  4;    +????    JRST	0,2433
001564  641200 002400    T*  4     h(???    TLC	4,2400
001565  201240 003000    0*@ 8      *???    MOVEI	5,3000
001566  136240 000004    +R@  $    ?J???    IDPB	5,4
001567  553000 000004    M8   $    Z`???    HRRZS	0,4
001570  201240 000003    0*@  #     *???    MOVEI	5,3
001571  305200 001666    8J  .V    1(??[    CAIGE	4,1666
001572  432240 001642    C2@ .B    FJ??Q    XORM	5,1642
001573  700600 002221    X&  21    p???H    CONO	4,2221
001574  713200 000130    Y:  !8    rh??,    CONO	130,130
001575  713140 002456    Y9@ 4N    rf???    DATAO	130,2456
001576  262040 000005    60@  %    ,B???    POP	1,5
001577  254000 002312    5@  3*    +???e    JRST	0,2312
001600  000000 000000              ?????    UUO00	0,0
001601  221700 060000    2/ &      $<?`?    IMULI	16,60000
001602  040200 002242    $"  2B    ????Q    UUO40	4,2242
001603  000300 002244     #  2D    ????R    UUO00	6,2244
001604  000000 003000        8     ?????    UUO00	0,3000
001605  331000 003604    ;(  >$    6 ??B    SKIPL	0,3604
001606  254000 002457    5@  4O    +????    JRST	0,2457
001607  402000 002467    @0  4W    @@???    SETZM	0,2467
001610  336000 002467    ;P  4W    7@???    SKIPN	0,2467
001611  254000 002462    5@  4R    +????    JRST	0,2462
001612  331000 003603    ;(  >#    6 ??A    SKIPL	0,3603
001613  254000 002464    5@  4T    +????    JRST	0,2464
001614  263040 000000    68@       ,b???    POPJ	1,0
001615  000000 000000              ?????    UUO00	0,0
001616  331000 003613    ;(  >+    6 ??E    SKIPL	0,3613
001617  331000 003603    ;(  >#    6 ??A    SKIPL	0,3603
001620  254120 002467    5A0 4W    +????    JRST	2,@2467
001621  261040 002511    6(@ 5)    ,"??$    PUSH	1,2511
001622  402000 003602    @0  >"    @@??A    SETZM	0,3602
001623  261040 000004    6(@  $    ,"???    PUSH	1,4
001624  261040 000005    6(@  %    ,"???    PUSH	1,5
001625  200240 003624    0"@ >4     ???J    MOVE	5,3624
001626  331000 003606    ;(  >&    6 ??C    SKIPL	0,3606
001627  207000 000005    0X   %    !`???    MOVSS	0,5
001630  260040 002775    6 @ 7]    ,???~    PUSHJ	1,2775
001631  207000 000005    0X   %    !`???    MOVSS	0,5
001632  260040 002775    6 @ 7]    ,???~    PUSHJ	1,2775
001633  376000 003610    ?P  >(    ?@??D    SOSN	0,3610
001634  254000 003007    5@  8'    +????    JRST	0,3007
001635  262040 000005    60@  %    ,B???    POP	1,5
001636  262040 000004    60@  $    ,B???    POP	1,4
001637  263040 002472    68@ 4Z    ,b???    POPJ	1,2472
001640  220664 766335    2&T^S=    $?'ln    IMUL	15,@766335(4)
001641  777737 002514    __? 5,    ?}x?&    CONSZ	774,@2514(17)
001642  370000 002513    ?   5+    >???%    SOS	0,2513
001643  355000 002555    =H  5M    ; ??6    AOSGE	0,2555
001644  254520 002512    5E0 5*    +???%    JRST	12,@2512
001645  700600 001040    X&  (@    p????    CONO	4,1040
001646  336000 003606    ;P  >&    7@??C    SKIPN	0,3606
001647  720200 000002    Z"   "    t????    CONO	200,2
001650  254520 002512    5E0 5*    +???%    JRST	12,@2512
001651  202200 002556    02  5N     H??7    MOVEM	4,2556
001652  202240 002557    02@ 5O     J??7    MOVEM	5,2557
001653  721700 000016    Z/   .    t<???    CONSZ	214,16
001654  254000 002552    5@  5J    +???5    JRST	0,2552
001655  201200 000020    0*   0     (???    MOVEI	4,20
001656  720040 000005    Z @  %    t????    DATAI	200,5
001657  553000 000005    M8   %    Z`???    HRRZS	0,5
001660  275240 002532    7J@ 5:    /*??-    SUBI	5,2532
001661  322240 002564    :2@ 5T    4J??:    JUMPE	5,2564
001662  331000 003605    ;(  >%    6 ??B    SKIPL	0,3605
001663  374000 000005    ?@   %    ?????    SOSA	0,5
001664  350000 000005    =    %    :????    AOS	0,5
001665  202240 003607    02@ >'     J??C    MOVEM	5,3607
001666  271240 000003    7*@  #    .*???    ADDI	5,3
001667  321240 002544    :*@ 5D    4*??2    JUMPL	5,2544
001670  307240 000006    8Z@  &    1j???    CAIG	5,6
001671  254000 002561    5@  5Q    +???8    JRST	0,2561
001672  352000 003605    =0  >%    :@??B    AOSE	0,3605
001673  660200 002000    V"  0     l????    TRO	4,2000
001674  303240 000002    8:@  "    0j???    CAILE	5,2
001675  644200 012000    TB !0     i????    TRCA	4,12000
001676  476000 003605    GP  >%    O@??B    SETOM	0,3605
001677  721204 320203    Z*$:"#    t(# A    CONO	210,320203(4)
001700  720200 004012    Z"  @*    t????    CONO	200,4012
001701  254000 002603    5@  6#    +???A    JRST	0,2603
001702  720100 000000    Z!        t????    BLKO	200,0
001703  436563 354477    CUS=D_    GW?Y?    IORM	13,@354477(3)
001704  777576 002560    _]^ 5P    ?wp?8    DATAO	774,@2560(16)
001705  660200 003000    V"  8     l????    TRO	4,3000
001706  331000 003605    ;(  >%    6 ??B    SKIPL	0,3605
001707  660200 010000    V" !      l????    TRO	4,10000
001710  254000 002551    5@  5I    +???4    JRST	0,2551
001711  332000 003607    ;0  >'    6@??C    SKIPE	0,3607
001712  254000 002560    5@  5P    +???8    JRST	0,2560
001713  200240 002554    0"@ 5L     ???6    MOVE	5,2554
001714  335000 003606    ;H  >&    7 ??C    SKIPGE	0,3606
001715  664200 000400    VB  $     m????    TROA	4,400
001716  621240 000100    R*@ !     d*??     TLZ	5,100
001717  331000 003605    ;(  >%    6 ??B    SKIPL	0,3605
001720  664200 010000    VB !      m????    TROA	4,10000
001721  254000 002606    5@  6&    +???C    JRST	0,2606
001722  270240 003625    7"@ >5    .???J    ADD	5,3625
001723  202240 002513    02@ 5+     J??%    MOVEM	5,2513
001724  577000 002555    OX  5M    _`??6    HLRES	0,2555
001725  721204 360303    Z*$>##    t(#`a    CONO	210,360303(4)
001726  335000 003606    ;H  >&    7 ??C    SKIPGE	0,3606
001727  720200 003412    Z"  <*    t????    CONO	200,3412
001730  200200 002556    0"  5N     ???7    MOVE	4,2556
001731  200240 002557    0"@ 5O     ???7    MOVE	5,2557
001732  254520 002512    5E0 5*    +???%    JRST	12,@2512
001733  541240 002555    L*@ 5M    X*??6    HRRI	5,2555
001734  202240 000044    02@  D     J???    MOVEM	5,44
001735  201240 002517    0*@ 5/     *??'    MOVEI	5,2517
001736  542240 002513    L2@ 5+    XJ??%    HRRM	5,2513
001737  254000 002600    5@  6     +???@    JRST	0,2600
001740  700740 000040    X'@  @    p????    CONSO	4,40
001741  352000 003614    =0  >,    :@??F    AOSE	0,3614
001742  254000 002617    5@  6/    +???G    JRST	0,2617
001743  254000 002652    5@  6J    +???U    JRST	0,2652
001744  721700 000002    Z/   "    t<???    CONSZ	214,2
001745  352000 003605    =0  >%    :@??B    AOSE	0,3605
001746  476000 003605    GP  >%    O@??B    SETOM	0,3605
001747  550200 002527    M"  57    Z???+    HRRZ	4,2527
001750  331000 003605    ;(  >%    6 ??B    SKIPL	0,3605
001751  660200 010000    V" !      l????    TRO	4,10000
001752  721204 323203    Z*$::#    t(#&A    CONO	210,323203(4)
001753  260040 002667    6 @ 6W    ,???[    PUSHJ	1,2667
001754  262040 000004    60@  $    ,B???    POP	1,4
001755  254120 002631    5A0 69    +???L    JRST	2,@2631
001756  000000 000000              ?????    UUO00	0,0
001757  261040 000004    6(@  $    ,"???    PUSH	1,4
001760  721300 004000    Z+  @     t,???    CONSZ	210,4000
001761  721740 000020    Z/@  0    t>???    CONSO	214,20
001762  254000 002642    5@  6B    +???Q    JRST	0,2642
001763  476000 003604    GP  >$    O@??B    SETOM	0,3604
001764  402000 003613    @0  >+    @@??E    SETZM	0,3613
001765  721200 000000    Z*        t(???    CONO	210,0
001766  254000 002627    5@  67    +???K    JRST	0,2627
001767  721300 000007    Z+   '    t,???    CONSZ	210,7
001770  721740 000017    Z/@  /    t>???    CONSO	214,17
001771  254000 002627    5@  67    +???K    JRST	0,2627
001772  721340 000700    Z+@ '     t.??`    CONSO	210,700
001773  254000 002703    5@  7#    +???a    JRST	0,2703
001774  700740 000040    X'@  @    p????    CONSO	4,40
001775  721700 000016    Z/   .    t<???    CONSZ	214,16
001776  254000 002613    5@  6+    +???E    JRST	0,2613
001777  201200 000200    0*  "      (??@    MOVEI	4,200
002000  272200 000004    72   $    .H???    ADDM	4,4
002001  201200 000030    0*   8     (???    MOVEI	4,30
002002  202200 003610    02  >(     H??D    MOVEM	4,3610
002003  721240 000004    Z*@  $    t*???    CONI	210,4
002004  620200 000700    R"  '     d???`    TRZ	4,700
002005  721204 000000    Z*$       t( ??    CONO	210,0(4)
002006  260040 002474    6 @ 4\    ,????    PUSHJ	1,2474
002007  331000 003602    ;(  >"    6 ??A    SKIPL	0,3602
002010  476000 003603    GP  >#    O@??A    SETOM	0,3603
002011  254000 002627    5@  67    +???K    JRST	0,2627
002012  211200 000012    1*   *    "(???    MOVNI	4,12
002013  202200 003614    02  >,     H??F    MOVEM	4,3614
002014  402000 003603    @0  >#    @@??A    SETZM	0,3603
002015  205200 777600    0J _^     !(??@    MOVSI	4,777600
002016  202200 003607    02  >'     H??C    MOVEM	4,3607
002017  540200 002554    L"  5L    X???6    HRR	4,2554
002020  202200 002555    02  5M     H??6    MOVEM	4,2555
002021  200200 000045    0"   E     ????    MOVE	4,45
002022  202200 000044    02   D     H???    MOVEM	4,44
002023  200200 003626    0"  >6     ???K    MOVE	4,3626
002024  202200 002513    02  5+     H??%    MOVEM	4,2513
002025  720200 004012    Z"  @*    t????    CONO	200,4012
002026  700600 002240    X&  2@    p???P    CONO	4,2240
002027  263040 000000    68@       ,b???    POPJ	1,0
002030  476000 003613    GP  >+    O@??E    SETOM	0,3613
002031  721200 005003    Z*  H#    t(???    CONO	210,5003
002032  476000 003610    GP  >(    O@??D    SETOM	0,3610
002033  254000 002627    5@  67    +???K    JRST	0,2627
002034  331000 002755    ;(  7M    6 ??v    SKIPL	0,2755
002035  254000 002713    5@  7+    +???e    JRST	0,2713
002036  336000 002761    ;P  7Q    7@??x    SKIPN	0,2761
002037  263040 000000    68@       ,b???    POPJ	1,0
002040  336000 002761    ;P  7Q    7@??x    SKIPN	0,2761
002041  254000 002707    5@  7'    +???c    JRST	0,2707
002042  370000 002761    ?   7Q    >???x    SOS	0,2761
002043  350200 002760    ="  7P    :???x    AOS	4,2760
002044  301200 004056    8*  @N    0(???    CAIL	4,4056
002045  254000 002723    5@  73    +???i    JRST	0,2723
002046  200204 000000    0"$        ? ??    MOVE	4,0(4)
002047  254000 003235    5@  :=    +???N    JRST	0,3235
002050  201200 000201    0*  "!     (??@    MOVEI	4,201
002051  272200 002717    72  7/    .H??g    ADDM	4,2717
002052  350200 002760    ="  7P    :???x    AOS	4,2760
002053  305200 007676    8J  ^^    1(??_    CAIGE	4,7676
002054  254000 002721    5@  71    +???h    JRST	0,2721
002055  201200 004056    0*  @N     (???    MOVEI	4,4056
002056  542200 002717    L2  7/    XH??g    HRRM	4,2717
002057  201200 003656    0*  >N     (??W    MOVEI	4,3656
002060  542200 002760    L2  7P    XH??x    HRRM	4,2760
002061  254000 002721    5@  71    +???h    JRST	0,2721
002062  335000 002766    ;H  7V    7 ??{    SKIPGE	0,2766
002063  263040 000000    68@       ,b???    POPJ	1,0
002064  336000 002772    ;P  7Z    7@??}    SKIPN	0,2772
002065  254000 002735    5@  7=    +???n    JRST	0,2735
002066  261040 000004    6(@  $    ,"???    PUSH	1,4
002067  370000 002772    ?   7Z    >???}    SOS	0,2772
002070  350200 002771    ="  7Y    :???|    AOS	4,2771
002071  301200 013676    8* !>^    0(??_    CAIL	4,13676
002072  254000 002750    5@  7H    +???t    JRST	0,2750
002073  262044 000000    60D       ,B ??    POP	1,0(4)
002074  254000 002721    5@  71    +???h    JRST	0,2721
002075  201200 007676    0*  ^^     (??_    MOVEI	4,7676
002076  542200 002771    L2  7Y    XH??|    HRRM	4,2771
002077  254000 002746    5@  7F    +???s    JRST	0,2746
002100  000000 003655        >M    ????V    UUO00	0,3655
002101  000000 003655        >M    ????V    UUO00	0,3655
002102  777777 777777    ______    ?????    CONSO	774,@777777(17)
002103  303200 003600    8:  >     0h??@    CAILE	4,3600
002104  003654 007474     >L \\    ?z`??    UUO03	15,7474(14)
002105  000000 000000              ?????    UUO00	0,0
002106  000000 004000        @     ?????    UUO00	0,4000
002107  357566 567365    =]VN[U    ;w5nz    AOSG	13,@567365(6)
002110  777157 002764    _YO 7T    ?fx?z    DATAO	770,2764(17)
002111  000000 007675        ^]    ????^    UUO00	0,7675
002112  000000 007675        ^]    ????^    UUO00	0,7675
002113  777777 777777    ______    ?????    CONSO	774,@777777(17)
002114  303200 003600    8:  >     0h??@    CAILE	4,3600
002115  007675 013475     ^]!<]    ?{h??    UUO07	15,@13475(15)
002116  000000 000000              ?????    UUO00	0,0
002117  000000 004000        @     ?????    UUO00	0,4000
002120  000035 000000      =       ??h??    UUO00	0,@0(15)
002121  000500 013757     % !?O    ????w    UUO00	12,13757
002122  200205 000002    0"%  "     ?(??    MOVE	4,2(5)
002123  331005 777776    ;(%__^    6 /??    SKIPL	0,777776(5)
002124  256005 777777    5P%___    +@/??    XCT	0,777777(5)
002125  263040 000000    68@       ,b???    POPJ	1,0
002126  262041 000000    60A       ,B???    POP	1,0(1)
002127  135200 003627    +J  >7    ?(??K    LDB	4,3627
002130  242200 000003    42   #    (H???    LSH	4,3
002131  312200 003604    92  >$    2H??B    CAME	4,3604
002132  335000 003604    ;H  >$    7 ??B    SKIPGE	0,3604
002133  254000 003025    5@  85    +????    JRST	0,3025
002134  476000 003613    GP  >+    O@??E    SETOM	0,3613
002135  721200 005003    Z*  H#    t(???    CONO	210,5003
002136  254000 002507    5@  5'    +???#    JRST	0,2507
002137  350345 000003    =#E  #    :?(??    AOS	7,3(5)
002140  134205 000004    +B%  $    ??(??    ILDB	4,4(5)
002141  263040 000000    68@       ,b???    POPJ	1,0
002142  370345 000003    ?#E  #    >?(??    SOS	7,3(5)
002143  205200 050000    0J %      !(?P?    MOVSI	4,50000
002144  270205 000004    7"%  $    .?(??    ADD	4,4(5)
002145  335000 000004    ;H   $    7 ???    SKIPGE	0,4
002146  274200 003630    7B  >8    /???L    SUB	4,3630
002147  202205 000004    02%  $     H(??    MOVEM	4,4(5)
002150  135200 000004    +J   $    ?(???    LDB	4,4
002151  263040 000000    68@       ,b???    POPJ	1,0
002152  476000 003606    GP  >&    O@??C    SETOM	0,3606
002153  202340 003655    03@ >M     N??V    MOVEM	7,3655
002154  200340 003631    0#@ >9     ???L    MOVE	7,3631
002155  251340 003654    5+@ >L    *.??V    BLT	7,3654
002156  135200 003627    +J  >7    ?(??K    LDB	4,3627
002157  261040 003623    6(@ >3    ,"??I    PUSH	1,3623
002160  260040 003504    6 @ =$    ,???"    PUSHJ	1,3504
002161  201200 003015    0*  8-     (???    MOVEI	4,3015
002162  331305 000003    ;+%  #    6,(??    SKIPL	6,3(5)
002163  201200 003012    0*  8*     (???    MOVEI	4,3012
002164  542200 003050    L2  8H    XH???    HRRM	4,3050
002165  241300 000011    4+   )    (,???    ROT	6,11
002166  620300 777740    R# __@    d???p    TRZ	6,777740
002167  201200 000006    0*   &     (???    MOVEI	4,6
002170  202200 003611    02  >)     H??D    MOVEM	4,3611
002171  606300 000037    PS   ?    aL???    TRNN	6,37
002172  254000 003050    5@  8H    +????    JRST	0,3050
002173  402000 003606    @0  >&    @@??C    SETZM	0,3606
002174  402000 003611    @0  >)    @@??D    SETZM	0,3611
002175  260040 003012    6 @ 8*    ,????    PUSHJ	1,3012
002176  602340 777777    P3@___    `N???    TRNE	7,777777
002177  306200 000037    8R   ?    1H???    CAIN	4,37
002200  254000 003127    5@  97    +???+    JRST	0,3127
002201  302206 000000    82&       0H0??    CAIE	4,0(6)
002202  374000 003611    ?@  >)    ????D    SOSA	0,3611
002203  373000 003611    ?8  >)    >`??D    SOSLE	0,3611
002204  254000 003050    5@  8H    +????    JRST	0,3050
002205  241300 000011    4+   )    (,???    ROT	6,11
002206  137305 000004    +[%  $    ?l(??    DPB	6,4(5)
002207  200205 000003    0"%  #     ?(??    MOVE	4,3(5)
002210  542200 002532    L2  5:    XH??-    HRRM	4,2532
002211  201205 000002    0*%  "     ((??    MOVEI	4,2(5)
002212  542200 002653    L2  6K    XH??U    HRRM	4,2653
002213  241300 777776    4+ __^    (,???    ROT	6,777776
002214  405300 000070    @K   X    A,???    ANDI	6,70
002215  542300 002527    L3  57    XL??+    HRRM	6,2527
002216  312300 003604    93  >$    2L??B    CAME	6,3604
002217  260040 003120    6 @ 90    ,???(    PUSHJ	1,3120
002220  476000 003602    GP  >"    O@??A    SETOM	0,3602
002221  200205 777774    0"%__\     ?/?~    MOVE	4,777774(5)
002222  542200 002554    L2  5L    XH??6    HRRM	4,2554
002223  200345 000000    0#E        ?(??    MOVE	7,0(5)
002224  271200 000200    7*  "     .(??@    ADDI	4,200
002225  303207 000000    8:'       0h8??    CAILE	4,0(7)
002226  554200 000007    MB   '    [????    HLRZ	4,7
002227  336000 003606    ;P  >&    7@??C    SKIPN	0,3606
002230  350000 000004    =    $    :????    AOS	0,4
002231  202205 777774    02%__\     H/?~    MOVEM	4,777774(5)
002232  721240 000006    Z*@  &    t*???    CONI	210,6
002233  622300 000700    R3  '     dL??`    TRZE	6,700
002234  254000 003112    5@  9*    +???%    JRST	0,3112
002235  435300 000200    CK  "     G,??@    IORI	6,200
002236  721206 000000    Z*&       t(0??    CONO	210,0(6)
002237  260040 002665    6 @ 6U    ,???Z    PUSHJ	1,2665
002240  262040 000004    60@  $    ,B???    POP	1,4
002241  260040 003504    6 @ =$    ,???"    PUSHJ	1,3504
002242  204340 003631    0C@ >9    !???L    MOVS	7,3631
002243  251340 000007    5+@  '    *.???    BLT	7,7
002244  254000 002507    5@  5'    +???#    JRST	0,2507
002245  202300 003604    03  >$     L??B    MOVEM	6,3604
002246  476000 003605    GP  >%    O@??B    SETOM	0,3605
002247  331005 000003    ;(%  #    6 (??    SKIPL	0,3(5)
002250  354000 003605    =@  >%    ;???B    AOSA	0,3605
002251  275300 010000    7K !      /,???    SUBI	6,10000
002252  721206 333203    Z*&;:#    t(36A    CONO	210,333203(6)
002253  263040 000000    68@       ,b???    POPJ	1,0
002254  336200 003606    ;R  >&    7H??C    SKIPN	4,3606
002255  254000 003140    5@  9@    +???0    JRST	0,3140
002256  260040 003336    6 @ ;>    ,???o    PUSHJ	1,3336
002257  335000 002766    ;H  7V    7 ??{    SKIPGE	0,2766
002260  254000 003113    5@  9+    +???%    JRST	0,3113
002261  200240 003653    0"@ >K     ???U    MOVE	5,3653
002262  205200 400000    0J @      !(???    MOVSI	4,400000
002263  432205 000003    C2%  #    FH(??    XORM	4,3(5)
002264  254000 003034    5@  8<    +????    JRST	0,3034
002265  550240 000006    M"@  &    Z????    HRRZ	5,6
002266  260040 003161    6 @ 9Q    ,???8    PUSHJ	1,3161
002267  254000 003146    5@  9F    +???3    JRST	0,3146
002270  137300 003632    +[  >:    ?l??M    DPB	6,3632
002271  137300 003633    +[  >;    ?l??M    DPB	6,3633
002272  254000 003134    5@  9<    +???.    JRST	0,3134
002273  476000 002755    GP  7M    O@??v    SETOM	0,2755
002274  254000 003113    5@  9+    +???%    JRST	0,3113
002275  200205 777775    0"%__]     ?/?~    MOVE	4,777775(5)
002276  202205 000001    02%  !     H(??    MOVEM	4,1(5)
002277  202205 777774    02%__\     H/?~    MOVEM	4,777774(5)
002300  205200 400000    0J @      !(???    MOVSI	4,400000
002301  412205 000003    A2%  #    BH(??    ANDCAM	4,3(5)
002302  513005 000003    I8%  #    R`(??    HLLZS	0,3(5)
002303  200200 003622    0"  >2     ???I    MOVE	4,3622
002304  202205 000004    02%  $     H(??    MOVEM	4,4(5)
002305  263040 000000    68@       ,b???    POPJ	1,0
002306  205300 777751    0K __I    !,??t    MOVSI	6,777751
002307  334340 003621    ;C@ >1    7???H    SKIPA	7,3621
002310  271340 000002    7+@  "    ..???    ADDI	7,2
002311  312207 000000    92'       2H8??    CAME	4,0(7)
002312  316200 003634    9R  ><    3H??N    CAMN	4,3634
002313  254000 003170    5@  9X    +???<    JRST	0,3170
002314  253300 003163    5;  9S    *l??9    AOBJN	6,3163
002315  325300 003175    :K  9]    5,??>    JUMPGE	6,3175
002316  312247 000001    92G  !    2J8??    CAME	5,1(7)
002317  316240 003634    9R@ ><    3J??N    CAMN	5,3634
002320  254000 003175    5@  9]    +???>    JRST	0,3175
002321  253300 003163    5;  9S    *l??9    AOBJN	6,3163
002322  627300 777777    R[ ___    el???    TLZN	6,777777
002323  263040 000000    68@       ,b???    POPJ	1,0
002324  350000 000006    =    &    :????    AOS	0,6
002325  254000 003235    5@  :=    +???N    JRST	0,3235
002326  260040 003225    6 @ :5    ,???J    PUSHJ	1,3225
002327  476000 002755    GP  7M    O@??v    SETOM	0,2755
002330  260040 002457    6 @ 4O    ,????    PUSHJ	1,2457
002331  260040 003161    6 @ 9Q    ,???8    PUSHJ	1,3161
002332  254000 003231    5@  :9    +???L    JRST	0,3231
002333  200240 003623    0"@ >3     ???I    MOVE	5,3623
002334  242240 000005    42@  %    (J???    LSH	5,5
002335  516240 002762    IR@ 7R    SJ??y    HRLZM	5,2762
002336  137300 003632    +[  >:    ?l??M    DPB	6,3632
002337  137300 003633    +[  >;    ?l??M    DPB	6,3633
002340  402000 002761    @0  7Q    @@??x    SETZM	0,2761
002341  201240 002757    0*@ 7O     *??w    MOVEI	5,2757
002342  260040 003150    6 @ 9H    ,???4    PUSHJ	1,3150
002343  200200 003635    0"  >=     ???N    MOVE	4,3635
002344  202200 003617    02  >/     H??G    MOVEM	4,3617
002345  201200 004056    0*  @N     (???    MOVEI	4,4056
002346  542200 002717    L2  7/    XH??g    HRRM	4,2717
002347  402000 002755    @0  7M    @@??v    SETZM	0,2755
002350  254000 003233    5@  :;    +???M    JRST	0,3233
002351  370001 777777    ? !___    >????    SOS	0,777777(1)
002352  202340 003651    03@ >I     N??T    MOVEM	7,3651
002353  200340 003636    0#@ >>     ???O    MOVE	7,3636
002354  251340 003650    5+@ >H    *.??T    BLT	7,3650
002355  263040 000000    68@       ,b???    POPJ	1,0
002356  402000 003646    @0  >F    @@??S    SETZM	0,3646
002357  370001 000000    ? !       >????    SOS	0,0(1)
002360  204340 003636    0C@ >>    !???O    MOVS	7,3636
002361  251340 000007    5+@  '    *.???    BLT	7,7
002362  350001 000000    = !       :????    AOS	0,0(1)
002363  263040 000000    68@       ,b???    POPJ	1,0
002364  000104 000055     !$  M    ?? ??    UUO00	2,55(4)
002365  000104 000104     !$ !$    ?? ?"    UUO00	2,104(4)
002366  260040 003225    6 @ :5    ,???J    PUSHJ	1,3225
002367  135200 003637    +J  >?    ?(??O    LDB	4,3637
002370  261040 003623    6(@ >3    ,"??I    PUSH	1,3623
002371  260040 003504    6 @ =$    ,???"    PUSHJ	1,3504
002372  200200 003646    0"  >F     ???S    MOVE	4,3646
002373  261040 000005    6(@  %    ,"???    PUSH	1,5
002374  261040 000004    6(@  $    ,"???    PUSH	1,4
002375  260040 003467    6 @ <W    ,????    PUSHJ	1,3467
002376  201200 000141    0*  !A     (??0    MOVEI	4,141
002377  201240 000004    0*@  $     *???    MOVEI	5,4
002400  260040 003564    6 @ =T    ,???:    PUSHJ	1,3564
002401  255000 000000    5H        + ???    JFCL	0,0
002402  367240 003253    >Z@ :K    =j??U    SOJG	5,3253
002403  200200 003640    0"  >@     ???P    MOVE	4,3640
002404  135240 003641    +J@ >A    ?*??P    LDB	5,3641
002405  322240 003264    :2@ :T    4J??Z    JUMPE	5,3264
002406  260040 002737    6 @ 7?    ,???o    PUSHJ	1,2737
002407  254000 003303    5@  ;#    +???a    JRST	0,3303
002410  254000 003257    5@  :O    +???W    JRST	0,3257
002411  201240 004000    0*@ @      *???    MOVEI	5,4000
002412  312240 002772    92@ 7Z    2J??}    CAME	5,2772
002413  254000 003265    5@  :U    +???Z    JRST	0,3265
002414  260040 003336    6 @ ;>    ,???o    PUSHJ	1,3336
002415  402000 000004    @0   $    @@???    SETZM	0,4
002416  201240 000105    0*@ !%     *??"    MOVEI	5,105
002417  260040 003161    6 @ 9Q    ,???8    PUSHJ	1,3161
002420  254000 003231    5@  :9    +???L    JRST	0,3231
002421  262047 000000    60G       ,B8??    POP	1,0(7)
002422  262047 000001    60G  !    ,B8??    POP	1,1(7)
002423  260040 003317    6 @ ;/    ,???g    PUSHJ	1,3317
002424  260040 003365    6 @ ;U    ,???z    PUSHJ	1,3365
002425  262040 000004    60@  $    ,B???    POP	1,4
002426  260040 003504    6 @ =$    ,???"    PUSHJ	1,3504
002427  254000 003233    5@  :;    +???M    JRST	0,3233
002430  370001 777775    ? !__]    >???~    SOS	0,777775(1)
002431  254000 003267    5@  :W    +???[    JRST	0,3267
002432  260040 003225    6 @ :5    ,???J    PUSHJ	1,3225
002433  403200 000005    @:   %    @h???    SETZB	4,5
002434  260040 003161    6 @ 9Q    ,???8    PUSHJ	1,3161
002435  254000 003231    5@  :9    +???L    JRST	0,3231
002436  201240 000105    0*@ !%     *??"    MOVEI	5,105
002437  260040 003467    6 @ <W    ,????    PUSHJ	1,3467
002440  201300 000000    0+         ,???    MOVEI	6,0
002441  260040 003352    6 @ ;J    ,???u    PUSHJ	1,3352
002442  260040 003317    6 @ ;/    ,???g    PUSHJ	1,3317
002443  254000 003233    5@  :;    +???M    JRST	0,3233
002444  201200 004000    0*  @      (???    MOVEI	4,4000
002445  202200 002772    02  7Z     H??}    MOVEM	4,2772
002446  201240 002770    0*@ 7X     *??|    MOVEI	5,2770
002447  260040 003150    6 @ 9H    ,???4    PUSHJ	1,3150
002450  200200 003642    0"  >B     ???Q    MOVE	4,3642
002451  202200 003620    02  >0     H??H    MOVEM	4,3620
002452  201200 000005    0*   %     (???    MOVEI	4,5
002453  202200 003616    02  >.     H??G    MOVEM	4,3616
002454  200200 003623    0"  >3     ???I    MOVE	4,3623
002455  137200 003637    +Z  >?    ?h??O    DPB	4,3637
002456  201200 000105    0*  !%     (??"    MOVEI	4,105
002457  202200 003612    02  >*     H??E    MOVEM	4,3612
002460  402000 003615    @0  >-    @@??F    SETZM	0,3615
002461  402000 002766    @0  7V    @@??{    SETZM	0,2766
002462  263040 000000    68@       ,b???    POPJ	1,0
002463  403200 000005    @:   %    @h???    SETZB	4,5
002464  260040 003161    6 @ 9Q    ,???8    PUSHJ	1,3161
002465  254000 003361    5@  ;Q    +???x    JRST	0,3361
002466  200200 000006    0"   &     ????    MOVE	4,6
002467  250200 003612    5"  >*    *???E    EXCH	4,3612
002470  202207 000001    02'  !     H8??    MOVEM	4,1(7)
002471  200200 003621    0"  >1     ???H    MOVE	4,3621
002472  270200 000006    7"   &    .????    ADD	4,6
002473  200240 003650    0"@ >H     ???T    MOVE	5,3650
002474  137240 003240    +Z@ :@    ?j??P    DPB	5,3240
002475  242240 777777    42@___    (J???    LSH	5,777777
002476  137240 003237    +Z@ :?    ?j??O    DPB	5,3237
002477  200240 003622    0"@ >2     ???I    MOVE	5,3622
002500  134200 000005    +B   %    ?????    ILDB	4,5
002501  306200 000035    8R   =    1H???    CAIN	4,35
002502  137300 000005    +[   %    ?l???    DPB	6,5
002503  302200 000037    82   ?    0H???    CAIE	4,37
002504  254000 003353    5@  ;K    +???u    JRST	0,3353
002505  263040 000000    68@       ,b???    POPJ	1,0
002506  476000 002766    GP  7V    O@??{    SETOM	0,2766
002507  263040 000000    68@       ,b???    POPJ	1,0
002510  260040 003224    6 @ :4    ,???J    PUSHJ	1,3224
002511  261040 003443    6(@ <C    ,"???    PUSH	1,3443
002512  200200 003623    0"  >3     ???I    MOVE	4,3623
002513  211240 000001    1*@  !    "*???    MOVNI	5,1
002514  201300 000100    0+  !      ,??     MOVEI	6,100
002515  242200 000003    42   #    (H???    LSH	4,3
002516  260040 002461    6 @ 4Q    ,????    PUSHJ	1,2461
002517  202240 003606    02@ >&     J??C    MOVEM	5,3606
002520  316200 003604    9R  >$    3H??B    CAMN	4,3604
002521  254000 003377    5@  ;_    +????    JRST	0,3377
002522  260040 002457    6 @ 4O    ,????    PUSHJ	1,2457
002523  476000 003605    GP  >%    O@??B    SETOM	0,3605
002524  542200 002527    L2  57    XH??+    HRRM	4,2527
002525  202200 003604    02  >$     H??B    MOVEM	4,3604
002526  540240 003621    L"@ >1    X???H    HRR	5,3621
002527  370000 000005    ?    %    >????    SOS	0,5
002530  542240 002554    L2@ 5L    XJ??6    HRRM	5,2554
002531  201240 003611    0*@ >)     *??D    MOVEI	5,3611
002532  542240 002653    L2@ 6K    XJ??U    HRRM	5,2653
002533  542300 002532    L3  5:    XL??-    HRRM	6,2532
002534  331000 003605    ;(  >%    6 ??B    SKIPL	0,3605
002535  660200 010000    V" !      l????    TRO	4,10000
002536  721204 322203    Z*$:2#    t(#$A    CONO	210,322203(4)
002537  260040 002665    6 @ 6U    ,???Z    PUSHJ	1,2665
002540  201200 352300    0* =3      (?T`    MOVEI	4,352300
002541  205240 777600    0J@_^     !*??@    MOVSI	5,777600
002542  331000 003606    ;(  >&    6 ??C    SKIPL	0,3606
002543  335000 003603    ;H  >#    7 ??A    SKIPGE	0,3603
002544  263040 000000    68@       ,b???    POPJ	1,0
002545  316240 003607    9R@ >'    3J??C    CAMN	5,3607
002546  365200 003416    >J  <.    =(???    SOJGE	4,3416
002547  325200 003416    :J  <.    5(???    JUMPGE	4,3416
002550  476000 003613    GP  >+    O@??E    SETOM	0,3613
002551  721200 005003    Z*  H#    t(???    CONO	210,5003
002552  476000 003603    GP  >#    O@??A    SETOM	0,3603
002553  200200 003623    0"  >3     ???I    MOVE	4,3623
002554  260040 003504    6 @ =$    ,???"    PUSHJ	1,3504
002555  402006 013676    @0&!>^    @@0?_    SETZM	0,13676(6)
002556  211200 000002    1*   "    "(???    MOVNI	4,2
002557  263040 000000    68@       ,b???    POPJ	1,0
002560  260040 003224    6 @ :4    ,???J    PUSHJ	1,3224
002561  261040 003623    6(@ >3    ,"??I    PUSH	1,3623
002562  405200 000007    @J   '    A(???    ANDI	4,7
002563  260040 003504    6 @ =$    ,???"    PUSHJ	1,3504
002564  321300 003441    :+  <A    4,???    JUMPL	6,3441
002565  402006 013676    @0&!>^    @@0?_    SETZM	0,13676(6)
002566  262040 000004    60@  $    ,B???    POP	1,4
002567  260040 003504    6 @ =$    ,???"    PUSHJ	1,3504
002570  254000 003233    5@  :;    +???M    JRST	0,3233
002571  254000 003656    5@  >N    +???W    JRST	0,3656
002572  260040 003225    6 @ :5    ,???J    PUSHJ	1,3225
002573  260040 003504    6 @ =$    ,???"    PUSHJ	1,3504
002574  325300 003233    :K  :;    5,??M    JUMPGE	6,3233
002575  403200 000005    @:   %    @h???    SETZB	4,5
002576  260040 003504    6 @ =$    ,???"    PUSHJ	1,3504
002577  321300 003231    :+  :9    4,??L    JUMPL	6,3231
002600  200200 003646    0"  >F     ???S    MOVE	4,3646
002601  202206 013676    02&!>^     H0?_    MOVEM	4,13676(6)
002602  202200 003623    02  >3     H??I    MOVEM	4,3623
002603  260040 003367    6 @ ;W    ,???{    PUSHJ	1,3367
002604  321200 003465    :*  <U    4(???    JUMPL	4,3465
002605  200300 003621    0#  >1     ???H    MOVE	6,3621
002606  135300 003643    +K  >C    ?,??Q    LDB	6,3643
002607  306300 000037    8S   ?    1L???    CAIN	6,37
002610  254000 003233    5@  :;    +???M    JRST	0,3233
002611  211200 000001    1*   !    "(???    MOVNI	4,1
002612  202200 003646    02  >F     H??S    MOVEM	4,3646
002613  254000 003232    5@  ::    +???M    JRST	0,3232
002614  260040 003161    6 @ 9Q    ,???8    PUSHJ	1,3161
002615  263040 000000    68@       ,b???    POPJ	1,0
002616  402007 000001    @0'  !    @@8??    SETZM	0,1(7)
002617  403347 000000    @;G       @n8??    SETZB	7,0(7)
002620  200240 003622    0"@ >2     ???I    MOVE	5,3622
002621  134200 000005    +B   %    ?????    ILDB	4,5
002622  316200 000006    9R   &    3H???    CAMN	4,6
002623  137340 000005    +[@  %    ?n???    DPB	7,5
002624  302200 000037    82   ?    0H???    CAIE	4,37
002625  254000 003474    5@  <\    +????    JRST	0,3474
002626  402000 000004    @0   $    @@???    SETZM	0,4
002627  200240 000006    0"@  &     ????    MOVE	5,6
002630  254000 003467    5@  <W    +????    JRST	0,3467
002631  205300 777774    0K __\    !,??~    MOVSI	6,777774
002632  312206 013676    92&!>^    2H0?_    CAME	4,13676(6)
002633  253300 003505    5;  =%    *l??"    AOBJN	6,3505
002634  667300 777777    V[ ___    ml???    TLON	6,777777
002635  263040 000000    68@       ,b???    POPJ	1,0
002636  553340 000006    M;@  &    Zn???    HRRZS	7,6
002637  221340 000200    2+@ "     $.??@    IMULI	7,200
002640  271340 013702    7+@!?"    ..??a    ADDI	7,13702
002641  202340 003621    03@ >1     N??H    MOVEM	7,3621
002642  271340 000055    7+@  M    ..???    ADDI	7,55
002643  542340 003622    L3@ >2    XN??I    HRRM	7,3622
002644  202200 003623    02  >3     H??I    MOVEM	4,3623
002645  263040 000000    68@       ,b???    POPJ	1,0
002646  260040 003224    6 @ :4    ,???J    PUSHJ	1,3224
002647  260040 003467    6 @ <W    ,????    PUSHJ	1,3467
002650  254000 003233    5@  :;    +???M    JRST	0,3233
002651  336000 002761    ;P  7Q    7@??x    SKIPN	0,2761
002652  254000 003555    5@  =M    +???6    JRST	0,3555
002653  134200 003617    +B  >/    ????G    ILDB	4,3617
002654  302200 000141    82  !A    0H??0    CAIE	4,141
002655  254000 003235    5@  :=    +???N    JRST	0,3235
002656  550200 003617    M"  >/    Z???G    HRRZ	4,3617
002657  306200 003251    8R  :I    1H??T    CAIN	4,3251
002660  254000 003561    5@  =Q    +???8    JRST	0,3561
002661  275200 000201    7J  "!    /(??@    SUBI	4,201
002662  312200 002760    92  7P    2H??x    CAME	4,2760
002663  254000 003555    5@  =M    +???6    JRST	0,3555
002664  271200 000202    7*  ""    .(??A    ADDI	4,202
002665  301200 007676    8*  ^^    0(??_    CAIL	4,7676
002666  201200 003656    0*  >N     (??W    MOVEI	4,3656
002667  505200 440700    HJ D'     Q(?A`    HRLI	4,440700
002670  202200 003617    02  >/     H??G    MOVEM	4,3617
002671  370000 000004    ?    $    >????    SOS	0,4
002672  542200 002760    L2  7P    XH??x    HRRM	4,2760
002673  211200 000200    1*  "     "(??@    MOVNI	4,200
002674  272200 002761    72  7Q    .H??x    ADDM	4,2761
002675  335000 002755    ;H  7M    7 ??v    SKIPGE	0,2755
002676  254000 003524    5@  =4    +???*    JRST	0,3524
002677  336000 002761    ;P  7Q    7@??x    SKIPN	0,2761
002700  254000 003550    5@  =H    +???4    JRST	0,3550
002701  254000 003526    5@  =6    +???+    JRST	0,3526
002702  200200 003644    0"  >D     ???R    MOVE	4,3644
002703  202200 003617    02  >/     H??G    MOVEM	4,3617
002704  201200 000014    0*   ,     (???    MOVEI	4,14
002705  263040 000000    68@       ,b???    POPJ	1,0
002706  200200 003645    0"  >E     ???R    MOVE	4,3645
002707  202200 003617    02  >/     H??G    MOVEM	4,3617
002710  254000 003550    5@  =H    +???4    JRST	0,3550
002711  136200 003620    +R  >0    ?H??H    IDPB	4,3620
002712  373000 003616    ?8  >.    >`??G    SOSLE	0,3616
002713  254000 003235    5@  :=    +???N    JRST	0,3235
002714  202200 003646    02  >F     H??S    MOVEM	4,3646
002715  201200 000005    0*   %     (???    MOVEI	4,5
002716  202200 003616    02  >.     H??G    MOVEM	4,3616
002717  200200 003642    0"  >B     ???Q    MOVE	4,3642
002720  202200 003620    02  >0     H??H    MOVEM	4,3620
002721  200200 003615    0"  >-     ???F    MOVE	4,3615
002722  260040 002737    6 @ 7?    ,???o    PUSHJ	1,2737
002723  263040 000000    68@       ,b???    POPJ	1,0
002724  402000 003615    @0  >-    @@??F    SETZM	0,3615
002725  200200 003646    0"  >F     ???S    MOVE	4,3646
002726  254000 003235    5@  :=    +???N    JRST	0,3235
002727  000000 000000              ?????    UUO00	0,0
002730  777777 777777    ______    ?????    CONSO	774,@777777(17)
002731  777777 777777    ______    ?????    CONSO	774,@777777(17)
002732  531416 545364    K,.LKT    V0uJz    HLLEI	10,545364(16)
002733  777750 003616    __H >.    ?~@?G    CONSO	774,3616(10)
002734  000000 000005         %    ?????    UUO00	0,5
002735  070700 003251    ''  :I    ????T    UUO70	16,3251
002736  010700 003614    !'  >,    ????F    UUO10	16,3614
002737  000000 013702       !?"    ????a    UUO00	0,13702
002740  000500 013757     % !?O    ????w    UUO00	12,13757
002741  000000 000002         "    ?????    UUO00	0,2
002742  002757 002770     7O 7X    ?^x?|    UUO02	17,2770(17)
002743  000040 000200      @ "     ????@    UUO00	1,200
002744  254000 002523    5@  53    +???)    JRST	0,2523
002745  270405 000003    7$%  #    .?(??    ADD	10,3(5)
002746  430000 000001    C    !    F????    XOR	0,1
002747  000004 003652      $ >J    ?? ?U    UUO00	0,3652(4)
002750  220500 002762    2%  7R    $???y    IMUL	12,2762
002751  330500 002762    ;%  7R    6???y    SKIP	12,2762
002752  120000 000000    *         ?????    XX120	0,0
002753  070700 003251    ''  :I    ????T    UUO70	16,3251
002754  000004 003646      $ >F    ?? ?S    UUO00	0,3646(4)
002755  270400 002773    7$  7[    .???}    ADD	10,2773
002756  604000 000001    P@   !    a????    TRNA	0,1
002757  000700 002772     '  7Z    ????}    UUO00	16,2772
002760  010700 003614    !'  >,    ????F    UUO10	16,3614
002761  370506 000177    ?%& !_    >?0??    SOS	12,177(6)
002762  070700 003527    ''  =7    ????+    UUO70	16,3527
002763  440700 003656    D'  >N    H???W    ANDCB	16,3656
002764  032174 202172    #1\01Z    ?Gb?=    UUO32	3,@202172(14)
002765  777735 003656    __= >N    ?}h?W    CONSZ	774,@3656(15)
002766  261040 000004    6(@  $    ,"???    PUSH	1,4
002767  261040 000005    6(@  %    ,"???    PUSH	1,5
002770  200200 003717    0"  ?/     ???g    MOVE	4,3717
002771  202200 003444    02  <D     H???    MOVEM	4,3444
002772  205200 604000    0J P@     !(???    MOVSI	4,604000
002773  201240 000020    0*@  0     *???    MOVEI	5,20
002774  323240 003670    ::@ >X    4j??\    JUMPLE	5,3670
002775  512204 004056    I2$ @N    RH ??    HLLZM	4,4056(4)
002776  271200 000201    7*  "!    .(??@    ADDI	4,201
002777  367240 003665    >Z@ >U    =j??Z    SOJG	5,3665
003000  261040 000006    6(@  &    ,"???    PUSH	1,6
003001  201200 000004    0*   $     (???    MOVEI	4,4
003002  201240 000000    0*@        *???    MOVEI	5,0
003003  505240 777722    HJ@__2    Q*??i    HRLI	5,777722
003004  402005 013702    @0%!?"    @@(?a    SETZM	0,13702(5)
003005  253240 003674    5:@ >\    *j??^    AOBJN	5,3674
003006  200300 003720    0#  ?0     ???h    MOVE	6,3720
003007  202305 013702    03%!?"     L(?a    MOVEM	6,13702(5)
003010  505240 777770    HJ@__X    Q*??|    HRLI	5,777770
003011  402005 013703    @0%!?#    @@(?a    SETZM	0,13703(5)
003012  253240 003701    5:@ ?!    *j??`    AOBJN	5,3701
003013  205300 660000    0K V      !,?`?    MOVSI	6,660000
003014  202305 013703    03%!?#     L(?a    MOVEM	6,13703(5)
003015  505240 777671    HJ@_^Y    Q*??\    HRLI	5,777671
003016  402005 013704    @0%!?$    @@(?b    SETZM	0,13704(5)
003017  253240 003706    5:@ ?&    *j??c    AOBJN	5,3706
003020  476005 013704    GP%!?$    O@(?b    SETOM	0,13704(5)
003021  271240 000003    7*@  #    .*???    ADDI	5,3
003022  367200 003673    >Z  >[    =h??]    SOJG	4,3673
003023  262040 000006    60@  &    ,B???    POP	1,6
003024  262040 000005    60@  %    ,B???    POP	1,5
003025  262040 000004    60@  $    ,B???    POP	1,4
003026  254000 003444    5@  <D    +????    JRST	0,3444
003027  405200 000007    @J   '    A(???    ANDI	4,7
003030  757367 573674    ][WO>\    {o=w^    CONSO	570,@573674(7)
003031  162536 777303    .5>_[#    ?Uw~a    FMPM	12,@777303(16)
003032  777776 014763    __^!GS    ??p?y    CONSO	774,@14763(16)
003033  000000 000105        !%    ????"    UUO00	0,105
003034  777777 777777    ______    ?????    CONSO	774,@777777(17)
003035  777770 064130    __X&A8    ??@h,    CONSO	774,@64130(10)
003036  777777 015004    ___!H$    ??x??    CONSO	774,@15004(17)
003037  000000 015005       !H%    ?????    UUO00	0,15005
003040  777776 047016    __^$X.    ??pN?    CONSO	774,@47016(16)
003041  777767 015012    __W!H*    ??8??    CONSO	774,@15012(7)
003042  341015 026023    <(-"P3    8 h,?    AOJL	0,26023(15)
003043  241015 026023    4(-"P3    ( h,?    ROT	0,26023(15)
003044  141015 026023    ,(-"P3    ? h,?    FADL	0,26023(15)
003045  041015 026023    $(-"P3    ? h,?    UUO41	0,26023(15)
003046  341015 026024    <(-"P4    8 h,?    AOJL	0,26024(15)
003047  341000 026023    <( "P3    8 ?,?    AOJL	0,26023
003050  241000 026023    4( "P3    ( ?,?    ROT	0,26023
003051  141000 026023    ,( "P3    ? ?,?    FADL	0,26023
003052  041000 026023    $( "P3    ? ?,?    UUO41	0,26023
003053  142523 007450    ,53 \H    ?U???    FADM	12,@7450(3)
003054  777776 015030    __^!H8    ??p??    CONSO	774,@15030(16)
003055  777777 777777    ______    ?????    CONSO	774,@777777(17)
003056  000000 336171       ;QY    ???<<    UUO00	0,336171
003057  777770 422332    __XB3:    ??D$m    CONSO	774,@422332(10)
003060  777777 015035    ___!H=    ??x??    CONSO	774,@15035(17)
003061  000000 015045       !HE    ?????    UUO00	0,15045
003062  777776 047140    __^$Y@    ??pN0    CONSO	774,@47140(16)
003063  777333 015075    _[;!H]    ?mX??    CONSZ	770,@15075(13)
003064  777777 777777    ______    ?????    CONSO	774,@777777(17)
003065  777777 777777    ______    ?????    CONSO	774,@777777(17)
003066  634300 000006    SC   &    g????    TDZA	6,6
003067  200400 014705    0$ !G%     ???b    MOVE	10,14705
003070  311400 014704    9, !G$    20??b    CAML	10,14704
003071  263040 000000    68@       ,b???    POPJ	1,0
003072  331010 000001    ;((  !    6 @??    SKIPL	0,1(10)
003073  432250 000001    C2H  !    FJ@??    XORM	5,1(10)
003074  331010 000001    ;((  !    6 @??    SKIPL	0,1(10)
003075  436310 000001    CS(  !    GL@??    IORM	6,1(10)
003076  344400 015101    <D !I!    9???     AOJA	10,15101
003077  542200 015111    L2 !I)    XH??$    HRRM	4,15111
003100  541205 000000    L*%       X((??    HRRI	4,0(5)
003101  207000 000005    0X   %    !`???    MOVSS	0,5
003102  546200 015114    LR !I,    YH??&    HLRM	4,15114
003103  505205 000000    HJ%       Q((??    HRLI	4,0(5)
003104  263040 000000    68@       ,b???    POPJ	1,0
003105  261040 000002    6(@  "    ,"???    PUSH	1,2
003106  261040 000003    6(@  #    ,"???    PUSH	1,3
003107  261040 000004    6(@  $    ,"???    PUSH	1,4
003110  261040 000005    6(@  %    ,"???    PUSH	1,5
003111  260053 000000    6 K       ,?X??    PUSHJ	1,0(13)
003112  661100 000010    V)   (    l$???    TLO	2,10
003113  662100 000100    V1  !     lD??     TROE	2,100
003114  660100 000004    V!   $    l????    TRO	2,4
003115  270507 026014    7%'"P,    .?8,?    ADD	12,26014(7)
003116  660100 000002    V!   "    l????    TRO	2,2
003117  365340 015420    >K@!L0    =.???    SOJGE	7,15420
003120  344340 015420    <C@!L0    9????    AOJA	7,15420
003121  261040 014705    6(@!G%    ,"??b    PUSH	1,14705
003122  261040 014705    6(@!G%    ,"??b    PUSH	1,14705
003123  261040 014703    6(@!G#    ,"??a    PUSH	1,14703
003124  261040 014766    6(@!GV    ,"??{    PUSH	1,14766
003125  200200 014704    0" !G$     ???b    MOVE	4,14704
003126  202200 014766    02 !GV     H??{    MOVEM	4,14766
003127  202040 014703    00@!G#     B??a    MOVEM	1,14703
003130  620100 200001    R! 0 !    d????    TRZ	2,200001
003131  603100 004000    P9  @     `d???    TLNE	2,4000
003132  254000 015146    5@ !IF    +???3    JRST	0,15146
003133  260040 015410    6 @!L(    ,????    PUSHJ	1,15410
003134  602100 000004    P1   $    `D???    TRNE	2,4
003135  260040 021457    6 @",O    ,??#?    PUSHJ	1,21457
003136  200300 014702    0# !G"     ???a    MOVE	6,14702
003137  603300 200000    P; 0      `l???    TLNE	6,200000
003140  254006 000000    5@&       +?0??    JRST	0,0(6)
003141  201440 000000    0,@        2???    MOVEI	11,0
003142  602100 000002    P1   "    `D???    TRNE	2,2
003143  660100 000001    V!   !    l????    TRO	2,1
003144  265540 015166    6M@!IV    -6??;    JSP	13,15166
003145  274040 025012    7@@"H*    /??*?    SUB	1,25012
003146  262040 014766    60@!GV    ,B??{    POP	1,14766
003147  262040 014703    60@!G#    ,B??a    POP	1,14703
003150  274040 025013    7@@"H+    /??*?    SUB	1,25013
003151  263040 000000    68@       ,b???    POPJ	1,0
003152  660100 200001    V! 0 !    l????    TRO	2,200001
003153  606100 000002    PQ   "    aD???    TRNN	2,2
003154  350440 014763    =$@!GS    :???y    AOS	11,14763
003155  316040 014703    9P@!G#    3B??a    CAMN	1,14703
003156  254000 015177    5@ !I_    +????    JRST	0,15177
003157  554401 000000    MD!       [????    HLRZ	10,0(1)
003160  313440 000010    9<@  (    2r???    CAMLE	11,10
003161  254000 015177    5@ !I_    +????    JRST	0,15177
003162  550401 000000    M$!       Z????    HRRZ	10,0(1)
003163  254010 000000    5@(       +?@??    JRST	0,0(10)
003164  274040 025012    7@@"H*    /??*?    SUB	1,25012
003165  254000 015166    5@ !IV    +???;    JRST	0,15166
003166  261040 014704    6(@!G$    ,"??b    PUSH	1,14704
003167  261040 000005    6(@  %    ,"???    PUSH	1,5
003170  261040 000004    6(@  $    ,"???    PUSH	1,4
003171  504300 000011    HC   )    Q????    HRL	6,11
003172  261040 000006    6(@  &    ,"???    PUSH	1,6
003173  254013 000000    5@+       +?X??    JRST	0,0(13)
003174  201300 015224    0+ !J4     ,??J    MOVEI	6,15224
003175  201440 000010    0,@  (     2???    MOVEI	11,10
003176  265540 015163    6M@!IS    -6??9    JSP	13,15163
003177  254000 015142    5@ !IB    +???1    JRST	0,15142
003200  213000 000004    18   $    "`???    MOVNS	0,4
003201  445240 000000    DJ@       I*???    EQVI	5,0
003202  270240 025014    7"@"H,    .??*?    ADD	5,25014
003203  541245 000001    L*E  !    X*(??    HRRI	5,1(5)
003204  200401 777775    0$!__]     ???~    MOVE	10,777775(1)
003205  261040 000005    6(@  %    ,"???    PUSH	1,5
003206  515240 020000    IJ@"      S*? ?    HRLZI	5,20000
003207  261040 000006    6(@  &    ,"???    PUSH	1,6
003210  260040 015077    6 @!H_    ,????    PUSHJ	1,15077
003211  262040 000006    60@  &    ,B???    POP	1,6
003212  262040 000005    60@  %    ,B???    POP	1,5
003213  270201 777777    7"!___    .????    ADD	4,777777(1)
003214  261040 000004    6(@  $    ,"???    PUSH	1,4
003215  200201 777775    0"!__]     ???~    MOVE	4,777775(1)
003216  260040 015110    6 @!I(    ,???$    PUSHJ	1,15110
003217  200240 000004    0"@  $     ????    MOVE	5,4
003220  262040 000004    60@  $    ,B???    POP	1,4
003221  254000 015175    5@ !I]    +???>    JRST	0,15175
003222  201300 015211    0+ !J)     ,??D    MOVEI	6,15211
003223  254000 015206    5@ !J&    +???C    JRST	0,15206
003224  201300 015241    0+ !JA     ,??P    MOVEI	6,15241
003225  201440 000020    0,@  0     2???    MOVEI	11,20
003226  265540 015163    6M@!IS    -6??9    JSP	13,15163
003227  254000 015142    5@ !IB    +???1    JRST	0,15142
003230  322240 015246    :2@!JF    4J??S    JUMPE	5,15246
003231  332001 777776    ;0!__^    6@???    SKIPE	0,777776(1)
003232  254000 015265    5@ !JU    +???Z    JRST	0,15265
003233  200401 777777    0$!___     ????    MOVE	10,777777(1)
003234  254000 015250    5@ !JH    +???T    JRST	0,15250
003235  200400 000004    0$   $     ????    MOVE	10,4
003236  200241 777776    0"A__^     ????    MOVE	5,777776(1)
003237  200341 777775    0#A__]     ???~    MOVE	7,777775(1)
003240  312341 777771    93A__Y    2N??|    CAME	7,777771(1)
003241  254000 015271    5@ !JY    +???\    JRST	0,15271
003242  312340 014704    93@!G$    2N??b    CAME	7,14704
003243  254000 015276    5@ !J^    +???_    JRST	0,15276
003244  514340 000005    IC@  %    S????    HRLZ	7,5
003245  220340 000010    2#@  (    $????    IMUL	7,10
003246  546340 000005    LS@  %    YN???    HLRM	7,5
003247  510340 000005    I#@  %    R????    HLLZ	7,5
003250  220340 000010    2#@  (    $????    IMUL	7,10
003251  502340 000005    H3@  %    PN???    HLLM	7,5
003252  220201 777777    2"!___    $????    IMUL	4,777777(1)
003253  254000 015175    5@ !I]    +???>    JRST	0,15175
003254  001000 516254     ( IRL    ? ??V    UUO01	0,516254
003255  254000 015175    5@ !I]    +???>    JRST	0,15175
003256  201300 015314    0+ !K,     ,??f    MOVEI	6,15314
003257  254000 015236    5@ !J>    +???O    JRST	0,15236
003260  603000 400000    P8 @      ``???    TLNE	0,400000
003261  316340 014704    9S@!G$    3N??b    CAMN	7,14704
003262  334640 000004    ;F@  $    7????    SKIPA	15,4
003263  001000 515571     ( IMY    ? ??<    UUO01	0,515571
003264  334341 777771    ;CA__Y    7???|    SKIPA	7,777771(1)
003265  200641 777777    0&A___     ????    MOVE	15,777777(1)
003266  311340 014704    9+@!G$    2.??b    CAML	7,14704
003267  254000 015255    5@ !JM    +???V    JRST	0,15255
003270  335007 000001    ;H'  !    7 8??    SKIPGE	0,1(7)
003271  344340 015277    <C@!J_    9???_    AOJA	7,15277
003272  322640 015312    :6@!K*    4Z??e    JUMPE	15,15312
003273  135700 025015    +O "H-    ?<?*?    LDB	16,25015
003274  336000 000016    ;P   .    7@???    SKIPN	0,16
003275  201700 000001    0/   !     <???    MOVEI	16,1
003276  220700 000015    2'   -    $????    IMUL	16,15
003277  137700 025015    +_ "H-    ?|?*?    DPB	16,25015
003300  344340 015277    <C@!J_    9???_    AOJA	7,15277
003301  402007 000001    @0'  !    @@8??    SETZM	0,1(7)
003302  344340 015277    <C@!J_    9???_    AOJA	7,15277
003303  326240 015265    :R@!JU    5J??Z    JUMPN	5,15265
003304  332001 777776    ;0!__^    6@???    SKIPE	0,777776(1)
003305  254000 015265    5@ !JU    +???Z    JRST	0,15265
003306  250201 777777    5"!___    *????    EXCH	4,777777(1)
003307  230201 777777    3"!___    &????    IDIV	4,777777(1)
003310  201240 000000    0*@        *???    MOVEI	5,0
003311  325000 015175    :H !I]    5 ??>    JUMPGE	0,15175
003312  200341 777771    0#A__Y     ???|    MOVE	7,777771(1)
003313  312340 014704    93@!G$    2N??b    CAME	7,14704
003314  001000 514466     ( IDV    ? ???    UUO01	0,514466
003315  254000 015175    5@ !I]    +???>    JRST	0,15175
003316  201300 015341    0+ !KA     ,??p    MOVEI	6,15341
003317  201440 000030    0,@  8     2???    MOVEI	11,30
003320  254000 015237    5@ !J?    +???O    JRST	0,15237
003321  201300 015337    0+ !K?     ,??o    MOVEI	6,15337
003322  254000 015330    5@ !K8    +???l    JRST	0,15330
003323  201300 015343    0+ !KC     ,??q    MOVEI	6,15343
003324  201440 000040    0,@  @     2???    MOVEI	11,40
003325  254000 015331    5@ !K9    +???l    JRST	0,15331
003326  201340 430201    0+@C"!     .?0@    MOVEI	7,430201
003327  254000 015344    5@ !KD    +???r    JRST	0,15344
003330  201340 434201    0+@CB!     .?8@    MOVEI	7,434201
003331  254000 015344    5@ !KD    +???r    JRST	0,15344
003332  201340 404201    0+@@B!     .??@    MOVEI	7,404201
003333  506340 015350    HS@!KH    QN??t    HRLM	7,15350
003334  326240 015265    :R@!JU    5J??Z    JUMPN	5,15265
003335  332001 777776    ;0!__^    6@???    SKIPE	0,777776(1)
003336  254000 015265    5@ !JU    +???Z    JRST	0,15265
003337  000000 777777       ___    ?????    UUO00	0,777777
003340  254000 015175    5@ !I]    +???>    JRST	0,15175
003341  201300 015355    0+ !KM     ,??v    MOVEI	6,15355
003342  201440 000100    0,@ !      2??     MOVEI	11,100
003343  254000 015237    5@ !J?    +???O    JRST	0,15237
003344  326240 015265    :R@!JU    5J??Z    JUMPN	5,15265
003345  200400 000004    0$   $     ????    MOVE	10,4
003346  200201 777777    0"!___     ????    MOVE	4,777777(1)
003347  242210 000000    42(       (H@??    LSH	4,0(10)
003350  254000 015175    5@ !I]    +???>    JRST	0,15175
003351  260040 016145    6 @!QE    ,???2    PUSHJ	1,16145
003352  302200 000015    82   -    0H???    CAIE	4,15
003353  254000 015362    5@ !KR    +???y    JRST	0,15362
003354  261040 025016    6(@"H.    ,"?*?    PUSH	1,25016
003355  254000 015403    5@ !L#    +????    JRST	0,15403
003356  336000 014760    ;P !GP    7@??x    SKIPN	0,14760
003357  254000 015420    5@ !L0    +????    JRST	0,15420
003360  254000 015427    5@ !L7    +????    JRST	0,15427
003361  332640 015044    ;6@!HD    6Z???    SKIPE	15,15044
003362  370000 000015    ?    -    >????    SOS	0,15
003363  231640 000004    3.@  $    &:???    IDIVI	15,4
003364  200716 015017    0'.!H/     ?p??    MOVE	16,15017(16)
003365  270700 000015    7'   -    .????    ADD	16,15
003366  202700 015030    07 !H8     \???    MOVEM	16,15030
003367  263040 000000    68@       ,b???    POPJ	1,0
003370  334200 014742    ;B !GB    7???q    SKIPA	4,14742
003371  260040 016163    6 @!QS    ,???9    PUSHJ	1,16163
003372  256000 015471    5P !LY    +@???    XCT	0,15471
003373  254000 015462    5@ !LR    +????    JRST	0,15462
003374  337000 015030    ;X !H8    7`???    SKIPG	0,15030
003375  260040 015372    6 @!KZ    ,???}    PUSHJ	1,15372
003376  254000 015501    5@ !M!    +???     JRST	0,15501
003377  634100 025017    SA "H/    g??*?    TDZA	2,25017
003400  630100 025020    S! "H0    f??*?    TDZ	2,25020
003401  403500 015542    @= !MB    @t??1    SETZB	12,15542
003402  200140 025021    0!@"H1     ??*?    MOVE	3,25021
003403  356000 015556    =P !MN    ;@??7    AOSN	0,15556
003404  251140 015552    5)@!MJ    *&??5    BLT	3,15552
003405  201340 000006    0+@  &     .???    MOVEI	7,6
003406  630100 025022    S! "H2    f??*?    TDZ	2,25022
003407  260040 015467    6 @!LW    ,????    PUSHJ	1,15467
003410  202200 014742    02 !GB     H??q    MOVEM	4,14742
003411  550204 025202    M"$"J"    Z? *A    HRRZ	4,25202(4)
003412  200304 021651    0#$".I     ? #T    MOVE	6,21651(4)
003413  202300 014702    03 !G"     L??a    MOVEM	6,14702
003414  603300 400000    P; @      `l???    TLNE	6,400000
003415  254006 000000    5@&       +?0??    JRST	0,0(6)
003416  606100 000002    PQ   "    aD???    TRNN	2,2
003417  254000 023664    5@ ">T    +??'Z    JRST	0,23664
003420  602100 000004    P1   $    `D???    TRNE	2,4
003421  263040 000000    68@       ,b???    POPJ	1,0
003422  316500 025023    9U "H3    3T?*?    CAMN	12,25023
003423  254000 015615    5@ !N-    +???F    JRST	0,15615
003424  607100 001000    PY  (     ad???    TLNN	2,1000
003425  260040 015557    6 @!MO    ,???7    PUSHJ	1,15557
003426  607100 000004    PY   $    ad???    TLNN	2,4
003427  254000 015453    5@ !LK    +????    JRST	0,15453
003430  200200 000005    0"   %     ????    MOVE	4,5
003431  271200 000306    7*  #&    .(??c    ADDI	4,306
003432  271140 000200    7)@ "     .&??@    ADDI	3,200
003433  325140 015447    :I@!LG    5&???    JUMPGE	3,15447
003434  242140 777777    41@___    (F???    LSH	3,777777
003435  350000 000004    =    $    :????    AOS	0,4
003436  250200 000003    5"   #    *????    EXCH	4,3
003437  244140 777770    4A@__X    )???|    ASHC	3,777770
003440  332000 000003    ;0   #    6@???    SKIPE	0,3
003441  002000 456057     0 EPO    ?@?\?    UUO02	0,456057
003442  621100 000003    R)   #    d$???    TLZ	2,3
003443  254000 023741    5@ "?A    +??'p    JRST	0,23741
003444  205200 000020    0J   0    !(???    MOVSI	4,20
003445  436200 014710    CR !G(    GH??d    IORM	4,14710
003446  660100 000002    V!   "    l????    TRO	2,2
003447  254000 015420    5@ !L0    +????    JRST	0,15420
003450  260040 016145    6 @!QE    ,???2    PUSHJ	1,16145
003451  256004 025202    5P$"J"    +@ *A    XCT	0,25202(4)
003452  664100 000026    VA   6    m????    TROA	2,26
003453  660100 000022    V!   2    l????    TRO	2,22
003454  365340 015461    >K@!LQ    =.???    SOJGE	7,15461
003455  344340 015461    <C@!LQ    9????    AOJA	7,15461
003456  623100 002000    R9  0     dd???    TLZE	2,2000
003457  254000 015401    5@ !L!    +????    JRST	0,15401
003460  606000 010000    PP !      a@???    TRNN	0,10000
003461  254000 015461    5@ !LQ    +????    JRST	0,15461
003462  337000 015030    ;X !H8    7`???    SKIPG	0,15030
003463  260040 015372    6 @!KZ    ,???}    PUSHJ	1,15372
003464  134200 015030    +B !H8    ?????    ILDB	4,15030
003465  350000 015044    =  !HD    :????    AOS	0,15044
003466  622200 000200    R2  "     dH??@    TRZE	4,200
003467  254000 015402    5@ !L"    +????    JRST	0,15402
003470  256004 025202    5P$"J"    +@ *A    XCT	0,25202(4)
003471  664100 000026    VA   6    m????    TROA	2,26
003472  660100 000022    V!   2    l????    TRO	2,22
003473  365340 015475    >K@!L]    =.???    SOJGE	7,15475
003474  344340 015475    <C@!L]    9????    AOJA	7,15475
003475  260040 000253    6 @ "K    ,???U    PUSHJ	1,253
003476  254000 015403    5@ !L#    +????    JRST	0,15403
003477  476000 015556    GP !MN    O@??7    SETOM	0,15556
003500  201140 000002    0)@  "     &???    MOVEI	3,2
003501  335003 015545    ;H#!ME    7 ??2    SKIPGE	0,15545(3)
003502  254000 015537    5@ !M?    +???/    JRST	0,15537
003503  200403 015550    0$#!MH     ???4    MOVE	10,15550(3)
003504  224403 015553    2D#!MK    %???5    MUL	10,15553(3)
003505  202440 000015    04@  -     R???    MOVEM	11,15
003506  200443 015545    0$C!ME     ???2    MOVE	11,15545(3)
003507  270640 000004    7&@  $    .????    ADD	15,4
003510  623640 400000    R>@@      dz???    TLZE	15,400000
003511  350000 000010    =    (    :????    AOS	0,10
003512  255740 015524    5O@!M4    +>??*    JFCL	17,15524
003513  220443 015553    2$C!MK    $???5    IMUL	11,15553(3)
003514  270440 000010    7$@  (    .????    ADD	11,10
003515  255400 015535    5L !M=    +0??.    JFCL	10,15535
003516  603100 000004    P9   $    `d???    TLNE	2,4
003517  370003 015542    ? #!MB    >???1    SOS	0,15542(3)
003520  202443 015545    04C!ME     R??2    MOVEM	11,15545(3)
003521  202643 015550    06C!MH     Z??4    MOVEM	15,15550(3)
003522  365140 015512    >I@!M*    =&??%    SOJGE	3,15512
003523  263040 000000    68@       ,b???    POPJ	1,0
003524  205240 400000    0J@@      !*???    MOVSI	5,400000
003525  436243 015545    CRC!ME    GJ??2    IORM	5,15545(3)
003526  607100 000004    PY   $    ad???    TLNN	2,4
003527  350003 015542    = #!MB    :???1    AOS	0,15542(3)
003530  254000 015533    5@ !M;    +???-    JRST	0,15533
003531  147001 414526    ,X!AE6    ?`??+    FADBR	0,414526(1)
003532  777553 015553    _]K!MK    ?vX?5    DATAO	774,15553(13)
003533  000000 000010         (    ?????    UUO00	0,10
003534  000000 000012         *    ?????    UUO00	0,12
003535  000000 000010         (    ?????    UUO00	0,10
003536  000000 000000              ?????    UUO00	0,0
003537  403440 000007    @<@  '    @r???    SETZB	11,7
003540  260040 015626    6 @!N6    ,???K    PUSHJ	1,15626
003541  200147 015545    0!G!ME     ?8?2    MOVE	3,15545(7)
003542  200247 015550    0"G!MH     ?8?4    MOVE	5,15550(7)
003543  200407 015542    0$'!MB     ?8?1    MOVE	10,15542(7)
003544  607100 000004    PY   $    ad???    TLNN	2,4
003545  254000 015620    5@ !N0    +???H    JRST	0,15620
003546  621140 400000    R)@@      d&???    TLZ	3,400000
003547  326140 015571    :Q@!MY    5F??<    JUMPN	3,15571
003550  322240 015617    :2@!N/    4J??G    JUMPE	5,15617
003551  321400 015641    :, !NA    40??P    JUMPL	10,15641
003552  322400 015610    :4 !N(    4P??D    JUMPE	10,15610
003553  224247 015553    2BG!MK    %?8?5    MUL	5,15553(7)
003554  224147 015553    2AG!MK    %?8?5    MUL	3,15553(7)
003555  270200 000005    7"   %    .????    ADD	4,5
003556  623200 400000    R: @      dh???    TLZE	4,400000
003557  271140 000001    7)@  !    .&???    ADDI	3,1
003560  200240 000006    0"@  &     ????    MOVE	5,6
003561  322140 015606    :1@!N&    4F??C    JUMPE	3,15606
003562  244200 777777    4B ___    )????    ASHC	4,777777
003563  240200 000001    4"   !    (????    ASH	4,1
003564  244140 777777    4A@___    )????    ASHC	3,777777
003565  344440 015601    <D@!N!    9???@    AOJA	11,15601
003566  200140 000004    0!@  $     ????    MOVE	3,4
003567  367400 015573    >\ !M[    =p??=    SOJG	10,15573
003570  334200 000005    ;B   %    7????    SKIPA	4,5
003571  244140 000001    4A@  !    )????    ASHC	3,1
003572  607140 200000    PY@0      af???    TLNN	3,200000
003573  364440 015611    >D@!N)    =???D    SOJA	11,15611
003574  334240 000011    ;B@  )    7????    SKIPA	5,11
003575  660100 000004    V!   $    l????    TRO	2,4
003576  263040 000000    68@       ,b???    POPJ	1,0
003577  621100 000004    R)   $    d$???    TLZ	2,4
003600  246200 000045    4R   E    )H???    LSHC	4,45
003601  246140 777777    4Q@___    )F???    LSHC	3,777777
003602  322140 015624    :1@!N4    4F??J    JUMPE	3,15624
003603  002000 706347     0 XSG    ?@??s    UUO02	0,706347
003604  263040 000000    68@       ,b???    POPJ	1,0
003605  201340 000000    0+@        .???    MOVEI	7,0
003606  603100 000010    P9   (    `d???    TLNE	2,10
003607  201340 000001    0+@  !     .???    MOVEI	7,1
003610  603100 000002    P9   "    `d???    TLNE	2,2
003611  201340 000002    0+@  "     .???    MOVEI	7,2
003612  603100 000001    P9   !    `d???    TLNE	2,1
003613  201340 000000    0+@        .???    MOVEI	7,0
003614  263040 000000    68@       ,b???    POPJ	1,0
003615  242240 000001    42@  !    (J???    LSH	5,1
003616  240140 000001    4!@  !    (????    ASH	3,1
003617  623240 400000    R:@@      dj???    TLZE	5,400000
003620  660140 000001    V!@  !    l????    TRO	3,1
003621  607140 200000    PY@0      af???    TLNN	3,200000
003622  364440 015635    >D@!N=    =???N    SOJA	11,15635
003623  230147 015553    3!G!MK    &?8?5    IDIV	3,15553(7)
003624  270240 000004    7"@  $    .????    ADD	5,4
003625  201200 000000    0*         (???    MOVEI	4,0
003626  623240 400000    R:@@      dj???    TLZE	5,400000
003627  201200 000001    0*   !     (???    MOVEI	4,1
003630  234207 015553    3B'!MK    '?8?5    DIV	4,15553(7)
003631  200240 000004    0"@  $     ????    MOVE	5,4
003632  341400 015641    <, !NA    80??P    AOJL	10,15641
003633  254000 015612    5@ !N*    +???E    JRST	0,15612
003634  666100 000002    VQ   "    mD???    TRON	2,2
003635  254000 015774    5@ !O\    +???~    JRST	0,15774
003636  602100 000004    P1   $    `D???    TRNE	2,4
003637  002000 515446     0 ILF    ?@???    UUO02	0,515446
003640  260040 015557    6 @!MO    ,???7    PUSHJ	1,15557
003641  661100 000020    V)   0    l$???    TLO	2,20
003642  260040 015701    6 @!O!    ,???`    PUSHJ	1,15701
003643  621100 000020    R)   0    d$???    TLZ	2,20
003644  200440 000005    0$@  %     ????    MOVE	11,5
003645  200240 000004    0"@  $     ????    MOVE	5,4
003646  260040 015625    6 @!N5    ,???J    PUSHJ	1,15625
003647  260040 015567    6 @!MW    ,???;    PUSHJ	1,15567
003650  603100 000004    P9   $    `d???    TLNE	2,4
003651  254000 015676    5@ !N^    +???_    JRST	0,15676
003652  244145 000000    4AE       )?(??    ASHC	3,0(5)
003653  322140 015675    :1@!N]    4F??^    JUMPE	3,15675
003654  002000 706347     0 XSG    ?@??s    UUO02	0,706347
003655  201240 000000    0*@        *???    MOVEI	5,0
003656  200300 014702    0# !G"     ???a    MOVE	6,14702
003657  661100 001000    V)  (     l$???    TLO	2,1000
003660  254000 015425    5@ !L5    +????    JRST	0,15425
003661  265540 015116    6M@!I.    -6??'    JSP	13,15116
003662  260040 016145    6 @!QE    ,???2    PUSHJ	1,16145
003663  306200 000055    8R   M    1H???    CAIN	4,55
003664  664100 020000    VA "      m?? ?    TROA	2,20000
003665  661100 002000    V)  0     l$???    TLO	2,2000
003666  260040 016145    6 @!QE    ,???2    PUSHJ	1,16145
003667  306200 000074    8R   \    1H???    CAIN	4,74
003670  254000 015724    5@ !O4    +???j    JRST	0,15724
003671  661100 002000    V)  0     l$???    TLO	2,2000
003672  260040 015411    6 @!L)    ,????    PUSHJ	1,15411
003673  606100 000004    PQ   $    aD???    TRNN	2,4
003674  603100 000004    P9   $    `d???    TLNE	2,4
003675  002000 515446     0 ILF    ?@???    UUO02	0,515446
003676  626100 020000    RQ "      eD? ?    TRZN	2,20000
003677  334400 000004    ;D   $    7????    SKIPA	10,4
003700  210400 000004    1$   $    "????    MOVN	10,4
003701  201440 015123    0,@!I3     2??)    MOVEI	11,15123
003702  265540 016053    6M@!PK    -6???    JSP	13,16053
003703  263040 000000    68@       ,b???    POPJ	1,0
003704  661100 000040    V)   @    l$???    TLO	2,40
003705  260040 020305    6 @"#%    ,?? b    PUSHJ	1,20305
003706  261040 000004    6(@  $    ,"???    PUSH	1,4
003707  260040 016145    6 @!QE    ,???2    PUSHJ	1,16145
003710  306200 000041    8R   A    1H???    CAIN	4,41
003711  254000 015727    5@ !O7    +???k    JRST	0,15727
003712  554404 025202    MD$"J"    [? *A    HLRZ	10,25202(4)
003713  302200 000056    82   N    0H???    CAIE	4,56
003714  302400 263040    84 68@    0P?f?    CAIE	10,263040
003715  002000 515446     0 ILF    ?@???    UUO02	0,515446
003716  550204 025202    M"$"J"    Z? *A    HRRZ	4,25202(4)
003717  200204 021651    0"$".I     ? #T    MOVE	4,21651(4)
003720  202200 014702    02 !G"     H??a    MOVEM	4,14702
003721  262040 000004    60@  $    ,B???    POP	1,4
003722  326240 022730    :R@"78    5J?%l    JUMPN	5,22730
003723  254000 015716    5@ !O.    +???g    JRST	0,15716
003724  603100 000020    P9   0    `d???    TLNE	2,20
003725  254000 015435    5@ !L=    +????    JRST	0,15435
003726  602100 000002    P1   "    `D???    TRNE	2,2
003727  602100 000004    P1   $    `D???    TRNE	2,4
003730  254000 015765    5@ !OU    +???z    JRST	0,15765
003731  316500 025023    9U "H3    3T?*?    CAMN	12,25023
003732  254000 015765    5@ !OU    +???z    JRST	0,15765
003733  627100 001000    RY  (     ed???    TLZN	2,1000
003734  260040 015557    6 @!MO    ,???7    PUSHJ	1,15557
003735  260040 015701    6 @!O!    ,???`    PUSHJ	1,15701
003736  270240 000010    7"@  (    .????    ADD	5,10
003737  244145 000000    4AE       )?(??    ASHC	3,0(5)
003740  242200 000001    42   !    (H???    LSH	4,1
003741  246140 777777    4Q@___    )F???    LSHC	3,777777
003742  403240 000003    @:@  #    @j???    SETZB	5,3
003743  621100 000004    R)   $    d$???    TLZ	2,4
003744  263040 000000    68@       ,b???    POPJ	1,0
003745  200440 025024    0$@"H4     ??*?    MOVE	11,25024
003746  202440 014702    04@!G"     R??a    MOVEM	11,14702
003747  254000 015427    5@ !L7    +????    JRST	0,15427
003750  666100 000002    VQ   "    mD???    TRON	2,2
003751  254000 015776    5@ !O^    +????    JRST	0,15776
003752  661100 000001    V)   !    l$???    TLO	2,1
003753  254000 015420    5@ !L0    +????    JRST	0,15420
003754  260040 016145    6 @!QE    ,???2    PUSHJ	1,16145
003755  624200 000100    RB  !     e???     TRZA	4,100
003756  260040 016145    6 @!QE    ,???2    PUSHJ	1,16145
003757  261040 000004    6(@  $    ,"???    PUSH	1,4
003760  105663 646043    (NSTPC    ?;?L?    XX105	15,@646043(3)
003761  776000 016000    _P !P     ?@???    BLKI	760,16000
003762  260040 015410    6 @!L(    ,????    PUSHJ	1,15410
003763  662100 000002    V1   "    lD???    TROE	2,2
003764  002000 515446     0 ILF    ?@???    UUO02	0,515446
003765  254000 024315    5@ "C-    +??(f    JRST	0,24315
003766  666100 000002    VQ   "    mD???    TRON	2,2
003767  254000 016010    5@ !P(    +????    JRST	0,16010
003770  661100 000002    V)   "    l$???    TLO	2,2
003771  254000 015420    5@ !L0    +????    JRST	0,15420
003772  260040 016145    6 @!QE    ,???2    PUSHJ	1,16145
003773  275200 000040    7J   @    /(???    SUBI	4,40
003774  606200 000100    PR  !     aH??     TRNN	4,100
003775  325200 015777    :J !O_    5(???    JUMPGE	4,15777
003776  002000 562642     0 N6B    ?@?eQ    UUO02	0,562642
003777  254000 015777    5@ !O_    +????    JRST	0,15777
004000  275200 000060    7J   P    /(???    SUBI	4,60
004001  602100 000004    P1   $    `D???    TRNE	2,4
004002  254000 016024    5@ !P4    +????    JRST	0,16024
004003  622100 000100    R1  !     dD??     TRZE	2,100
004004  661100 000004    V)   $    l$???    TLO	2,4
004005  260040 015510    6 @!M(    ,???$    PUSHJ	1,15510
004006  256004 016026    5P$!P6    +@ ??    XCT	0,16026(4)
004007  254016 000001    5@.  !    +?p??    JRST	0,1(16)
004010  270507 025767    7%'"OW    .?8+{    ADD	12,25767(7)
004011  270507 025670    7%'"NX    .?8+\    ADD	12,25670(7)
004012  270507 025677    7%'"N_    .?8+_    ADD	12,25677(7)
004013  270507 025706    7%'"O&    .?8+c    ADD	12,25706(7)
004014  270507 025715    7%'"O-    .?8+f    ADD	12,25715(7)
004015  270507 025724    7%'"O4    .?8+j    ADD	12,25724(7)
004016  270507 025733    7%'"O;    .?8+m    ADD	12,25733(7)
004017  270507 025742    7%'"OB    .?8+q    ADD	12,25742(7)
004020  270507 025751    7%'"OI    .?8+t    ADD	12,25751(7)
004021  270507 025760    7%'"OP    .?8+x    ADD	12,25760(7)
004022  261040 014714    6(@!G,    ,"??f    PUSH	1,14714
004023  261040 014715    6(@!G-    ,"??f    PUSH	1,14715
004024  261040 014706    6(@!G&    ,"??c    PUSH	1,14706
004025  261040 014707    6(@!G'    ,"??c    PUSH	1,14707
004026  261040 014716    6(@!G.    ,"??g    PUSH	1,14716
004027  261040 014705    6(@!G%    ,"??b    PUSH	1,14705
004030  261040 000002    6(@  "    ,"???    PUSH	1,2
004031  261040 014710    6(@!G(    ,"??d    PUSH	1,14710
004032  261040 014711    6(@!G)    ,"??d    PUSH	1,14711
004033  261040 000012    6(@  *    ,"???    PUSH	1,12
004034  260053 000000    6 K       ,?X??    PUSHJ	1,0(13)
004035  262040 000014    60@  ,    ,B???    POP	1,14
004036  302454 000000    84L       0R`??    CAIE	11,0(14)
004037  000000 514145       IAE    ????2    UUO00	0,514145
004040  554611 777776    MF)__^    [?O??    HLRZ	14,777776(11)
004041  302600 261040    86 6(@    0X?b?    CAIE	14,261040
004042  254013 000000    5@+       +?X??    JRST	0,0(13)
004043  262071 777776    60Y__^    ,CO??    POP	1,@777776(11)
004044  364440 016056    >D@!PN    =????    SOJA	11,16056
004045  262040 000012    60@  *    ,B???    POP	1,12
004046  553000 000012    M8   *    Z`???    HRRZS	0,12
004047  302500 016053    85 !PK    0T???    CAIE	12,16053
004050  000000 514145       IAE    ????2    UUO00	0,514145
004051  262040 000012    60@  *    ,B???    POP	1,12
004052  262040 014711    60@!G)    ,B??d    POP	1,14711
004053  262040 014710    60@!G(    ,B??d    POP	1,14710
004054  630100 025025    S! "H5    f??*?    TDZ	2,25025
004055  434101 000000    CA!       G????    IOR	2,0(1)
004056  262041 000001    60A  !    ,B???    POP	1,1(1)
004057  262040 014705    60@!G%    ,B??b    POP	1,14705
004060  262040 014716    60@!G.    ,B??g    POP	1,14716
004061  262040 014707    60@!G'    ,B??c    POP	1,14707
004062  262040 014706    60@!G&    ,B??c    POP	1,14706
004063  254013 000000    5@+       +?X??    JRST	0,0(13)
004064  261040 000004    6(@  $    ,"???    PUSH	1,4
004065  261040 000014    6(@  ,    ,"???    PUSH	1,14
004066  200600 015023    0& !H3     ????    MOVE	14,15023
004067  540200 015044    L" !HD    X????    HRR	4,15044
004070  504200 015011    HB !H)    Q????    HRL	4,15011
004071  261600 000004    6.   $    ,8???    PUSH	14,4
004072  504240 014742    HB@!GB    Q???q    HRL	5,14742
004073  623100 002000    R9  0     dd???    TLZE	2,2000
004074  661240 400000    V*@@      l*???    TLO	5,400000
004075  662000 010000    V0 !      l@???    TROE	0,10000
004076  661240 200000    V*@0      l*???    TLO	5,200000
004077  261600 000005    6.   %    ,8???    PUSH	14,5
004100  200200 025026    0" "H6     ??*?    MOVE	4,25026
004101  202200 016147    02 !QG     H??3    MOVEM	4,16147
004102  254000 016141    5@ !QA    +???0    JRST	0,16141
004103  261040 000004    6(@  $    ,"???    PUSH	1,4
004104  261040 000014    6(@  ,    ,"???    PUSH	1,14
004105  200600 015023    0& !H3     ????    MOVE	14,15023
004106  262600 000004    66   $    ,X???    POP	14,4
004107  621100 002000    R)  0     d$???    TLZ	2,2000
004110  623200 400000    R: @      dh???    TLZE	4,400000
004111  661100 002000    V)  0     l$???    TLO	2,2000
004112  620000 010000    R  !      d????    TRZ	0,10000
004113  623200 200000    R: 0      dh???    TLZE	4,200000
004114  660000 010000    V  !      l????    TRO	0,10000
004115  556200 014742    MR !GB    [H??q    HLRZM	4,14742
004116  200200 025027    0" "H7     ??*?    MOVE	4,25027
004117  606000 010000    PP !      a@???    TRNN	0,10000
004120  202200 016147    02 !QG     H??3    MOVEM	4,16147
004121  262600 000005    66   %    ,X???    POP	14,5
004122  542240 015044    L2@!HD    XJ???    HRRM	5,15044
004123  476000 015030    GP !H8    O@???    SETOM	0,15030
004124  202600 015023    06 !H3     X???    MOVEM	14,15023
004125  262040 000014    60@  ,    ,B???    POP	1,14
004126  254000 024315    5@ "C-    +??(f    JRST	0,24315
004127  623100 002000    R9  0     dd???    TLZE	2,2000
004130  254000 016152    5@ !QJ    +???5    JRST	0,16152
004131  260040 000250    6 @ "H    ,???T    PUSHJ	1,250
004132  202200 014742    02 !GB     H??q    MOVEM	4,14742
004133  263040 000000    68@       ,b???    POPJ	1,0
004134  200200 014742    0" !GB     ???q    MOVE	4,14742
004135  263040 000000    68@       ,b???    POPJ	1,0
004136  262040 000005    60@  %    ,B???    POP	1,5
004137  337000 015030    ;X !H8    7`???    SKIPG	0,15030
004140  260040 015372    6 @!KZ    ,???}    PUSHJ	1,15372
004141  134200 015030    +B !H8    ?????    ILDB	4,15030
004142  350000 015044    =  !HD    :????    AOS	0,15044
004143  626200 000200    RR  "     eH??@    TRZN	4,200
004144  254000 016150    5@ !QH    +???4    JRST	0,16150
004145  261040 000005    6(@  %    ,"???    PUSH	1,5
004146  306200 000176    8R  !^    1H???    CAIN	4,176
004147  254000 016154    5@ !QL    +???6    JRST	0,16154
004150  302200 000177    82  !_    0H???    CAIE	4,177
004151  306200 000175    8R  !]    1H??>    CAIN	4,175
004152  254000 016202    5@ !R"    +???A    JRST	0,16202
004153  200240 000004    0"@  $     ????    MOVE	5,4
004154  270240 015011    7"@!H)    .????    ADD	5,15011
004155  200205 000000    0"%        ?(??    MOVE	4,0(5)
004156  201240 016222    0*@!R2     *??I    MOVEI	5,16222
004157  260040 016102    6 @!Q"    ,???!    PUSHJ	1,16102
004160  542200 015044    L2 !HD    XH???    HRRM	4,15044
004161  200200 015010    0" !H(     ????    MOVE	4,15010
004162  202200 015011    02 !H)     H???    MOVEM	4,15011
004163  254000 016154    5@ !QL    +???6    JRST	0,16154
004164  200240 015023    0"@!H3     ????    MOVE	5,15023
004165  263240 000000    6:@       ,j???    POPJ	5,0
004166  370000 015066    ?  !HV    >????    SOS	0,15066
004167  261040 000004    6(@  $    ,"???    PUSH	1,4
004170  200240 015010    0"@!H(     ????    MOVE	5,15010
004171  317240 015011    9Z@!H)    3j???    CAMG	5,15011
004172  254000 016221    5@ !R1    +???H    JRST	0,16221
004173  554205 777777    MB%___    [?/??    HLRZ	4,777777(5)
004174  270205 777777    7"%___    .?/??    ADD	4,777777(5)
004175  201204 000001    0*$  !     ( ??    MOVEI	4,1(4)
004176  312200 015024    92 !H4    2H???    CAME	4,15024
004177  254000 016221    5@ !R1    +???H    JRST	0,16221
004200  550205 777777    M"%___    Z?/??    HRRZ	4,777777(5)
004201  202200 015024    02 !H4     H???    MOVEM	4,15024
004202  364240 016207    >B@!R'    =???C    SOJA	5,16207
004203  262040 000004    60@  $    ,B???    POP	1,4
004204  200240 015011    0"@!H)     ????    MOVE	5,15011
004205  202240 015010    02@!H(     J???    MOVEM	5,15010
004206  260040 016121    6 @!Q1    ,???(    PUSHJ	1,16121
004207  546240 015011    LR@!H)    YJ???    HLRM	5,15011
004210  622000 000200    R0  "     d@??@    TRZE	0,200
004211  263040 000000    68@       ,b???    POPJ	1,0
004212  262040 000005    60@  %    ,B???    POP	1,5
004213  254000 016145    5@ !QE    +???2    JRST	0,16145
004214  200640 000004    0&@  $     ????    MOVE	15,4
004215  231640 000004    3.@  $    &:???    IDIVI	15,4
004216  135256 015012    +JN!H*    ?*p??    LDB	5,15012(16)
004217  344200 023742    <B "?B    9??'q    AOJA	4,23742
004220  260040 016344    6 @!SD    ,???r    PUSHJ	1,16344
004221  260040 016145    6 @!QE    ,???2    PUSHJ	1,16145
004222  603540 002000    P=@ 0     `v???    TLNE	13,2000
004223  254000 016246    5@ !RF    +???S    JRST	0,16246
004224  306200 000133    8R  !;    1H??-    CAIN	4,133
004225  254000 016374    5@ !S\    +???~    JRST	0,16374
004226  306200 000134    8R  !<    1H??.    CAIN	4,134
004227  325540 016353    :M@!SK    56??u    JUMPGE	13,16353
004230  302200 000015    82   -    0H???    CAIE	4,15
004231  306200 000012    8R   *    1H???    CAIN	4,12
004232  254000 016265    5@ !RU    +???Z    JRST	0,16265
004233  306200 000073    8R   [    1H???    CAIN	4,73
004234  325540 016260    :M@!RP    56??X    JUMPGE	13,16260
004235  306200 000054    8R   L    1H???    CAIN	4,54
004236  325540 016266    :M@!RV    56??[    JUMPGE	13,16266
004237  260040 016275    6 @!R]    ,???^    PUSHJ	1,16275
004240  260040 016145    6 @!QE    ,???2    PUSHJ	1,16145
004241  254000 016246    5@ !RF    +???S    JRST	0,16246
004242  661100 002000    V)  0     l$???    TLO	2,2000
004243  254000 016265    5@ !RU    +???Z    JRST	0,16265
004244  200200 014742    0" !GB     ???q    MOVE	4,14742
004245  302200 000015    82   -    0H???    CAIE	4,15
004246  306200 000012    8R   *    1H???    CAIN	4,12
004247  661540 000200    V-@ "     l6??@    TLO	13,200
004250  200400 000004    0$   $     ????    MOVE	10,4
004251  603540 004000    P=@ @     `v???    TLNE	13,4000
004252  263040 000000    68@       ,b???    POPJ	1,0
004253  504200 015067    HB !HW    Q????    HRL	4,15067
004254  540200 015031    L" !H9    X????    HRR	4,15031
004255  502204 777777    H2$___    PH'??    HLLM	4,777777(4)
004256  201200 000375    0*  #]     (??~    MOVEI	4,375
004257  200640 015024    0&@!H4     ????    MOVE	15,15024
004260  231640 000004    3.@  $    &:???    IDIVI	15,4
004261  137216 015012    +Z.!H*    ?hp??    DPB	4,15012(16)
004262  350200 015024    =" !H4    :????    AOS	4,15024
004263  350000 015067    =  !HW    :????    AOS	0,15067
004264  305200 177770    8J /_X    1(??|    CAIGE	4,177770
004265  263040 000000    68@       ,b???    POPJ	1,0
004266  202200 015072    02 !HZ     H???    MOVEM	4,15072
004267  202740 345606    07@<N&     ^?KC    MOVEM	17,345606
004270  200740 025030    0'@"H8     ??*?    MOVE	17,25030
004271  251740 345605    5/@<N%    *>?KB    BLT	17,345605
004272  403400 015062    @< !HR    @p???    SETZB	10,15062
004273  201200 000003    0*   #     (???    MOVEI	4,3
004274  202200 015056    02 !HN     H???    MOVEM	4,15056
004275  202200 015024    02 !H4     H???    MOVEM	4,15024
004276  476000 015030    GP !H8    O@???    SETOM	0,15030
004277  200200 025031    0" "H9     ??*?    MOVE	4,25031
004300  202200 015064    02 !HT     H???    MOVEM	4,15064
004301  202200 015063    02 !HS     H???    MOVEM	4,15063
004302  205200 714020    0J Y@0    !(???    MOVSI	4,714020
004303  135240 025032    +J@"H:    ?*?*?    LDB	5,25032
004304  306240 000001    8R@  !    1J???    CAIN	5,1
004305  254000 016422    5@ !T2    +????    JRST	0,16422
004306  350000 000004    =    $    :????    AOS	0,4
004307  253200 016321    5: !S1    *h??h    AOBJN	4,16321
004310  202400 015055    04 !HM     P???    MOVEM	10,15055
004311  200300 015056    0# !HN     ????    MOVE	6,15056
004312  200440 015024    0$@!H4     ????    MOVE	11,15024
004313  202440 015061    04@!HQ     R???    MOVEM	11,15061
004314  200440 015064    0$@!HT     ????    MOVE	11,15064
004315  202440 015065    04@!HU     R???    MOVEM	11,15065
004316  260040 016413    6 @!T+    ,????    PUSHJ	1,16413
004317  200440 000005    0$@  %     ????    MOVE	11,5
004320  311540 015072    9-@!HZ    26???    CAML	13,15072
004321  254000 016430    5@ !T8    +????    JRST	0,16430
004322  306240 000375    8R@ #]    1J??~    CAIN	5,375
004323  254000 016431    5@ !T9    +????    JRST	0,16431
004324  260040 016413    6 @!T+    ,????    PUSHJ	1,16413
004325  254000 016336    5@ !S>    +???o    JRST	0,16336
004326  402000 015067    @0 !HW    @@???    SETZM	0,15067
004327  200200 015024    0" !H4     ????    MOVE	4,15024
004330  202220 015031    020!H9     I???    MOVEM	4,@15031
004331  350200 015031    =" !H9    :????    AOS	4,15031
004332  301200 336571    8* ;UY    0(?=<    CAIL	4,336571
004333  000000 645541       TMA    ???K0    UUO00	0,645541
004334  263040 016262    68@!RR    ,b??Y    POPJ	1,16262
004335  370000 015031    ?  !H9    >????    SOS	0,15031
004336  261040 000013    6(@  +    ,"???    PUSH	1,13
004337  260040 017237    6 @!Z?    ,???O    PUSHJ	1,17237
004340  001000 656355     ( USM    ? ?\v    UUO01	0,656355
004341  262040 000013    60@  +    ,B???    POP	1,13
004342  200640 000004    0&@  $     ????    MOVE	15,4
004343  260040 016344    6 @!SD    ,???r    PUSHJ	1,16344
004344  261040 016352    6(@!SJ    ,"??u    PUSH	1,16352
004345  246640 777735    4V@__=    )Z??n    LSHC	15,777735
004346  242700 777777    47 ___    (\???    LSH	16,777777
004347  234640 015553    3F@!MK    '???5    DIV	15,15553
004350  506701 000000    HW!       Q\???    HRLM	16,0(1)
004351  322640 016371    :6@!SY    4Z??|    JUMPE	15,16371
004352  260040 016363    6 @!SS    ,???y    PUSHJ	1,16363
004353  554201 000000    MB!       [????    HLRZ	4,0(1)
004354  271200 000060    7*   P    .(???    ADDI	4,60
004355  254000 016275    5@ !R]    +???^    JRST	0,16275
004356  634300 000006    SC   &    g????    TDZA	6,6
004357  260040 016275    6 @!R]    ,???^    PUSHJ	1,16275
004360  260040 017372    6 @![Z    ,???}    PUSHJ	1,17372
004361  254000 016375    5@ !S]    +???~    JRST	0,16375
004362  603540 004000    P=@ @     `v???    TLNE	13,4000
004363  254000 016266    5@ !RV    +???[    JRST	0,16266
004364  260040 016145    6 @!QE    ,???2    PUSHJ	1,16145
004365  661100 002000    V)  0     l$???    TLO	2,2000
004366  302200 000015    82   -    0H???    CAIE	4,15
004367  306200 000012    8R   *    1H???    CAIN	4,12
004370  661540 010200    V-@!"     l6??@    TLO	13,10200
004371  254000 016266    5@ !RV    +???[    JRST	0,16266
004372  231640 000004    3.@  $    &:???    IDIVI	15,4
004373  137216 015012    +Z.!H*    ?hp??    DPB	4,15012(16)
004374  263040 000000    68@       ,b???    POPJ	1,0
004375  134240 015063    +B@!HS    ?????    ILDB	5,15063
004376  136240 015064    +R@!HT    ?J???    IDPB	5,15064
004377  350540 015056    =%@!HN    :????    AOS	13,15056
004400  350200 015024    =" !H4    :????    AOS	4,15024
004401  303200 177760    8: /_P    0h??x    CAILE	4,177760
004402  000000 554345       MCE    ???Xr    UUO00	0,554345
004403  263040 000000    68@       ,b???    POPJ	1,0
004404  550244 073111    M"D'9)    Z? v$    HRRZ	5,73111(4)
004405  302240 016527    82@!U7    0J??+    CAIE	5,16527
004406  254000 016324    5@ !S4    +???j    JRST	0,16324
004407  542404 073111    L4$'9)    XP v$    HRRM	10,73111(4)
004410  201404 073111    0,$'9)     0 v$    MOVEI	10,73111(4)
004411  254000 016324    5@ !S4    +???j    JRST	0,16324
004412  476000 015062    GP !HR    O@???    SETOM	0,15062
004413  402000 015060    @0 !HP    @@???    SETZM	0,15060
004414  200340 015056    0#@!HN     ????    MOVE	7,15056
004415  274340 015024    7C@!H4    /????    SUB	7,15024
004416  202340 015057    03@!HO     N???    MOVEM	7,15057
004417  200240 015056    0"@!HN     ????    MOVE	5,15056
004420  302440 000374    84@ #\    0R??~    CAIE	11,374
004421  254000 016453    5@ !TK    +????    JRST	0,16453
004422  200400 015055    0$ !HM     ????    MOVE	10,15055
004423  322400 016453    :4 !TK    4P???    JUMPE	10,16453
004424  554450 000000    MDH       [?@??    HLRZ	11,0(10)
004425  311440 000006    9,@  &    22???    CAML	11,6
004426  311440 000005    9,@  %    22???    CAML	11,5
004427  254000 016451    5@ !TI    +????    JRST	0,16451
004430  476000 015060    GP !HP    O@???    SETOM	0,15060
004431  274440 015057    7D@!HO    /????    SUB	11,15057
004432  506450 000000    HTH       QR@??    HRLM	11,0(10)
004433  550410 000000    M$(       Z?@??    HRRZ	10,0(10)
004434  326400 016442    :T !TB    5P???    JUMPN	10,16442
004435  200400 015010    0$ !H(     ????    MOVE	10,15010
004436  201640 336571    0.@;UY     :?=<    MOVEI	15,336571
004437  260040 016513    6 @!U+    ,???%    PUSHJ	1,16513
004440  550400 015023    M$ !H3    Z????    HRRZ	10,15023
004441  561640 342571    N.@<5Y    \:?E<    HRROI	15,342571
004442  260040 016513    6 @!U+    ,???%    PUSHJ	1,16513
004443  550400 015035    M$ !H=    Z????    HRRZ	10,15035
004444  350000 000010    =    (    :????    AOS	0,10
004445  201640 015037    0.@!H?     :???    MOVEI	15,15037
004446  260040 016513    6 @!U+    ,???%    PUSHJ	1,16513
004447  550400 015031    M$ !H9    Z????    HRRZ	10,15031
004450  201640 336171    0.@;QY     :?<<    MOVEI	15,336171
004451  260040 016513    6 @!U+    ,???%    PUSHJ	1,16513
004452  335000 015062    ;H !HR    7 ???    SKIPGE	0,15062
004453  254000 016501    5@ !U!    +???     JRST	0,16501
004454  200440 015061    0$@!HQ     ????    MOVE	11,15061
004455  331000 015060    ;( !HP    6 ???    SKIPL	0,15060
004456  202440 015024    04@!H4     R???    MOVEM	11,15024
004457  200440 015065    0$@!HU     ????    MOVE	11,15065
004460  331000 015060    ;( !HP    6 ???    SKIPL	0,15060
004461  202440 015064    04@!HT     R???    MOVEM	11,15064
004462  254000 016327    5@ !S7    +???k    JRST	0,16327
004463  200400 015055    0$ !HM     ????    MOVE	10,15055
004464  201200 016527    0* !U7     (??+    MOVEI	4,16527
004465  322400 016510    :4 !U(    4P??$    JUMPE	10,16510
004466  550450 000000    M$H       Z?@??    HRRZ	11,0(10)
004467  542210 000000    L2(       XH@??    HRRM	4,0(10)
004470  200400 000011    0$   )     ????    MOVE	10,11
004471  254000 016503    5@ !U#    +???!    JRST	0,16503
004472  204740 025030    0G@"H8    !??*?    MOVS	17,25030
004473  251740 000017    5/@  /    *>???    BLT	17,17
004474  263040 000000    68@       ,b???    POPJ	1,0
004475  307415 000000    8\-       1ph??    CAIG	10,0(15)
004476  263040 000000    68@       ,b???    POPJ	1,0
004477  550450 777777    M$H___    Z?G??    HRRZ	11,777777(10)
004500  311440 000006    9,@  &    22???    CAML	11,6
004501  311440 000005    9,@  %    22???    CAML	11,5
004502  254000 016524    5@ !U4    +???*    JRST	0,16524
004503  274440 015057    7D@!HO    /????    SUB	11,15057
004504  542450 777777    L4H___    XRG??    HRRM	11,777777(10)
004505  476000 015060    GP !HP    O@???    SETOM	0,15060
004506  335000 000015    ;H   -    7 ???    SKIPGE	0,15
004507  370000 000010    ?    (    >????    SOS	0,10
004510  364400 016513    >D !U+    =???%    SOJA	10,16513
004511  205740 777764    0O@__T    !>??z    MOVSI	17,777764
004512  261057 000002    6(O  "    ,"x??    PUSH	1,2(17)
004513  253740 016530    5?@!U8    *~??,    AOBJN	17,16530
004514  350000 015035    =  !H=    :????    AOS	0,15035
004515  350000 015066    =  !HV    :????    AOS	0,15066
004516  261040 015031    6(@!H9    ,"???    PUSH	1,15031
004517  201540 000000    0-@        6???    MOVEI	13,0
004520  554200 000005    MB   %    [????    HLRZ	4,5
004521  260040 016232    6 @!R:    ,???M    PUSHJ	1,16232
004522  302240 000374    82@ #\    0J??~    CAIE	5,374
004523  000000 514145       IAE    ????2    UUO00	0,514145
004524  260040 016232    6 @!R:    ,???M    PUSHJ	1,16232
004525  336000 000005    ;P   %    7@???    SKIPN	0,5
004526  661100 002000    V)  0     l$???    TLO	2,2000
004527  202220 015035    020!H=     I???    MOVEM	4,@15035
004530  200200 014742    0" !GB     ???q    MOVE	4,14742
004531  302200 000015    82   -    0H???    CAIE	4,15
004532  306200 000012    8R   *    1H???    CAIN	4,12
004533  254000 016620    5@ !V0    +???H    JRST	0,16620
004534  322240 016565    :2@!UU    4J??:    JUMPE	5,16565
004535  622240 000200    R2@ "     dJ??@    TRZE	5,200
004536  661540 001000    V-@ (     l6???    TLO	13,1000
004537  261040 000005    6(@  %    ,"???    PUSH	1,5
004540  603540 001000    P=@ (     `v???    TLNE	13,1000
004541  362240 016626    >2@!V6    <J??K    SOJE	5,16626
004542  260040 016236    6 @!R>    ,???O    PUSHJ	1,16236
004543  262040 000005    60@  %    ,B???    POP	1,5
004544  603540 000200    P=@ "     `v??@    TLNE	13,200
004545  364240 016622    >B@!V2    =???I    SOJA	5,16622
004546  367240 016555    >Z@!UM    =j??6    SOJG	5,16555
004547  200220 015035    0"0!H=     ????    MOVE	4,@15035
004550  260040 016232    6 @!R:    ,???M    PUSHJ	1,16232
004551  202220 015035    020!H=     I???    MOVEM	4,@15035
004552  322240 016600    :2@!V     4J??@    JUMPE	5,16600
004553  261040 000005    6(@  %    ,"???    PUSH	1,5
004554  603540 000200    P=@ "     `v??@    TLNE	13,200
004555  260040 016630    6 @!V8    ,???L    PUSHJ	1,16630
004556  607540 000200    P]@ "     av??@    TLNN	13,200
004557  260040 016236    6 @!R>    ,???O    PUSHJ	1,16236
004560  262040 000005    60@  %    ,B???    POP	1,5
004561  367240 016571    >Z@!UY    =j??<    SOJG	5,16571
004562  201240 016204    0*@!R$     *??B    MOVEI	5,16204
004563  260040 016102    6 @!Q"    ,???!    PUSHJ	1,16102
004564  200220 015035    0"0!H=     ????    MOVE	4,@15035
004565  202200 015044    02 !HD     H???    MOVEM	4,15044
004566  262040 000004    60@  $    ,B???    POP	1,4
004567  260040 016646    6 @!VF    ,???S    PUSHJ	1,16646
004570  370000 015035    ?  !H=    >????    SOS	0,15035
004571  205741 777765    0OA__U    !>??z    MOVSI	17,777765(1)
004572  541740 000002    L/@  "    X>???    HRRI	17,2
004573  251740 000015    5/@  -    *>???    BLT	17,15
004574  274040 025033    7@@"H;    /??*?    SUB	1,25033
004575  262040 000004    60@  $    ,B???    POP	1,4
004576  553000 000004    M8   $    Z`???    HRRZS	0,4
004577  302200 015147    82 !IG    0H??3    CAIE	4,15147
004600  000000 514145       IAE    ????2    UUO00	0,514145
004601  254000 015142    5@ !IB    +???1    JRST	0,15142
004602  661540 000200    V-@ "     l6??@    TLO	13,200
004603  620240 000200    R"@ "     d???@    TRZ	5,200
004604  361240 016565    >*@!UU    <*??:    SOJL	5,16565
004605  201200 000000    0*         (???    MOVEI	4,0
004606  260040 016346    6 @!SF    ,???s    PUSHJ	1,16346
004607  254000 016622    5@ !V2    +???I    JRST	0,16622
004610  661540 402000    V-@@0     l6???    TLO	13,402000
004611  254000 016560    5@ !UP    +???8    JRST	0,16560
004612  260040 016344    6 @!SD    ,???r    PUSHJ	1,16344
004613  201200 000005    0*   %     (???    MOVEI	4,5
004614  202200 014741    02 !GA     H??p    MOVEM	4,14741
004615  201200 000107    0*  !'     (??#    MOVEI	4,107
004616  260040 016275    6 @!R]    ,???^    PUSHJ	1,16275
004617  261040 025034    6(@"H<    ,"?*?    PUSH	1,25034
004620  350200 015025    =" !H5    :????    AOS	4,15025
004621  231200 000010    3*   (    &(???    IDIVI	4,10
004622  506241 000000    HRA       QJ???    HRLM	5,0(1)
004623  373000 014741    ?8 !GA    >`??p    SOSLE	0,14741
004624  260040 016637    6 @!V?    ,???O    PUSHJ	1,16637
004625  554201 000000    MB!       [????    HLRZ	4,0(1)
004626  271200 000060    7*   P    .(???    ADDI	4,60
004627  254000 016275    5@ !R]    +???^    JRST	0,16275
004630  200240 015010    0"@!H(     ????    MOVE	5,15010
004631  202240 015011    02@!H)     J???    MOVEM	5,15011
004632  261040 000004    6(@  $    ,"???    PUSH	1,4
004633  311200 015031    9* !H9    2(???    CAML	4,15031
004634  254000 016661    5@ !VQ    +???X    JRST	0,16661
004635  200244 000000    0"D        ? ??    MOVE	5,0(4)
004636  202260 015010    02P!H(     K???    MOVEM	5,@15010
004637  350240 015010    ="@!H(    :????    AOS	5,15010
004640  301240 342571    8*@<5Y    0*?E<    CAIL	5,342571
004641  000000 645544       TMD    ???K2    UUO00	0,645544
004642  344200 016651    <B !VI    9???T    AOJA	4,16651
004643  262040 015031    60@!H9    ,B???    POP	1,15031
004644  263040 000000    68@       ,b???    POPJ	1,0
004645  211340 100000    1+@(      ".???    MOVNI	7,100000
004646  202340 015026    03@!H6     N???    MOVEM	7,15026
004647  634500 000012    SE   *    g????    TDZA	12,12
004650  403500 015026    @= !H6    @t???    SETZB	12,15026
004651  201340 000006    0+@  &     .???    MOVEI	7,6
004652  200400 025035    0$ "H=     ??*?    MOVE	10,25035
004653  202400 015027    04 !H7     P???    MOVEM	10,15027
004654  357200 015026    =Z !H6    ;h???    AOSG	4,15026
004655  254000 016707    5@ !W'    +???c    JRST	0,16707
004656  260040 016145    6 @!QE    ,???2    PUSHJ	1,16145
004657  136200 015027    +R !H7    ?H???    IDPB	4,15027
004660  306200 000056    8R   N    1H???    CAIN	4,56
004661  254000 016722    5@ !W2    +???i    JRST	0,16722
004662  554644 025202    MFD"J"    [? *A    HLRZ	15,25202(4)
004663  306640 265700    8V@6O     1Z?k`    CAIN	15,265700
004664  254000 016724    5@ !W4    +???j    JRST	0,16724
004665  260040 016716    6 @!W.    ,???g    PUSHJ	1,16716
004666  550204 025202    M"$"J"    Z? *A    HRRZ	4,25202(4)
004667  200400 014742    0$ !GB     ???q    MOVE	10,14742
004670  263040 000045    68@  E    ,b???    POPJ	1,45
004671  134200 024604    +B "F$    ???)B    ILDB	4,24604
004672  626200 000200    RR  "     eH??@    TRZN	4,200
004673  254000 016676    5@ !V^    +???_    JRST	0,16676
004674  307200 000100    8Z  !     1h??     CAIG	4,100
004675  254000 016707    5@ !W'    +???c    JRST	0,16707
004676  561404 000000    N,$       \0 ??    HRROI	10,0(4)
004677  263040 000000    68@       ,b???    POPJ	1,0
004700  256004 025202    5P$"J"    +@ *A    XCT	0,25202(4)
004701  274040 025036    7@@"H>    /??*?    SUB	1,25036
004702  365340 016672    >K@!VZ    =.??]    SOJGE	7,16672
004703  344340 016672    <C@!VZ    9???]    AOJA	7,16672
004704  270507 026014    7%'"P,    .?8,?    ADD	12,26014(7)
004705  254000 016720    5@ !W0    +???h    JRST	0,16720
004706  256004 015746    5P$!OF    +@ ?s    XCT	0,15746(4)
004707  254000 016720    5@ !W0    +???h    JRST	0,16720
004710  260040 016232    6 @!R:    ,???M    PUSHJ	1,16232
004711  250200 000005    5"   %    *????    EXCH	4,5
004712  622200 000200    R2  "     dH??@    TRZE	4,200
004713  254000 016735    5@ !W=    +???n    JRST	0,16735
004714  260040 000610    6 @ &(    ,???D    PUSHJ	1,610
004715  200200 000005    0"   %     ????    MOVE	4,5
004716  254000 016726    5@ !W6    +???k    JRST	0,16726
004717  261040 000004    6(@  $    ,"???    PUSH	1,4
004720  201200 000052    0*   J     (???    MOVEI	4,52
004721  260040 000610    6 @ &(    ,???D    PUSHJ	1,610
004722  262040 000004    60@  $    ,B???    POP	1,4
004723  602200 000100    P2  !     `H??     TRNE	4,100
004724  254000 016745    5@ !WE    +???r    JRST	0,16745
004725  271200 000260    7*  "P    .(??X    ADDI	4,260
004726  254000 016732    5@ !W:    +???m    JRST	0,16732
004727  306200 000175    8R  !]    1H??>    CAIN	4,175
004730  334200 016706    ;B !W&    7???c    SKIPA	4,16706
004731  201200 000057    0*   O     (???    MOVEI	4,57
004732  254000 016732    5@ !W:    +???m    JRST	0,16732
004733  200400 025035    0$ "H=     ??*?    MOVE	10,25035
004734  200240 015026    0"@!H6     ????    MOVE	5,15026
004735  361240 023742    >*@"?B    <*?'q    SOJL	5,23742
004736  134200 000010    +B   (    ?????    ILDB	4,10
004737  260040 016275    6 @!R]    ,???^    PUSHJ	1,16275
004740  254000 016753    5@ !WK    +???u    JRST	0,16753
004741  201200 336151    0* ;QI     (?<4    MOVEI	4,336151
004742  202200 015036    02 !H>     H???    MOVEM	4,15036
004743  260040 015410    6 @!L(    ,????    PUSHJ	1,15410
004744  322500 016761    :5 !WQ    4T??x    JUMPE	12,16761
004745  202500 015033    05 !H;     T???    MOVEM	12,15033
004746  200200 015024    0" !H4     ????    MOVE	4,15024
004747  202200 015043    02 !HC     H???    MOVEM	4,15043
004750  403540 000005    @=@  %    @v???    SETZB	13,5
004751  201200 000374    0*  #\     (??~    MOVEI	4,374
004752  260040 016275    6 @!R]    ,???^    PUSHJ	1,16275
004753  200400 014742    0$ !GB     ???q    MOVE	10,14742
004754  302400 000012    84   *    0P???    CAIE	10,12
004755  306400 000015    8T   -    1P???    CAIN	10,15
004756  254000 017012    5@ !X*    +????    JRST	0,17012
004757  306400 000134    8T  !<    1P??.    CAIN	10,134
004760  254000 017005    5@ !X%    +????    JRST	0,17005
004761  306400 000057    8T   O    1P???    CAIN	10,57
004762  254000 017004    5@ !X$    +????    JRST	0,17004
004763  260040 017036    6 @!X>    ,????    PUSHJ	1,17036
004764  322500 016772    :5 !WZ    4T??}    JUMPE	12,16772
004765  344240 016772    <B@!WZ    9???}    AOJA	5,16772
004766  660240 000200    V"@ "     l???@    TRO	5,200
004767  200200 000005    0"   %     ????    MOVE	4,5
004770  260040 016275    6 @!R]    ,???^    PUSHJ	1,16275
004771  201240 000000    0*@        *???    MOVEI	5,0
004772  660540 000400    V%@ $     l????    TRO	13,400
004773  254000 017001    5@ !X!    +????    JRST	0,17001
004774  200200 000005    0"   %     ????    MOVE	4,5
004775  260040 016275    6 @!R]    ,???^    PUSHJ	1,16275
004776  201200 000000    0*         (???    MOVEI	4,0
004777  606540 000400    PU@ $     aV???    TRNN	13,400
005000  260040 016275    6 @!R]    ,???^    PUSHJ	1,16275
005001  260040 016145    6 @!QE    ,???2    PUSHJ	1,16145
005002  302200 000012    82   *    0H???    CAIE	4,12
005003  661100 002000    V)  0     l$???    TLO	2,2000
005004  260040 017046    6 @!XF    ,????    PUSHJ	1,17046
005005  260040 016274    6 @!R\    ,???^    PUSHJ	1,16274
005006  200500 015033    0% !H;     ????    MOVE	12,15033
005007  260040 021750    6 @"/H    ,??#t    PUSHJ	1,21750
005010  255000 000000    5H        + ???    JFCL	0,0
005011  201240 016527    0*@!U7     *??+    MOVEI	5,16527
005012  504240 015043    HB@!HC    Q????    HRL	5,15043
005013  402000 015043    @0 !HC    @@???    SETZM	0,15043
005014  205300 000077    0K   _    !,???    MOVSI	6,77
005015  205400 040000    0L $      !0?@?    MOVSI	10,40000
005016  260040 022042    6 @"0B    ,??$?    PUSHJ	1,22042
005017  254000 021103    5@ ")#    +??"!    JRST	0,21103
005020  260040 016666    6 @!VV    ,???[    PUSHJ	1,16666
005021  302400 000054    84   L    0P???    CAIE	10,54
005022  322500 023742    :5 "?B    4T?'q    JUMPE	12,23742
005023  202520 015036    050!H>     U???    MOVEM	12,@15036
005024  350200 015036    =" !H>    :????    AOS	4,15036
005025  301200 336171    8* ;QY    0(?<<    CAIL	4,336171
005026  000000 645544       TMD    ???K2    UUO00	0,645544
005027  263040 000000    68@       ,b???    POPJ	1,0
005030  402000 015034    @0 !H<    @@???    SETZM	0,15034
005031  260040 016666    6 @!VV    ,???[    PUSHJ	1,16666
005032  260040 021750    6 @"/H    ,??#t    PUSHJ	1,21750
005033  201200 000000    0*         (???    MOVEI	4,0
005034  200440 000004    0$@  $     ????    MOVE	11,4
005035  302200 000001    82   !    0H???    CAIE	4,1
005036  254000 017060    5@ !XP    +????    JRST	0,17060
005037  553000 000005    M8   %    Z`???    HRRZS	0,5
005040  306240 021103    8R@")#    1J?"!    CAIN	5,21103
005041  254000 017121    5@ !Y1    +???(    JRST	0,17121
005042  322500 017117    :5 !Y/    4T??'    JUMPE	12,17117
005043  201200 336151    0* ;QI     (?<4    MOVEI	4,336151
005044  311200 015036    9* !H>    2(???    CAML	4,15036
005045  254000 017106    5@ !Y&    +???#    JRST	0,17106
005046  312504 000000    95$       2T ??    CAME	12,0(4)
005047  344200 017062    <B !XR    9????    AOJA	4,17062
005050  275200 336151    7J ;QI    /(?<4    SUBI	4,336151
005051  261040 000004    6(@  $    ,"???    PUSH	1,4
005052  200200 015024    0" !H4     ????    MOVE	4,15024
005053  370000 000004    ?    $    >????    SOS	0,4
005054  260040 016232    6 @!R:    ,???M    PUSHJ	1,16232
005055  302240 000041    82@  A    0J???    CAIE	5,41
005056  254000 017077    5@ !X_    +????    JRST	0,17077
005057  370000 015024    ?  !H4    >????    SOS	0,15024
005060  370000 015067    ?  !HW    >????    SOS	0,15067
005061  262040 000004    60@  $    ,B???    POP	1,4
005062  660200 000200    V"  "     l???@    TRO	4,200
005063  260040 016275    6 @!R]    ,???^    PUSHJ	1,16275
005064  200200 000010    0"   (     ????    MOVE	4,10
005065  302200 000041    82   A    0H???    CAIE	4,41
005066  260040 016275    6 @!R]    ,???^    PUSHJ	1,16275
005067  254000 017047    5@ !XG    +????    JRST	0,17047
005070  302440 000001    84@  !    0R???    CAIE	11,1
005071  254000 017117    5@ !Y/    +???'    JRST	0,17117
005072  302240 016757    82@!WO    0J??w    CAIE	5,16757
005073  306240 017400    8R@!\     1J???    CAIN	5,17400
005074  350000 015034    =  !H<    :????    AOS	0,15034
005075  306240 021324    8R@"+4    1J?"j    CAIN	5,21324
005076  371000 015034    ?( !H<    > ???    SOSL	0,15034
005077  254000 017117    5@ !Y/    +???'    JRST	0,17117
005100  263040 000000    68@       ,b???    POPJ	1,0
005101  260040 016751    6 @!WI    ,???t    PUSHJ	1,16751
005102  254000 017047    5@ !XG    +????    JRST	0,17047
005103  200200 014742    0" !GB     ???q    MOVE	4,14742
005104  306200 000040    8R   @    1H???    CAIN	4,40
005105  260040 016145    6 @!QE    ,???2    PUSHJ	1,16145
005106  202200 015073    02 !H[     H???    MOVEM	4,15073
005107  260040 016145    6 @!QE    ,???2    PUSHJ	1,16145
005110  316200 015073    9R !H[    3H???    CAMN	4,15073
005111  254000 017047    5@ !XG    +????    JRST	0,17047
005112  260040 016275    6 @!R]    ,???^    PUSHJ	1,16275
005113  254000 017125    5@ !Y5    +???*    JRST	0,17125
005114  200200 015024    0" !H4     ????    MOVE	4,15024
005115  202200 015041    02 !HA     H???    MOVEM	4,15041
005116  201200 000373    0*  #[     (??}    MOVEI	4,373
005117  260040 016275    6 @!R]    ,???^    PUSHJ	1,16275
005120  260040 017237    6 @!Z?    ,???O    PUSHJ	1,17237
005121  001000 656362     ( USR    ? ?\y    UUO01	0,656362
005122  335000 000004    ;H   $    7 ???    SKIPGE	0,4
005123  201200 000000    0*         (???    MOVEI	4,0
005124  261040 000004    6(@  $    ,"???    PUSH	1,4
005125  205540 404000    0M@@@     !6???    MOVSI	13,404000
005126  260040 016237    6 @!R?    ,???O    PUSHJ	1,16237
005127  201200 000015    0*   -     (???    MOVEI	4,15
005130  302400 000135    84  !=    0P??.    CAIE	10,135
005131  260040 016275    6 @!R]    ,???^    PUSHJ	1,16275
005132  260040 016274    6 @!R\    ,???^    PUSHJ	1,16274
005133  262040 000005    60@  %    ,B???    POP	1,5
005134  260040 016102    6 @!Q"    ,???!    PUSHJ	1,16102
005135  201240 017171    0*@!YY     *??<    MOVEI	5,17171
005136  260040 016102    6 @!Q"    ,???!    PUSHJ	1,16102
005137  200200 015041    0" !HA     ????    MOVE	4,15041
005140  402000 015041    @0 !HA    @@???    SETZM	0,15041
005141  200240 015023    0"@!H3     ????    MOVE	5,15023
005142  542205 777777    L2%___    XH/??    HRRM	4,777777(5)
005143  550200 015075    M" !H]    Z????    HRRZ	4,15075
005144  506205 777777    HR%___    QH/??    HRLM	4,777777(5)
005145  476000 015075    GP !H]    O@???    SETOM	0,15075
005146  402000 015044    @0 !HD    @@???    SETZM	0,15044
005147  254000 016613    5@ !V+    +???E    JRST	0,16613
005150  334200 015076    ;B !H^    7????    SKIPA	4,15076
005151  200200 015075    0" !H]     ????    MOVE	4,15075
005152  254000 023741    5@ "?A    +??'p    JRST	0,23741
005153  261040 000004    6(@  $    ,"???    PUSH	1,4
005154  261040 000006    6(@  &    ,"???    PUSH	1,6
005155  550205 000000    M"%       Z?(??    HRRZ	4,0(5)
005156  202200 017222    02 !Z2     H??I    MOVEM	4,17222
005157  260040 016232    6 @!R:    ,???M    PUSHJ	1,16232
005160  302240 000373    82@ #[    0J??}    CAIE	5,373
005161  000000 514145       IAE    ????2    UUO00	0,514145
005162  550300 015023    M# !H3    Z????    HRRZ	6,15023
005163  550246 777776    M"F__^    Z?7??    HRRZ	5,777776(6)
005164  361240 017223    >*@!Z3    <*??I    SOJL	5,17223
005165  350000 015075    =  !H]    :????    AOS	0,15075
005166  202200 015044    02 !HD     H???    MOVEM	4,15044
005167  476000 015030    GP !H8    O@???    SETOM	0,15030
005170  542246 777776    L2F__^    XJ7??    HRRM	5,777776(6)
005171  262040 000006    60@  &    ,B???    POP	1,6
005172  262040 000004    60@  $    ,B???    POP	1,4
005173  254000 016226    5@ !R6    +???K    JRST	0,16226
005174  550200 015023    M" !H3    Z????    HRRZ	4,15023
005175  321240 017217    :*@!Z/    4*??G    JUMPL	5,17217
005176  550244 000000    M"D       Z? ??    HRRZ	5,0(4)
005177  306240 017470    8R@!\X    1J???    CAIN	5,17470
005200  553004 777777    M8$___    Z`'??    HRRZS	0,777777(4)
005201  402000 015044    @0 !HD    @@???    SETZM	0,15044
005202  476000 015030    GP !H8    O@???    SETOM	0,15030
005203  254000 021103    5@ ")#    +??"!    JRST	0,21103
005204  000000 000000              ?????    UUO00	0,0
005205  200240 017222    0"@!Z2     ???I    MOVE	5,17222
005206  200200 015044    0" !HD     ????    MOVE	4,15044
005207  331000 015075    ;( !H]    6 ???    SKIPL	0,15075
005210  316200 015024    9R !H4    3H???    CAMN	4,15024
005211  202240 015024    02@!H4     J???    MOVEM	5,15024
005212  200200 025037    0" "H?     ??*?    MOVE	4,25037
005213  273200 015023    7: !H3    .h???    ADDB	4,15023
005214  554204 000001    MB$  !    [? ??    HLRZ	4,1(4)
005215  202200 015075    02 !H]     H???    MOVEM	4,15075
005216  260040 016121    6 @!Q1    ,???(    PUSHJ	1,16121
005217  254000 017207    5@ !Z'    +???C    JRST	0,17207
005220  476000 014716    GP !G.    O@??g    SETOM	0,14716
005221  200661 000000    0&Q        ????    MOVE	15,@0(1)
005222  202640 021701    06@"/!     Z?#`    MOVEM	15,21701
005223  261040 000002    6(@  "    ,"???    PUSH	1,2
005224  660100 004000    V!  @     l????    TRO	2,4000
005225  260040 015132    6 @!I:    ,???-    PUSHJ	1,15132
005226  200640 014742    0&@!GB     ???q    MOVE	15,14742
005227  302640 000012    86@  *    0Z???    CAIE	15,12
005230  306640 000015    8V@  -    1Z???    CAIN	15,15
005231  254000 017252    5@ !ZJ    +???U    JRST	0,17252
005232  606100 000001    PQ   !    aD???    TRNN	2,1
005233  254000 017243    5@ !ZC    +???Q    JRST	0,17243
005234  603100 004000    P9  @     `d???    TLNE	2,4000
005235  254000 017260    5@ !ZP    +???X    JRST	0,17260
005236  202100 015007    01 !H'     D???    MOVEM	2,15007
005237  262040 000002    60@  "    ,B???    POP	1,2
005240  350001 000000    = !       :????    AOS	0,0(1)
005241  263040 000000    68@       ,b???    POPJ	1,0
005242  261040 000004    6(@  $    ,"???    PUSH	1,4
005243  260040 015132    6 @!I:    ,???-    PUSHJ	1,15132
005244  603100 004000    P9  @     `d???    TLNE	2,4000
005245  254000 017261    5@ !ZQ    +???X    JRST	0,17261
005246  262040 000004    60@  $    ,B???    POP	1,4
005247  254000 017254    5@ !ZL    +???V    JRST	0,17254
005250  541240 017310    L*@![(    X*??d    HRRI	5,17310
005251  261040 000005    6(@  %    ,"???    PUSH	1,5
005252  260040 017237    6 @!Z?    ,???O    PUSHJ	1,17237
005253  001000 654344     ( UCD    ? ?Xr    UUO01	0,654344
005254  262040 000010    60@  (    ,B???    POP	1,10
005255  256000 000010    5P   (    +@???    XCT	0,10
005256  260040 016145    6 @!QE    ,???2    PUSHJ	1,16145
005257  306200 000133    8R  !;    1H??-    CAIN	4,133
005260  254000 017304    5@ ![$    +???b    JRST	0,17304
005261  661100 002000    V)  0     l$???    TLO	2,2000
005262  260040 016145    6 @!QE    ,???2    PUSHJ	1,16145
005263  302200 000015    82   -    0H???    CAIE	4,15
005264  254000 017300    5@ ![     +???`    JRST	0,17300
005265  254000 017312    5@ ![*    +???e    JRST	0,17312
005266  201300 000000    0+         ,???    MOVEI	6,0
005267  260040 017372    6 @![Z    ,???}    PUSHJ	1,17372
005270  254000 017305    5@ ![%    +???b    JRST	0,17305
005271  254000 016613    5@ !V+    +???E    JRST	0,16613
005272  260040 016145    6 @!QE    ,???2    PUSHJ	1,16145
005273  302200 000133    82  !;    0H??-    CAIE	4,133
005274  661100 002000    V)  0     l$???    TLO	2,2000
005275  254000 016613    5@ !V+    +???E    JRST	0,16613
005276  541240 020000    L*@"      X*? ?    HRRI	5,20000
005277  256000 000005    5P   %    +@???    XCT	0,5
005300  254000 017274    5@ !Z\    +???^    JRST	0,17274
005301  254000 017310    5@ ![(    +???d    JRST	0,17310
005302  200200 015024    0" !H4     ????    MOVE	4,15024
005303  202200 015037    02 !H?     H???    MOVEM	4,15037
005304  202200 015040    02 !H@     H???    MOVEM	4,15040
005305  541240 014771    L*@!GY    X*??|    HRRI	5,14771
005306  202240 014770    02@!GX     J??|    MOVEM	5,14770
005307  201540 000000    0-@        6???    MOVEI	13,0
005310  260040 016237    6 @!R?    ,???O    PUSHJ	1,16237
005311  477300 014771    G[ !GY    Ol??|    SETOB	6,14771
005312  260040 016145    6 @!QE    ,???2    PUSHJ	1,16145
005313  306200 000133    8R  !;    1H??-    CAIN	4,133
005314  201300 000000    0+         ,???    MOVEI	6,0
005315  336000 000006    ;P   &    7@???    SKIPN	0,6
005316  260040 016145    6 @!QE    ,???2    PUSHJ	1,16145
005317  325300 017364    :K ![T    5,??z    JUMPGE	6,17364
005320  306200 000054    8R   L    1H???    CAIN	4,54
005321  254000 017352    5@ ![J    +???u    JRST	0,17352
005322  250200 015037    5" !H?    *????    EXCH	4,15037
005323  260040 016232    6 @!R:    ,???M    PUSHJ	1,16232
005324  250200 015037    5" !H?    *????    EXCH	4,15037
005325  316240 000004    9R@  $    3J???    CAMN	5,4
005326  254000 017334    5@ ![<    +???n    JRST	0,17334
005327  402000 014771    @0 !GY    @@??|    SETZM	0,14771
005330  260040 016145    6 @!QE    ,???2    PUSHJ	1,16145
005331  325300 017367    :K ![W    5,??{    JUMPGE	6,17367
005332  302200 000054    82   L    0H???    CAIE	4,54
005333  254000 017346    5@ ![F    +???s    JRST	0,17346
005334  403200 000006    @:   &    @h???    SETZB	4,6
005335  250300 015040    5# !H@    *????    EXCH	6,15040
005336  202300 015024    03 !H4     L???    MOVEM	6,15024
005337  250200 015037    5" !H?    *????    EXCH	4,15037
005340  260040 016232    6 @!R:    ,???M    PUSHJ	1,16232
005341  302240 000375    82@ #]    0J??~    CAIE	5,375
005342  402000 014771    @0 !GY    @@??|    SETZM	0,14771
005343  256000 014770    5P !GX    +@??|    XCT	0,14770
005344  254000 017274    5@ !Z\    +???^    JRST	0,17274
005345  254000 017310    5@ ![(    +???d    JRST	0,17310
005346  260040 017373    6 @![[    ,???}    PUSHJ	1,17373
005347  254000 017340    5@ ![@    +???p    JRST	0,17340
005350  254000 017352    5@ ![J    +???u    JRST	0,17352
005351  260040 017373    6 @![[    ,???}    PUSHJ	1,17373
005352  254000 017346    5@ ![F    +???s    JRST	0,17346
005353  254000 017352    5@ ![J    +???u    JRST	0,17352
005354  260040 016145    6 @!QE    ,???2    PUSHJ	1,16145
005355  306200 000133    8R  !;    1H??-    CAIN	4,133
005356  350000 000006    =    &    :????    AOS	0,6
005357  306200 000135    8R  !=    1H??.    CAIN	4,135
005360  361300 022030    >+ "08    <,?$?    SOJL	6,22030
005361  263040 000000    68@       ,b???    POPJ	1,0
005362  205740 777764    0O@__T    !>??z    MOVSI	17,777764
005363  261057 000002    6(O  "    ,"x??    PUSH	1,2(17)
005364  253740 017401    5?@!\!    *~???    AOBJN	17,17401
005365  261040 015031    6(@!H9    ,"???    PUSH	1,15031
005366  512240 015070    I2@!HX    RJ???    HLLZM	5,15070
005367  403540 015071    @=@!HY    @v???    SETZB	13,15071
005370  201200 336151    0* ;QI     (?<4    MOVEI	4,336151
005371  202200 015036    02 !H>     H???    MOVEM	4,15036
005372  260040 017036    6 @!X>    ,????    PUSHJ	1,17036
005373  302400 000054    84   L    0P???    CAIE	10,54
005374  322500 017436    :5 !\>    4T???    JUMPE	12,17436
005375  260040 017036    6 @!X>    ,????    PUSHJ	1,17036
005376  201200 000377    0*  #_     (???    MOVEI	4,377
005377  205440 200000    0L@0      !2???    MOVSI	11,200000
005400  612440 015070    Q4@!HX    bR???    TDNE	11,15070
005401  260040 016275    6 @!R]    ,???^    PUSHJ	1,16275
005402  260040 016345    6 @!SE    ,???r    PUSHJ	1,16345
005403  201200 000377    0*  #_     (???    MOVEI	4,377
005404  260040 016275    6 @!R]    ,???^    PUSHJ	1,16275
005405  260040 016236    6 @!R>    ,???O    PUSHJ	1,16236
005406  200200 015031    0" !H9     ????    MOVE	4,15031
005407  370004 777777    ? $___    >?'??    SOS	0,777777(4)
005410  205440 200000    0L@0      !2???    MOVSI	11,200000
005411  612440 015070    Q4@!HX    bR???    TDNE	11,15070
005412  370004 777777    ? $___    >?'??    SOS	0,777777(4)
005413  350000 015071    =  !HY    :????    AOS	0,15071
005414  607540 000200    P]@ "     av??@    TLNN	13,200
005415  254000 017410    5@ !\(    +????    JRST	0,17410
005416  603540 010000    P=@!      `v???    TLNE	13,10000
005417  621100 002000    R)  0     d$???    TLZ	2,2000
005420  200200 015024    0" !H4     ????    MOVE	4,15024
005421  202200 015042    02 !HB     H???    MOVEM	4,15042
005422  260040 016145    6 @!QE    ,???2    PUSHJ	1,16145
005423  302200 000012    82   *    0H???    CAIE	4,12
005424  661100 002000    V)  0     l$???    TLO	2,2000
005425  260040 017046    6 @!XF    ,????    PUSHJ	1,17046
005426  260040 016274    6 @!R\    ,???^    PUSHJ	1,16274
005427  260040 016102    6 @!Q"    ,???!    PUSHJ	1,16102
005430  262040 000004    60@  $    ,B???    POP	1,4
005431  261040 015010    6(@!H(    ,"???    PUSH	1,15010
005432  260040 016646    6 @!VF    ,???S    PUSHJ	1,16646
005433  200240 015023    0"@!H3     ????    MOVE	5,15023
005434  200200 015076    0" !H^     ????    MOVE	4,15076
005435  542205 000000    L2%       XH(??    HRRM	4,0(5)
005436  476000 015076    GP !H^    O@???    SETOM	0,15076
005437  204200 015071    0B !HY    !????    MOVS	4,15071
005440  540200 015042    L" !HB    X????    HRR	4,15042
005441  434200 015070    CB !HX    G????    IOR	4,15070
005442  261240 000004    6*@  $    ,*???    PUSH	5,4
005443  262040 000004    60@  $    ,B???    POP	1,4
005444  507000 000004    HX   $    Q`???    HRLS	0,4
005445  541200 017470    L* !\X    X(???    HRRI	4,17470
005446  261240 000004    6*@  $    ,*???    PUSH	5,4
005447  202240 015023    02@!H3     J???    MOVEM	5,15023
005450  402000 015044    @0 !HD    @@???    SETZM	0,15044
005451  254000 016607    5@ !V'    +???C    JRST	0,16607
005452  261040 000004    6(@  $    ,"???    PUSH	1,4
005453  261040 000006    6(@  &    ,"???    PUSH	1,6
005454  261040 000010    6(@  (    ,"???    PUSH	1,10
005455  261040 000011    6(@  )    ,"???    PUSH	1,11
005456  350000 015076    =  !H^    :????    AOS	0,15076
005457  550205 000000    M"%       Z?(??    HRRZ	4,0(5)
005460  202200 015044    02 !HD     H???    MOVEM	4,15044
005461  476000 015030    GP !H8    O@???    SETOM	0,15030
005462  476000 015070    GP !HX    O@???    SETOM	0,15070
005463  602000 000200    P0  "     `@??@    TRNE	0,200
005464  254000 017560    5@ !]P    +???8    JRST	0,17560
005465  554405 000001    MD%  !    [?(??    HLRZ	10,1(5)
005466  135300 025040    +K "H@    ?,?*?    LDB	6,25040
005467  322300 017560    :3 !]P    4L??8    JUMPE	6,17560
005470  335445 000000    ;LE       72(??    SKIPGE	11,0(5)
005471  254000 017626    5@ !^6    +???K    JRST	0,17626
005472  476000 015074    GP !H\    O@???    SETOM	0,15074
005473  550210 000000    M"(       Z?@??    HRRZ	4,0(10)
005474  260040 016232    6 @!R:    ,???M    PUSHJ	1,16232
005475  306240 000375    8R@ #]    1J??~    CAIN	5,375
005476  254000 017623    5@ !^3    +???I    JRST	0,17623
005477  302240 000377    82@ #_    0J???    CAIE	5,377
005500  254000 017512    5@ !]*    +???%    JRST	0,17512
005501  476000 014773    GP !G[    O@??}    SETOM	0,14773
005502  202210 000000    02(        H@??    MOVEM	4,0(10)
005503  260040 016232    6 @!R:    ,???M    PUSHJ	1,16232
005504  306240 000375    8R@ #]    1J??~    CAIN	5,375
005505  254000 017624    5@ !^4    +???J    JRST	0,17624
005506  603440 200000    P<@0      `r???    TLNE	11,200000
005507  254000 017573    5@ !][    +???=    JRST	0,17573
005510  402000 015070    @0 !HX    @@???    SETZM	0,15070
005511  306240 000133    8R@ !;    1J??-    CAIN	5,133
005512  352000 014773    =0 !G[    :@??}    AOSE	0,14773
005513  254000 017535    5@ !]=    +???.    JRST	0,17535
005514  201240 000376    0*@ #^     *???    MOVEI	5,376
005515  137256 015012    +ZN!H*    ?jp??    DPB	5,15012(16)
005516  254000 017521    5@ !]1    +???(    JRST	0,17521
005517  331000 014773    ;( !G[    6 ??}    SKIPL	0,14773
005520  302240 000135    82@ !=    0J??.    CAIE	5,135
005521  254000 017542    5@ !]B    +???1    JRST	0,17542
005522  375000 014773    ?H !G[    ? ??}    SOSGE	0,14773
005523  254000 017532    5@ !]:    +???-    JRST	0,17532
005524  306240 000015    8R@  -    1J???    CAIN	5,15
005525  254000 017620    5@ !^0    +???H    JRST	0,17620
005526  302240 000012    82@  *    0J???    CAIE	5,12
005527  306240 000054    8R@  L    1J???    CAIN	5,54
005530  331000 014773    ;( !G[    6 ??}    SKIPL	0,14773
005531  254000 017521    5@ !]1    +???(    JRST	0,17521
005532  201644 777777    0.D___     :'??    MOVEI	15,777777(4)
005533  231640 000004    3.@  $    &:???    IDIVI	15,4
005534  201240 000377    0*@ #_     *???    MOVEI	5,377
005535  137256 015012    +ZN!H*    ?jp??    DPB	5,15012(16)
005536  607440 200000    P\@0      ar???    TLNN	11,200000
005537  202210 000001    02(  !     H@??    MOVEM	4,1(10)
005540  271400 000002    7,   "    .0???    ADDI	10,2
005541  367300 017510    >[ !](    =l??$    SOJG	6,17510
005542  262040 000011    60@  )    ,B???    POP	1,11
005543  262040 000010    60@  (    ,B???    POP	1,10
005544  331000 015070    ;( !HX    6 ???    SKIPL	0,15070
005545  254000 017207    5@ !Z'    +???C    JRST	0,17207
005546  200200 025037    0" "H?     ??*?    MOVE	4,25037
005547  273200 015023    7: !H3    .h???    ADDB	4,15023
005550  550204 000000    M"$       Z? ??    HRRZ	4,0(4)
005551  202200 015076    02 !H^     H???    MOVEM	4,15076
005552  262040 000006    60@  &    ,B???    POP	1,6
005553  262040 000004    60@  $    ,B???    POP	1,4
005554  254000 016222    5@ !R2    +???I    JRST	0,16222
005555  301240 000101    8*@ !!    0*??     CAIL	5,101
005556  303240 000132    8:@ !:    0j??-    CAILE	5,132
005557  254000 017601    5@ !^!    +???@    JRST	0,17601
005560  402000 015070    @0 !HX    @@???    SETZM	0,15070
005561  402000 015074    @0 !H\    @@???    SETZM	0,15074
005562  254000 017521    5@ !]1    +???(    JRST	0,17521
005563  307240 000071    8Z@  Y    1j???    CAIG	5,71
005564  305240 000060    8J@  P    1*???    CAIGE	5,60
005565  306240 000044    8R@  D    1J???    CAIN	5,44
005566  254000 017576    5@ !]^    +????    JRST	0,17576
005567  302240 000045    82@  E    0J???    CAIE	5,45
005570  306240 000056    8R@  N    1J???    CAIN	5,56
005571  254000 017576    5@ !]^    +????    JRST	0,17576
005572  306240 000041    8R@  A    1J???    CAIN	5,41
005573  254000 017576    5@ !]^    +????    JRST	0,17576
005574  335000 015074    ;H !H\    7 ???    SKIPGE	0,15074
005575  254000 017520    5@ !]0    +???(    JRST	0,17520
005576  550650 000001    M&H  !    Z?@??    HRRZ	15,1(10)
005577  231640 000004    3.@  $    &:???    IDIVI	15,4
005600  137256 015012    +ZN!H*    ?jp??    DPB	5,15012(16)
005601  254000 017550    5@ !]H    +???4    JRST	0,17550
005602  331000 014773    ;( !G[    6 ??}    SKIPL	0,14773
005603  254000 017521    5@ !]1    +???(    JRST	0,17521
005604  254000 017532    5@ !]:    +???-    JRST	0,17532
005605  402010 000000    @0(       @@@??    SETZM	0,0(10)
005606  402010 000001    @0(  !    @@@??    SETZM	0,1(10)
005607  254000 017556    5@ !]N    +???7    JRST	0,17556
005610  200210 000000    0"(        ?@??    MOVE	4,0(10)
005611  260040 016232    6 @!R:    ,???M    PUSHJ	1,16232
005612  306240 000375    8R@ #]    1J??~    CAIN	5,375
005613  254000 017653    5@ !^K    +???U    JRST	0,17653
005614  302240 000377    82@ #_    0J???    CAIE	5,377
005615  254000 017627    5@ !^7    +???K    JRST	0,17627
005616  202210 000001    02(  !     H@??    MOVEM	4,1(10)
005617  260040 016232    6 @!R:    ,???M    PUSHJ	1,16232
005620  306240 000375    8R@ #]    1J??~    CAIN	5,375
005621  254000 017653    5@ !^K    +???U    JRST	0,17653
005622  402000 015070    @0 !HX    @@???    SETZM	0,15070
005623  201644 777776    0.D__^     :'??    MOVEI	15,777776(4)
005624  202650 000000    06H        Z@??    MOVEM	15,0(10)
005625  231640 000004    3.@  $    &:???    IDIVI	15,4
005626  137256 015012    +ZN!H*    ?jp??    DPB	5,15012(16)
005627  201240 000377    0*@ #_     *???    MOVEI	5,377
005630  137256 015013    +ZN!H+    ?jp??    DPB	5,15013(16)
005631  350010 000001    = (  !    :?@??    AOS	0,1(10)
005632  271400 000002    7,   "    .0???    ADDI	10,2
005633  367300 017626    >[ !^6    =l??K    SOJG	6,17626
005634  254000 017560    5@ !]P    +???8    JRST	0,17560
005635  402010 000000    @0(       @@@??    SETZM	0,0(10)
005636  402010 000001    @0(  !    @@@??    SETZM	0,1(10)
005637  254000 017650    5@ !^H    +???T    JRST	0,17650
005640  607100 000400    PY  $     ad???    TLNN	2,400
005641  606100 000002    PQ   "    aD???    TRNN	2,2
005642  005000 515446     H ILF    ? ???    UUO05	0,515446
005643  606100 204000    PQ 0@     aD???    TRNN	2,204000
005644  606100 000004    PQ   $    aD???    TRNN	2,4
005645  005000 515464     H ILT    ? ???    UUO05	0,515464
005646  603000 200000    P8 0      ``???    TLNE	0,200000
005647  005000 435451     H CLI    ? ?;?    UUO05	0,435451
005650  200400 014723    0$ !G3     ???i    MOVE	10,14723
005651  335000 015000    ;H !H     7 ???    SKIPGE	0,15000
005652  500400 015004    H$ !H$    P????    HLL	10,15004
005653  270400 014725    7$ !G5    .???j    ADD	10,14725
005654  202400 014710    04 !G(     P??d    MOVEM	10,14710
005655  250400 014754    5$ !GL    *???v    EXCH	10,14754
005656  202400 014756    04 !GN     P??w    MOVEM	10,14756
005657  250500 014755    5% !GM    *???v    EXCH	12,14755
005660  202500 014757    05 !GO     T??w    MOVEM	12,14757
005661  200500 014755    0% !GM     ???v    MOVE	12,14755
005662  200200 014724    0" !G4     ???j    MOVE	4,14724
005663  270200 014726    7" !G6    .???k    ADD	4,14726
005664  552200 014711    M2 !G)    ZH??d    HRRZM	4,14711
005665  402000 014775    @0 !G]    @@??~    SETZM	0,14775
005666  336000 014774    ;P !G\    7@??~    SKIPN	0,14774
005667  602000 001000    P0  (     `@???    TRNE	0,1000
005670  254000 017746    5@ !_F    +???s    JRST	0,17746
005671  260040 021750    6 @"/H    ,??#t    PUSHJ	1,21750
005672  254000 021451    5@ ",I    +??#?    JRST	0,21451
005673  261040 000006    6(@  &    ,"???    PUSH	1,6
005674  621300 777700    R+ __     d,??`    TLZ	6,777700
005675  322300 017743    :3 !_C    4L??q    JUMPE	6,17743
005676  312300 025041    93 "HA    2L?*?    CAME	6,25041
005677  316300 014736    9S !G>    3L??o    CAMN	6,14736
005700  254000 017720    5@ !_0    +???h    JRST	0,17720
005701  254000 021412    5@ ",*    +??#?    JRST	0,21412
005702  262040 000006    60@  &    ,B???    POP	1,6
005703  254004 017722    5@$!_2    +? ?i    JRST	0,17722(4)
005704  005000 554464     H MDT    ? ?Y?    UUO05	0,554464
005705  005000 624563     H RES    ? ?)9    UUO05	0,624563
005706  254000 017734    5@ !_<    +???n    JRST	0,17734
005707  254000 021344    5@ "+D    +??"r    JRST	0,21344
005710  005000 554464     H MDT    ? ?Y?    UUO05	0,554464
005711  005000 554464     H MDT    ? ?Y?    UUO05	0,554464
005712  005000 554464     H MDT    ? ?Y?    UUO05	0,554464
005713  005000 554464     H MDT    ? ?Y?    UUO05	0,554464
005714  254000 021306    5@ "+&    +??"c    JRST	0,21306
005715  254000 021306    5@ "+&    +??"c    JRST	0,21306
005716  312240 014710    92@!G(    2J??d    CAME	5,14710
005717  254000 017741    5@ !_A    +???p    JRST	0,17741
005720  260040 022721    6 @"71    ,??%h    PUSHJ	1,22721
005721  326300 017741    :S !_A    5L??p    JUMPN	6,17741
005722  312240 014711    92@!G)    2J??d    CAME	5,14711
005723  005000 554464     H MDT    ? ?Y?    UUO05	0,554464
005724  254000 021103    5@ ")#    +??"!    JRST	0,21103
005725  302200 000002    82   "    0H???    CAIE	4,2
005726  254000 017720    5@ !_0    +???h    JRST	0,17720
005727  254000 021412    5@ ",*    +??#?    JRST	0,21412
005730  260040 021750    6 @"/H    ,??#t    PUSHJ	1,21750
005731  254000 017776    5@ !_^    +????    JRST	0,17776
005732  261040 000004    6(@  $    ,"???    PUSH	1,4
005733  302200 000000    82        0H???    CAIE	4,0
005734  603100 000001    P9   !    `d???    TLNE	2,1
005735  661500 040000    V- $      l4?@?    TLO	12,40000
005736  260040 021244    6 @"*D    ,??"R    PUSHJ	1,21244
005737  621500 040000    R- $      d4?@?    TLZ	12,40000
005740  262040 000004    60@  $    ,B???    POP	1,4
005741  302200 000010    82   (    0H???    CAIE	4,10
005742  306200 000011    8R   )    1H???    CAIN	4,11
005743  254000 017765    5@ !_U    +???z    JRST	0,17765
005744  607100 000001    PY   !    ad???    TLNN	2,1
005745  254000 017767    5@ !_W    +???{    JRST	0,17767
005746  260040 021703    6 @"/#    ,??#a    PUSHJ	1,21703
005747  205400 400000    0L @      !0???    MOVSI	10,400000
005750  665500 040000    VM $      m4?@?    TLOA	12,40000
005751  205400 140000    0L ,      !0?@?    MOVSI	10,140000
005752  260040 022040    6 @"0@    ,??$?    PUSHJ	1,22040
005753  261040 017776    6(@!_^    ,"???    PUSH	1,17776
005754  260040 021364    6 @"+T    ,??"z    PUSHJ	1,21364
005755  201200 000006    0*   &     (???    MOVEI	4,6
005756  260040 022411    6 @"4)    ,??%?    PUSHJ	1,22411
005757  254000 022422    5@ "42    +??%?    JRST	0,22422
005760  401240 021103    @*@")#    @*?"!    SETZI	5,21103
005761  200300 014736    0# !G>     ???o    MOVE	6,14736
005762  631427 111127    S,7))7    f19?+    TSZ	10,@111127(7)
005763  776063 020000    _PS"      ?C? ?    DATAI	760,@20000(3)
005764  607100 000001    PY   !    ad???    TLNN	2,1
005765  254000 017767    5@ !_W    +???{    JRST	0,17767
005766  205300 000077    0K   _    !,???    MOVSI	6,77
005767  254000 017765    5@ !_U    +???z    JRST	0,17765
005770  261040 017742    6(@!_B    ,"??q    PUSH	1,17742
005771  375000 014751    ?H !GI    ? ??t    SOSGE	0,14751
005772  000000 644341       TCA    ???Hp    UUO00	0,644341
005773  200240 014723    0"@!G3     ???i    MOVE	5,14723
005774  270240 014725    7"@!G5    .???j    ADD	5,14725
005775  550400 014744    M$ !GD    Z???r    HRRZ	10,14744
005776  602000 020000    P0 "      `@? ?    TRNE	0,20000
005777  254000 020064    5@ " T    +?? ?    JRST	0,20064
006000  542250 000001    L2H  !    XJ@??    HRRM	5,1(10)
006001  201340 000000    0+@        .???    MOVEI	7,0
006002  200200 014724    0" !G4     ???j    MOVE	4,14724
006003  270200 014726    7" !G6    .???k    ADD	4,14726
006004  332000 000004    ;0   $    6@???    SKIPE	0,4
006005  661340 200000    V+@0      l.???    TLO	7,200000
006006  602000 001000    P0  (     `@???    TRNE	0,1000
006007  661340 100000    V+@(      l.???    TLO	7,100000
006010  436350 000002    CSH  "    GN@??    IORM	7,2(10)
006011  200510 000000    0%(        ?@??    MOVE	12,0(10)
006012  602000 001000    P0  (     `@???    TRNE	0,1000
006013  260040 017772    6 @!_Z    ,???}    PUSHJ	1,17772
006014  201200 276351    0* 7SI     (?|t    MOVEI	4,276351
006015  311200 014745    9* !GE    2(??r    CAML	4,14745
006016  254000 020106    5@ "!&    +?? #    JRST	0,20106
006017  200444 000000    0$D        ? ??    MOVE	11,0(4)
006020  202440 014710    04@!G(     R??d    MOVEM	11,14710
006021  260040 020752    6 @"'J    ,??!u    PUSHJ	1,20752
006022  135600 000006    +N   &    ?8???    LDB	14,6
006023  622600 000002    R6   "    dX???    TRZE	14,2
006024  661600 000001    V.   !    l8???    TLO	14,1
006025  202600 014711    06 !G)     X??d    MOVEM	14,14711
006026  201340 066067    0+@&PW     .?l?    MOVEI	7,66067
006027  202340 014705    03@!G%     N??b    MOVEM	7,14705
006030  201300 327651    0+ :^I     ,?/T    MOVEI	6,327651
006031  311300 014752    9+ !GJ    2,??u    CAML	6,14752
006032  254000 020056    5@ " N    +?? ?    JRST	0,20056
006033  312206 000001    92&  !    2H0??    CAME	4,1(6)
006034  254000 020054    5@ " L    +?? ?    JRST	0,20054
006035  350000 000007    =    '    :????    AOS	0,7
006036  200246 000000    0"F        ?0??    MOVE	5,0(6)
006037  202247 000000    02G        J8??    MOVEM	5,0(7)
006040  350000 000006    =    &    :????    AOS	0,6
006041  344300 020045    <C " E    9?? ?    AOJA	6,20045
006042  202340 014704    03@!G$     N??b    MOVEM	7,14704
006043  261040 000004    6(@  $    ,"???    PUSH	1,4
006044  260040 022526    6 @"56    ,??%+    PUSHJ	1,22526
006045  350000 014723    =  !G3    :???i    AOS	0,14723
006046  262040 000004    60@  $    ,B???    POP	1,4
006047  344200 020031    <B " 9    9?? ?    AOJA	4,20031
006050  205200 100000    0J (      !(???    MOVSI	4,100000
006051  630210 000002    S"(  "    f?@??    TDZ	4,2(10)
006052  602000 001000    P0  (     `@???    TRNE	0,1000
006053  641200 100000    T* (      h(???    TLC	4,100000
006054  336000 000004    ;P   $    7@???    SKIPN	0,4
006055  000000 436644       CVD    ???=R    UUO00	0,436644
006056  550250 000001    M"H  !    Z?@??    HRRZ	5,1(10)
006057  274240 014725    7B@!G5    /???j    SUB	5,14725
006060  553000 000005    M8   %    Z`???    HRRZS	0,5
006061  312240 014723    92@!G3    2J??i    CAME	5,14723
006062  000000 435444       CLD    ???;?    UUO00	0,435444
006063  200250 000002    0"H  "     ?@??    MOVE	5,2(10)
006064  241240 000002    4*@  "    (*???    ROT	5,2
006065  430240 014724    C"@!G4    F???j    XOR	5,14724
006066  430240 014726    C"@!G6    F???k    XOR	5,14726
006067  602240 000001    P2@  !    `J???    TRNE	5,1
006070  000000 436244       CRD    ???<R    UUO00	0,436244
006071  254000 020025    5@ " 5    +?? ?    JRST	0,20025
006072  550400 014744    M$ !GD    Z???r    HRRZ	10,14744
006073  602000 001000    P0  (     `@???    TRNE	0,1000
006074  254000 020127    5@ "!7    +?? +    JRST	0,20127
006075  606000 040000    PP $      a@?@?    TRNN	0,40000
006076  335010 000002    ;H(  "    7 @??    SKIPGE	0,2(10)
006077  254000 020125    5@ "!5    +?? *    JRST	0,20125
006100  660100 001000    V!  (     l????    TRO	2,1000
006101  260040 021362    6 @"+R    ,??"y    PUSHJ	1,21362
006102  200210 000000    0"(        ?@??    MOVE	4,0(10)
006103  332000 014724    ;0 !G4    6@??j    SKIPE	0,14724
006104  661200 100000    V* (      l(???    TLO	4,100000
006105  260040 022424    6 @"44    ,??%?    PUSHJ	1,22424
006106  550210 000001    M"(  !    Z?@??    HRRZ	4,1(10)
006107  260040 022424    6 @"44    ,??%?    PUSHJ	1,22424
006110  620100 001000    R!  (     d????    TRZ	2,1000
006111  205200 400000    0J @      !(???    MOVSI	4,400000
006112  436210 000002    CR(  "    GH@??    IORM	4,2(10)
006113  602000 020000    P0 "      `@? ?    TRNE	0,20000
006114  254000 020146    5@ "!F    +?? 3    JRST	0,20146
006115  200200 014723    0" !G3     ???i    MOVE	4,14723
006116  506210 000001    HR(  !    QH@??    HRLM	4,1(10)
006117  201200 276351    0* 7SI     (?|t    MOVEI	4,276351
006120  202200 014745    02 !GE     H??r    MOVEM	4,14745
006121  201200 327651    0* :^I     (?/T    MOVEI	4,327651
006122  202200 014752    02 !GJ     H??u    MOVEM	4,14752
006123  201400 000003    0,   #     0???    MOVEI	10,3
006124  273400 014744    7< !GD    .p??r    ADDB	10,14744
006125  311400 014746    9, !GF    20??s    CAML	10,14746
006126  202400 014746    04 !GF     P??s    MOVEM	10,14746
006127  350200 014747    =" !GG    :???s    AOS	4,14747
006130  202210 000000    02(        H@??    MOVEM	4,0(10)
006131  263040 000000    68@       ,b???    POPJ	1,0
006132  260040 022443    6 @"4C    ,??%?    PUSHJ	1,22443
006133  554210 000001    MB(  !    [?@??    HLRZ	4,1(10)
006134  202200 014723    02 !G3     H??i    MOVEM	4,14723
006135  254000 020133    5@ "!;    +?? -    JRST	0,20133
006136  201200 327651    0* :^I     (?/T    MOVEI	4,327651
006137  261040 000010    6(@  (    ,"???    PUSH	1,10
006140  261040 000006    6(@  &    ,"???    PUSH	1,6
006141  200301 000000    0#!        ????    MOVE	6,0(1)
006142  311200 014752    9* !GJ    2(??u    CAML	4,14752
006143  254000 020240    5@ ""@    +?? P    JRST	0,20240
006144  550604 000000    M&$       Z? ??    HRRZ	14,0(4)
006145  302607 073110    86''9(    0X8v$    CAIE	14,73110(7)
006146  344200 020237    <B ""?    9?? O    AOJA	4,20237
006147  261040 000005    6(@  %    ,"???    PUSH	1,5
006150  200404 000000    0$$        ? ??    MOVE	10,0(4)
006151  135700 025042    +O "HB    ?<?*?    LDB	16,25042
006152  332000 000016    ;0   .    6@???    SKIPE	0,16
006153  220240 000016    2"@  .    $????    IMUL	5,16
006154  603400 020000    P< "      `p? ?    TLNE	10,20000
006155  213000 000005    18   %    "`???    MOVNS	0,5
006156  603400 100000    P< (      `p???    TLNE	10,100000
006157  553000 000005    M8   %    Z`???    HRRZS	0,5
006160  603400 040000    P< $      `p?@?    TLNE	10,40000
006161  405240 000017    @J@  /    A*???    ANDI	5,17
006162  603400 200000    P< 0      `p???    TLNE	10,200000
006163  207000 000005    0X   %    !`???    MOVSS	0,5
006164  603400 040000    P< $      `p?@?    TLNE	10,40000
006165  242240 000005    42@  %    (J???    LSH	5,5
006166  270264 000001    7"T  !    .? ??    ADD	5,@1(4)
006167  607400 200000    P\ 0      ap???    TLNN	10,200000
006170  542264 000001    L2T  !    XK ??    HRRM	5,@1(4)
006171  603400 200000    P< 0      `p???    TLNE	10,200000
006172  502264 000001    H2T  !    PK ??    HLLM	5,@1(4)
006173  607400 100000    P\ (      ap???    TLNN	10,100000
006174  202264 000001    02T  !     K ??    MOVEM	5,@1(4)
006175  135640 025043    +N@"HC    ?:?*?    LDB	15,25043
006176  603400 100000    P< (      `p???    TLNE	10,100000
006177  620640 000002    R&@  "    d????    TRZ	15,2
006200  603400 200000    P< 0      `p???    TLNE	10,200000
006201  242640 000001    46@  !    (Z???    LSH	15,1
006202  622640 000004    R6@  $    dZ???    TRZE	15,4
006203  660640 000001    V&@  !    l????    TRO	15,1
006204  261040 000004    6(@  $    ,"???    PUSH	1,4
006205  550204 000001    M"$  !    Z? ??    HRRZ	4,1(4)
006206  260040 020752    6 @"'J    ,??!u    PUSHJ	1,20752
006207  135240 000006    +J@  &    ?*???    LDB	5,6
006210  603400 020000    P< "      `p? ?    TLNE	10,20000
006211  254000 020262    5@ ""R    +?? Y    JRST	0,20262
006212  602255 000000    P2M       `Jh??    TRNE	5,0(15)
006213  005000 436251     H CRI    ? ?<T    UUO05	0,436251
006214  434240 000015    CB@  -    G????    IOR	5,15
006215  137240 000006    +Z@  &    ?j???    DPB	5,6
006216  262040 000004    60@  $    ,B???    POP	1,4
006217  402004 000000    @0$       @@ ??    SETZM	0,0(4)
006220  402004 000001    @0$  !    @@ ??    SETZM	0,1(4)
006221  262040 000005    60@  %    ,B???    POP	1,5
006222  350000 000004    =    $    :????    AOS	0,4
006223  344200 020155    <B "!M    9?? 6    AOJA	4,20155
006224  201200 327651    0* :^I     (?/T    MOVEI	4,327651
006225  261040 000005    6(@  %    ,"???    PUSH	1,5
006226  201240 327651    0*@:^I     *?/T    MOVEI	5,327651
006227  311200 014752    9* !GJ    2(??u    CAML	4,14752
006230  254000 020255    5@ ""M    +?? V    JRST	0,20255
006231  336304 000000    ;S$       7L ??    SKIPN	6,0(4)
006232  344200 020254    <B ""L    9?? V    AOJA	4,20254
006233  202305 000000    03%        L(??    MOVEM	6,0(5)
006234  200304 000001    0#$  !     ? ??    MOVE	6,1(4)
006235  202305 000001    03%  !     L(??    MOVEM	6,1(5)
006236  350000 000005    =    %    :????    AOS	0,5
006237  344240 020246    <B@""F    9?? S    AOJA	5,20246
006240  344200 020243    <B ""C    9?? Q    AOJA	4,20243
006241  202240 014752    02@!GJ     J??u    MOVEM	5,14752
006242  262040 000005    60@  %    ,B???    POP	1,5
006243  262040 000006    60@  &    ,B???    POP	1,6
006244  262040 000010    60@  (    ,B???    POP	1,10
006245  263040 000000    68@       ,b???    POPJ	1,0
006246  431240 000003    C*@  #    F*???    XORI	5,3
006247  602255 000000    P2M       `Jh??    TRNE	5,0(15)
006250  005000 436251     H CRI    ? ?<T    UUO05	0,436251
006251  440240 000015    D"@  -    H????    ANDCB	5,15
006252  254000 020231    5@ ""9    +?? L    JRST	0,20231
006253  202200 014714    02 !G,     H??f    MOVEM	4,14714
006254  202240 014715    02@!G-     J??f    MOVEM	5,14715
006255  261040 000007    6(@  '    ,"???    PUSH	1,7
006256  260040 022147    6 @"1G    ,??$3    PUSHJ	1,22147
006257  262040 000007    60@  '    ,B???    POP	1,7
006260  312340 014742    93@!GB    2N??q    CAME	7,14742
006261  603100 004000    P9  @     `d???    TLNE	2,4000
006262  263040 000000    68@       ,b???    POPJ	1,0
006263  200340 014742    0#@!GB     ???q    MOVE	7,14742
006264  302340 000015    83@  -    0N???    CAIE	7,15
006265  306340 000012    8S@  *    1N???    CAIN	7,12
006266  263040 000000    68@       ,b???    POPJ	1,0
006267  002000 515443     0 ILC    ?@???    UUO02	0,515443
006270  263040 000000    68@       ,b???    POPJ	1,0
006271  201340 000076    0+@  ^     .???    MOVEI	7,76
006272  265540 016040    6M@!P@    -6???    JSP	13,16040
006273  260040 020267    6 @""W    ,?? [    PUSHJ	1,20267
006274  603100 004000    P9  @     `d???    TLNE	2,4000
006275  260040 024310    6 @"C(    ,??(d    PUSHJ	1,24310
006276  265540 016063    6M@!PS    -6???    JSP	13,16063
006277  623100 000040    R9   @    dd???    TLZE	2,40
006300  254000 020367    5@ "#W    +?? {    JRST	0,20367
006301  272200 014714    72 !G,    .H??f    ADDM	4,14714
006302  200200 014715    0" !G-     ???f    MOVE	4,14715
006303  260040 015110    6 @!I(    ,???$    PUSHJ	1,15110
006304  202200 014715    02 !G-     H??f    MOVEM	4,14715
006305  200200 014742    0" !GB     ???q    MOVE	4,14742
006306  302200 000015    82   -    0H???    CAIE	4,15
006307  306200 000012    8R   *    1H???    CAIN	4,12
006310  254000 020346    5@ "#F    +?? s    JRST	0,20346
006311  260040 016145    6 @!QE    ,???2    PUSHJ	1,16145
006312  306200 000041    8R   A    1H???    CAIN	4,41
006313  254000 020325    5@ "#5    +?? j    JRST	0,20325
006314  661100 002000    V)  0     l$???    TLO	2,2000
006315  554644 025202    MFD"J"    [? *A    HLRZ	15,25202(4)
006316  302200 000137    82  !?    0H??/    CAIE	4,137
006317  306200 000135    8R  !=    1H??.    CAIN	4,135
006320  254000 020345    5@ "#E    +?? r    JRST	0,20345
006321  302640 263040    86@68@    0Z?f?    CAIE	15,263040
006322  254000 020361    5@ "#Q    +?? x    JRST	0,20361
006323  550644 025202    M&D"J"    Z? *A    HRRZ	15,25202(4)
006324  200655 021651    0&M".I     ?h#T    MOVE	15,21651(15)
006325  306200 000073    8R   [    1H???    CAIN	4,73
006326  254000 020345    5@ "#E    +?? r    JRST	0,20345
006327  603640 400000    P>@@      `z???    TLNE	15,400000
006330  254000 020361    5@ "#Q    +?? x    JRST	0,20361
006331  260040 015410    6 @!L(    ,????    PUSHJ	1,15410
006332  660100 000002    V!   "    l????    TRO	2,2
006333  200200 014714    0" !G,     ???f    MOVE	4,14714
006334  200240 014715    0"@!G-     ???f    MOVE	5,14715
006335  262040 014715    60@!G-    ,B??f    POP	1,14715
006336  262040 014714    60@!G,    ,B??f    POP	1,14714
006337  254000 015147    5@ !IG    +???3    JRST	0,15147
006340  272200 014710    72 !G(    .H??d    ADDM	4,14710
006341  200200 014711    0" !G)     ???d    MOVE	4,14711
006342  260040 015110    6 @!I(    ,???$    PUSHJ	1,15110
006343  202200 014711    02 !G)     H??d    MOVEM	4,14711
006344  254000 020321    5@ "#1    +?? h    JRST	0,20321
006345  336000 014714    ;P !G,    7@??f    SKIPN	0,14714
006346  332000 014715    ;0 !G-    6@??f    SKIPE	0,14715
006347  002000 565763     0 NOS    ?@?ky    UUO02	0,565763
006350  262040 014715    60@!G-    ,B??f    POP	1,14715
006351  262040 014714    60@!G,    ,B??f    POP	1,14714
006352  254000 015142    5@ !IB    +???1    JRST	0,15142
006353  262040 014715    60@!G-    ,B??f    POP	1,14715
006354  262040 014714    60@!G,    ,B??f    POP	1,14714
006355  263040 000000    68@       ,b???    POPJ	1,0
006356  261040 017742    6(@!_B    ,"??q    PUSH	1,17742
006357  377000 014762    ?X !GR    ?`??y    SOSG	0,14762
006360  000000 646641       TVA    ???MP    UUO00	0,646641
006361  205340 714020    0K@Y@0    !.???    MOVSI	7,714020
006362  200400 014723    0$ !G3     ???i    MOVE	10,14723
006363  202400 014777    04 !G_     P???    MOVEM	10,14777
006364  270400 014725    7$ !G5    .???j    ADD	10,14725
006365  200300 014724    0# !G4     ???j    MOVE	6,14724
006366  270300 014726    7# !G6    .???k    ADD	6,14726
006367  602000 020000    P0 "      `@? ?    TRNE	0,20000
006370  254000 020470    5@ "$X    +??!?    JRST	0,20470
006371  504400 014740    HD !G@    Q???p    HRL	10,14740
006372  332000 000006    ;0   &    6@???    SKIPE	0,6
006373  661400 400000    V, @      l0???    TLO	10,400000
006374  202420 014761    040!GQ     Q??x    MOVEM	10,@14761
006375  550740 000007    M'@  '    Z????    HRRZ	17,7
006376  241740 777776    4/@__^    (>???    ROT	17,777776
006377  510317 243050    I#/48H    R?zF?    HLLZ	6,243050(17)
006400  335000 000017    ;H   /    7 ???    SKIPGE	0,17
006401  514317 243050    IC/48H    S?zF?    HRLZ	6,243050(17)
006402  200247 073111    0"G'9)     ?8v$    MOVE	5,73111(7)
006403  200507 073110    0%''9(     ?8v$    MOVE	12,73110(7)
006404  621500 740000    R- \      d4?@?    TLZ	12,740000
006405  135540 025044    +M@"HD    ?6?*?    LDB	13,25044
006406  302540 000005    85@  %    0V???    CAIE	13,5
006407  306540 000007    8U@  '    1V???    CAIN	13,7
006410  254000 020442    5@ "$B    +??!?    JRST	0,20442
006411  302540 000006    85@  &    0V???    CAIE	13,6
006412  306540 000004    8U@  $    1V???    CAIN	13,4
006413  254000 020502    5@ "%"    +??!!    JRST	0,20502
006414  350000 000007    =    '    :????    AOS	0,7
006415  253340 020411    5;@"$)    *n?!?    AOBJN	7,20411
006416  554220 014761    MB0!GQ    [???x    HLRZ	4,@14761
006417  620200 400000    R" @      d????    TRZ	4,400000
006420  270200 014777    7" !G_    .????    ADD	4,14777
006421  202200 014723    02 !G3     H??i    MOVEM	4,14723
006422  260040 022443    6 @"4C    ,??%?    PUSHJ	1,22443
006423  402000 014740    @0 !G@    @@??p    SETZM	0,14740
006424  350000 014761    =  !GQ    :???x    AOS	0,14761
006425  263040 000000    68@       ,b???    POPJ	1,0
006426  306540 000007    8U@  '    1V???    CAIN	13,7
006427  661500 040000    V- $      l4?@?    TLO	12,40000
006430  260040 021244    6 @"*D    ,??"R    PUSHJ	1,21244
006431  205400 200000    0L 0      !0???    MOVSI	10,200000
006432  306540 000007    8U@  '    1V???    CAIN	13,7
006433  205400 300000    0L 8      !0???    MOVSI	10,300000
006434  602000 001000    P0  (     `@???    TRNE	0,1000
006435  254000 020513    5@ "%+    +??!%    JRST	0,20513
006436  201245 777777    0*E___     */??    MOVEI	5,777777(5)
006437  270240 014777    7"@!G_    .????    ADD	5,14777
006440  270240 014725    7"@!G5    .???j    ADD	5,14725
006441  200440 014724    0$@!G4     ???j    MOVE	11,14724
006442  270440 014726    7$@!G6    .???k    ADD	11,14726
006443  332000 000011    ;0   )    6@???    SKIPE	0,11
006444  661300 200000    V+ 0      l,???    TLO	6,200000
006445  302540 000007    85@  '    0V???    CAIE	13,7
006446  627300 001000    R[  (     el???    TLZN	6,1000
006447  334000 000000    ;@        7????    SKIPA	0,0
006450  260040 020152    6 @"!J    ,?? 5    PUSHJ	1,20152
006451  260040 022042    6 @"0B    ,??$?    PUSHJ	1,22042
006452  260040 021325    6 @"+5    ,??"j    PUSHJ	1,21325
006453  254000 020430    5@ "$8    +??!?    JRST	0,20430
006454  550220 014761    M"0!GQ    Z???x    HRRZ	4,@14761
006455  302210 000000    82(       0H@??    CAIE	4,0(10)
006456  000000 665444       VLD    ???k?    UUO00	0,665444
006457  554220 014761    MB0!GQ    [???x    HLRZ	4,@14761
006460  622200 400000    R2 @      dH???    TRZE	4,400000
006461  431300 000001    C+   !    F,???    XORI	6,1
006462  326300 025045    :S "HE    5L?*?    JUMPN	6,25045
006463  332000 014740    ;0 !G@    6@??p    SKIPE	0,14740
006464  000000 665644       VND    ???kR    UUO00	0,665644
006465  254000 020411    5@ "$)    +??!?    JRST	0,20411
006466  607300 002000    P[  0     al???    TLNN	6,2000
006467  254000 020430    5@ "$8    +??!?    JRST	0,20430
006470  663300 020000    V; "      ll? ?    TLOE	6,20000
006471  254000 020517    5@ "%/    +??!'    JRST	0,20517
006472  306540 000006    8U@  &    1V???    CAIN	13,6
006473  661500 040000    V- $      l4?@?    TLO	12,40000
006474  260040 021244    6 @"*D    ,??"R    PUSHJ	1,21244
006475  606000 001000    PP  (     a@???    TRNN	0,1000
006476  254000 020522    5@ "%2    +??!)    JRST	0,20522
006477  260040 022040    6 @"0@    ,??$?    PUSHJ	1,22040
006500  260040 017772    6 @!_Z    ,???}    PUSHJ	1,17772
006501  260040 021363    6 @"+S    ,??"y    PUSHJ	1,21363
006502  260040 022424    6 @"44    ,??%?    PUSHJ	1,22424
006503  602000 001000    P0  (     `@???    TRNE	0,1000
006504  350000 014723    =  !G3    :???i    AOS	0,14723
006505  254000 020430    5@ "$8    +??!?    JRST	0,20430
006506  306540 000006    8U@  &    1V???    CAIN	13,6
006507  254000 020466    5@ "$V    +??!?    JRST	0,20466
006510  550740 000007    M'@  '    Z????    HRRZ	17,7
006511  241740 777776    4/@__^    (>???    ROT	17,777776
006512  335000 000017    ;H   /    7 ???    SKIPGE	0,17
006513  546317 243050    LS/48H    YLzF?    HLRM	6,243050(17)
006514  331000 000017    ;(   /    6 ???    SKIPL	0,17
006515  502317 243050    H3/48H    PLzF?    HLLM	6,243050(17)
006516  254000 020430    5@ "$8    +??!?    JRST	0,20430
006517  201340 000051    0+@  I     .???    MOVEI	7,51
006520  265540 016040    6M@!P@    -6???    JSP	13,16040
006521  201300 000000    0+         ,???    MOVEI	6,0
006522  602100 200000    P1 0      `D???    TRNE	2,200000
006523  602100 000002    P1   "    `D???    TRNE	2,2
006524  661300 400000    V+ @      l,???    TLO	6,400000
006525  261040 000006    6(@  &    ,"???    PUSH	1,6
006526  260040 020267    6 @""W    ,?? [    PUSHJ	1,20267
006527  262040 000006    60@  &    ,B???    POP	1,6
006530  206200 014712    0R !G*    !H??e    MOVSM	4,14712
006531  206240 014713    0R@!G+    !J??e    MOVSM	5,14713
006532  205240 200000    0J@0      !*???    MOVSI	5,200000
006533  260040 015100    6 @!I     ,???     PUSHJ	1,15100
006534  603100 004000    P9  @     `d???    TLNE	2,4000
006535  260040 024310    6 @"C(    ,??(d    PUSHJ	1,24310
006536  265540 016063    6M@!PS    -6???    JSP	13,16063
006537  200200 014712    0" !G*     ???e    MOVE	4,14712
006540  200240 014713    0"@!G+     ???e    MOVE	5,14713
006541  321300 020354    :+ "#L    4,? v    JUMPL	6,20354
006542  254000 020315    5@ "#-    +?? f    JRST	0,20315
006543  660100 000001    V!   !    l????    TRO	2,1
006544  265540 016040    6M@!P@    -6???    JSP	13,16040
006545  350000 014760    =  !GP    :???x    AOS	0,14760
006546  201340 000135    0+@ !=     .??.    MOVEI	7,135
006547  260040 020267    6 @""W    ,?? [    PUSHJ	1,20267
006550  370000 014760    ?  !GP    >???x    SOS	0,14760
006551  200600 014704    0& !G$     ???b    MOVE	14,14704
006552  274600 014705    7F !G%    /???b    SUB	14,14705
006553  322600 020603    :6 "&#    4X?!A    JUMPE	14,20603
006554  201254 777777    0*L___     *g??    MOVEI	5,777777(14)
006555  210440 000005    1$@  %    "????    MOVN	11,5
006556  322240 020603    :2@"&#    4J?!A    JUMPE	5,20603
006557  504400 000011    HD   )    Q????    HRL	10,11
006560  540400 014705    L$ !G%    X???b    HRR	10,14705
006561  200210 000001    0"(  !     ?@??    MOVE	4,1(10)
006562  311210 000002    9*(  "    2(@??    CAML	4,2(10)
006563  250210 000002    5"(  "    *?@??    EXCH	4,2(10)
006564  202210 000001    02(  !     H@??    MOVEM	4,1(10)
006565  253400 020575    5< "%]    *p?!>    AOBJN	10,20575
006566  367240 020573    >Z@"%[    =j?!=    SOJG	5,20573
006567  260040 021455    6 @",M    ,??#?    PUSHJ	1,21455
006570  241400 000002    4,   "    (0???    ROT	10,2
006571  603100 024000    P9 "@     `d?(?    TLNE	2,24000
006572  254000 020702    5@ "'"    +??!a    JRST	0,20702
006573  201200 276351    0* 7SI     (?|t    MOVEI	4,276351
006574  311200 014745    9* !GE    2(??r    CAML	4,14745
006575  254000 020702    5@ "'"    +??!a    JRST	0,20702
006576  200240 014710    0"@!G(     ???d    MOVE	5,14710
006577  312244 000000    92D       2J ??    CAME	5,0(4)
006600  344200 020610    <B "&(    9??!D    AOJA	4,20610
006601  260040 020752    6 @"'J    ,??!u    PUSHJ	1,20752
006602  135600 000006    +N   &    ?8???    LDB	14,6
006603  312600 000010    96   (    2X???    CAME	14,10
006604  254000 020614    5@ "&,    +??!F    JRST	0,20614
006605  201240 327651    0*@:^I     *?/T    MOVEI	5,327651
006606  334300 014705    ;C !G%    7???b    SKIPA	6,14705
006607  350000 000005    =    %    :????    AOS	0,5
006610  311240 014752    9*@!GJ    2*??u    CAML	5,14752
006611  254000 020634    5@ "&<    +??!N    JRST	0,20634
006612  312205 000001    92%  !    2H(??    CAME	4,1(5)
006613  344240 020623    <B@"&3    9??!I    AOJA	5,20623
006614  200345 000000    0#E        ?(??    MOVE	7,0(5)
006615  312346 000001    93F  !    2N0??    CAME	7,1(6)
006616  254000 020614    5@ "&,    +??!F    JRST	0,20614
006617  344300 020627    <C "&7    9??!K    AOJA	6,20627
006620  312300 014704    93 !G$    2L??b    CAME	6,14704
006621  254000 020614    5@ "&,    +??!F    JRST	0,20614
006622  200300 014705    0# !G%     ???b    MOVE	6,14705
006623  200240 014744    0"@!GD     ???r    MOVE	5,14744
006624  331005 000002    ;(%  "    6 (??    SKIPL	0,2(5)
006625  344300 020647    <C "&G    9??!S    AOJA	6,20647
006626  202300 014704    03 !G$     L??b    MOVEM	6,14704
006627  200305 000001    0#%  !     ?(??    MOVE	6,1(5)
006630  271206 000000    7*&       .(0??    ADDI	4,0(6)
006631  135240 025046    +J@"HF    ?*?*?    LDB	5,25046
006632  254000 020656    5@ "&N    +??!W    JRST	0,20656
006633  603100 004000    P9  @     `d???    TLNE	2,4000
006634  607100 020000    PY "      ad? ?    TLNN	2,20000
006635  254000 020653    5@ "&K    +??!U    JRST	0,20653
006636  254000 020655    5@ "&M    +??!V    JRST	0,20655
006637  202300 014704    03 !G$     L??b    MOVEM	6,14704
006640  202246 000000    02F        J0??    MOVEM	5,0(6)
006641  201240 000000    0*@        *???    MOVEI	5,0
006642  275200 276351    7J 7SI    /(?|t    SUBI	4,276351
006643  623100 020000    R9 "      dd? ?    TLZE	2,20000
006644  254000 020675    5@ "&]    +??!^    JRST	0,20675
006645  607100 004000    PY  @     ad???    TLNN	2,4000
006646  254000 020312    5@ "#*    +?? e    JRST	0,20312
006647  261040 000004    6(@  $    ,"???    PUSH	1,4
006650  261040 000005    6(@  %    ,"???    PUSH	1,5
006651  261040 014704    6(@!G$    ,"??b    PUSH	1,14704
006652  261040 014705    6(@!G%    ,"??b    PUSH	1,14705
006653  260040 020670    6 @"&X    ,??!\    PUSHJ	1,20670
006654  661100 020000    V) "      l$? ?    TLO	2,20000
006655  201340 000135    0+@ !=     .??.    MOVEI	7,135
006656  350000 014760    =  !GP    :???x    AOS	0,14760
006657  260040 020271    6 @""Y    ,?? \    PUSHJ	1,20271
006660  254000 020564    5@ "%T    +??!:    JRST	0,20564
006661  603100 004000    P9  @     `d???    TLNE	2,4000
006662  254000 020670    5@ "&X    +??!\    JRST	0,20670
006663  201440 020670    0,@"&X     2?!\    MOVEI	11,20670
006664  265540 016053    6M@!PK    -6???    JSP	13,16053
006665  254000 020312    5@ "#*    +?? e    JRST	0,20312
006666  350200 014745    =" !GE    :???r    AOS	4,14745
006667  301200 327352    8* :[J    0(?.u    CAIL	4,327352
006670  000000 645543       TMC    ???K1    UUO00	0,645543
006671  200140 014710    0!@!G(     ???d    MOVE	3,14710
006672  202144 777777    01D___     F'??    MOVEM	3,777777(4)
006673  370000 000004    ?    $    >????    SOS	0,4
006674  260040 020752    6 @"'J    ,??!u    PUSHJ	1,20752
006675  137400 000006    +\   &    ?p???    DPB	10,6
006676  200240 014705    0"@!G%     ???b    MOVE	5,14705
006677  311240 014704    9*@!G$    2*??b    CAML	5,14704
006700  254000 020636    5@ "&>    +??!O    JRST	0,20636
006701  200305 000001    0#%  !     ?(??    MOVE	6,1(5)
006702  202320 014752    030!GJ     M??u    MOVEM	6,@14752
006703  553000 000006    M8   &    Z`???    HRRZS	0,6
006704  260040 020746    6 @"'F    ,??!s    PUSHJ	1,20746
006705  201746 704670    0/FXFX     >7?\    MOVEI	17,704670(6)
006706  241740 777776    4/@__^    (>???    ROT	17,777776
006707  510357 243050    I#O48H    R?zF?    HLLZ	7,243050(17)
006710  335000 000017    ;H   /    7 ???    SKIPGE	0,17
006711  514357 243050    ICO48H    S?zF?    HRLZ	7,243050(17)
006712  661340 001000    V+@ (     l.???    TLO	7,1000
006713  202220 014752    020!GJ     I??u    MOVEM	4,@14752
006714  260040 020746    6 @"'F    ,??!s    PUSHJ	1,20746
006715  301300 276351    8+ 7SI    0,?|t    CAIL	6,276351
006716  344240 020713    <B@"'+    9??!e    AOJA	5,20713
006717  201746 704670    0/FXFX     >7?\    MOVEI	17,704670(6)
006720  241740 777776    4/@__^    (>???    ROT	17,777776
006721  335000 000017    ;H   /    7 ???    SKIPGE	0,17
006722  546357 243050    LSO48H    YNzF?    HLRM	7,243050(17)
006723  331000 000017    ;(   /    6 ???    SKIPL	0,17
006724  502357 243050    H3O48H    PNzF?    HLLM	7,243050(17)
006725  344240 020713    <B@"'+    9??!e    AOJA	5,20713
006726  260040 022443    6 @"4C    ,??%?    PUSHJ	1,22443
006727  554210 000001    MB(  !    [?@??    HLRZ	4,1(10)
006730  202200 014723    02 !G3     H??i    MOVEM	4,14723
006731  254000 020133    5@ "!;    +?? -    JRST	0,20133
006732  350140 014752    =!@!GJ    :???u    AOS	3,14752
006733  301140 335651    8)@;NI    0&?;T    CAIL	3,335651
006734  000000 645543       TMC    ???K1    UUO00	0,645543
006735  263040 000000    68@       ,b???    POPJ	1,0
006736  261040 000004    6(@  $    ,"???    PUSH	1,4
006737  275200 276351    7J 7SI    /(?|t    SUBI	4,276351
006740  261040 000005    6(@  %    ,"???    PUSH	1,5
006741  231200 000022    3*   2    &(???    IDIVI	4,22
006742  201304 275041    0+$7HA     ,"z?    MOVEI	6,275041(4)
006743  137240 025047    +Z@"HG    ?j?*?    DPB	5,25047
006744  661300 000200    V+  "     l,??@    TLO	6,200
006745  262040 000005    60@  %    ,B???    POP	1,5
006746  254000 024315    5@ "C-    +??(f    JRST	0,24315
006747  542200 021141    L2 ")A    XH?"0    HRRM	4,21141
006750  335000 014764    ;H !GT    7 ??z    SKIPGE	0,14764
006751  254000 026024    5@ "P4    +??,?    JRST	0,26024
006752  205200 714020    0J Y@0    !(???    MOVSI	4,714020
006753  336244 073110    ;RD'9(    7J v$    SKIPN	5,73110(4)
006754  254000 021000    5@ "(     +??"?    JRST	0,21000
006755  550740 000004    M'@  $    Z????    HRRZ	17,4
006756  241740 777776    4/@__^    (>???    ROT	17,777776
006757  510317 243050    I#/48H    R?zF?    HLLZ	6,243050(17)
006760  335000 000017    ;H   /    7 ???    SKIPGE	0,17
006761  514317 243050    IC/48H    S?zF?    HRLZ	6,243050(17)
006762  607300 040000    P[ $      al?@?    TLNN	6,40000
006763  402004 073110    @0$'9(    @@ v$    SETZM	0,73110(4)
006764  350000 000004    =    $    :????    AOS	0,4
006765  253200 020767    5: "'W    *h?!{    AOBJN	4,20767
006766  205200 745171    0J \IY    !(?J<    MOVSI	4,745171
006767  402004 275041    @0$7HA    @@"z?    SETZM	0,275041(4)
006770  253200 021003    5: "(#    *h?"?    AOBJN	4,21003
006771  261040 021102    6(@")"    ,"?"!    PUSH	1,21102
006772  403100 014774    @9 !G\    @d??~    SETZB	2,14774
006773  402000 066023    @0 &P3    @@?l?    SETZM	0,66023
006774  402000 014776    @0 !G^    @@???    SETZM	0,14776
006775  630000 025050    S  "HH    f??*?    TDZ	0,25050
006776  402000 014764    @0 !GT    @@??z    SETZM	0,14764
006777  402000 015066    @0 !HV    @@???    SETZM	0,15066
007000  201200 336571    0* ;UY     (?=<    MOVEI	4,336571
007001  202200 015010    02 !H(     H???    MOVEM	4,15010
007002  202200 015011    02 !H)     H???    MOVEM	4,15011
007003  200200 025051    0" "HI     ??*?    MOVE	4,25051
007004  202200 015023    02 !H3     H???    MOVEM	4,15023
007005  201200 000003    0*   #     (???    MOVEI	4,3
007006  202200 015024    02 !H4     H???    MOVEM	4,15024
007007  201200 327651    0* :^I     (?/T    MOVEI	4,327651
007010  202200 014752    02 !GJ     H??u    MOVEM	4,14752
007011  201200 327351    0* :[I     (?.t    MOVEI	4,327351
007012  202200 014746    02 !GF     H??s    MOVEM	4,14746
007013  205200 000002    0J   "    !(???    MOVSI	4,2
007014  202200 014736    02 !G>     H??o    MOVEM	4,14736
007015  200200 025052    0" "HJ     ??*?    MOVE	4,25052
007016  202200 014765    02 !GU     H??z    MOVEM	4,14765
007017  200200 025027    0" "H7     ??*?    MOVE	4,25027
007020  202200 016147    02 !QG     H??3    MOVEM	4,16147
007021  621000 200000    R( 0      d ???    TLZ	0,200000
007022  402000 015025    @0 !H5    @@???    SETZM	0,15025
007023  201200 000100    0*  !      (??     MOVEI	4,100
007024  202200 014751    02 !GI     H??t    MOVEM	4,14751
007025  201200 335651    0* ;NI     (?;T    MOVEI	4,335651
007026  202200 014761    02 !GQ     H??x    MOVEM	4,14761
007027  201200 000100    0*  !      (??     MOVEI	4,100
007030  202200 014762    02 !GR     H??y    MOVEM	4,14762
007031  402000 014725    @0 !G5    @@??j    SETZM	0,14725
007032  402000 014726    @0 !G6    @@??k    SETZM	0,14726
007033  402000 014740    @0 !G@    @@??p    SETZM	0,14740
007034  402000 014720    @0 !G0    @@??h    SETZM	0,14720
007035  200200 025053    0" "HK     ??*?    MOVE	4,25053
007036  202200 014767    02 !GW     H??{    MOVEM	4,14767
007037  201200 014721    0* !G1     (??h    MOVEI	4,14721
007040  552200 014721    M2 !G1    ZH??h    HRRZM	4,14721
007041  403100 014717    @9 !G/    @d??g    SETZB	2,14717
007042  201200 276351    0* 7SI     (?|t    MOVEI	4,276351
007043  202200 014745    02 !GE     H??r    MOVEM	4,14745
007044  201200 327351    0* :[I     (?.t    MOVEI	4,327351
007045  202200 014744    02 !GD     H??r    MOVEM	4,14744
007046  200200 025054    0" "HL     ??*?    MOVE	4,25054
007047  202200 327351    02 :[I     H?.t    MOVEM	4,327351
007050  350000 000004    =    $    :????    AOS	0,4
007051  202200 014747    02 !GG     H??s    MOVEM	4,14747
007052  201200 000010    0*   (     (???    MOVEI	4,10
007053  202200 015553    02 !MK     H??5    MOVEM	4,15553
007054  201200 000100    0*  !      (??     MOVEI	4,100
007055  202200 014723    02 !G3     H??i    MOVEM	4,14723
007056  402000 014724    @0 !G4    @@??j    SETZM	0,14724
007057  201200 066024    0* &P4     (?l?    MOVEI	4,66024
007060  202200 014727    02 !G7     H??k    MOVEM	4,14727
007061  660000 600000    V  P      l????    TRO	0,600000
007062  402000 014754    @0 !GL    @@??v    SETZM	0,14754
007063  402000 014755    @0 !GM    @@??v    SETZM	0,14755
007064  200200 025055    0" "HM     ??*?    MOVE	4,25055
007065  251200 022136    5* "1>    *(?$/    BLT	4,22136
007066  263040 021141    68@")A    ,b?"0    POPJ	1,21141
007067  620100 225047    R! 2HG    d??*?    TRZ	2,225047
007070  621100 001537    R)  -?    d$??/    TLZ	2,1537
007071  660100 000010    V!   (    l????    TRO	2,10
007072  621000 100000    R( (      d ???    TLZ	0,100000
007073  200040 025056    0 @"HN     ??*?    MOVE	1,25056
007074  552040 014763    M0@!GS    ZB??y    HRRZM	1,14763
007075  201200 066067    0* &PW     (?l?    MOVEI	4,66067
007076  202200 014704    02 !G$     H??b    MOVEM	4,14704
007077  603100 004000    P9  @     `d???    TLNE	2,4000
007100  254000 021123    5@ ")3    +??")    JRST	0,21123
007101  260040 016145    6 @!QE    ,???2    PUSHJ	1,16145
007102  307200 000040    8Z   @    1h???    CAIG	4,40
007103  254000 021115    5@ ")-    +??"&    JRST	0,21115
007104  402000 014775    @0 !G]    @@??~    SETZM	0,14775
007105  661100 002000    V)  0     l$???    TLO	2,2000
007106  402000 014760    @0 !GP    @@??x    SETZM	0,14760
007107  260040 022147    6 @"1G    ,??$3    PUSHJ	1,22147
007110  627100 000400    RY  $     ed???    TLZN	2,400
007111  254000 021103    5@ ")#    +??"!    JRST	0,21103
007112  332000 014776    ;0 !G^    6@???    SKIPE	0,14776
007113  001000 636744     ( SWD    ? ?=r    UUO01	0,636744
007114  335000 015000    ;H !H     7 ???    SKIPGE	0,15000
007115  254000 024764    5@ "GT    +??)z    JRST	0,24764
007116  260040 022526    6 @"56    ,??%+    PUSHJ	1,22526
007117  350000 014723    =  !G3    :???i    AOS	0,14723
007120  254000 021103    5@ ")#    +??"!    JRST	0,21103
007121  542200 021141    L2 ")A    XH?"0    HRRM	4,21141
007122  606000 200000    PP 0      a@???    TRNN	0,200000
007123  254000 021142    5@ ")B    +??"1    JRST	0,21142
007124  260040 023743    6 @"?C    ,??'q    PUSHJ	1,23743
007125  254000 021141    5@ ")A    +??"0    JRST	0,21141
007126  336000 014735    ;P !G=    7@??n    SKIPN	0,14735
007127  260040 024100    6 @"A     ,??(     PUSHJ	1,24100
007130  254000 021141    5@ ")A    +??"0    JRST	0,21141
007131  316500 025023    9U "H3    3T?*?    CAMN	12,25023
007132  254000 023307    5@ ";'    +??&c    JRST	0,23307
007133  606100 204000    PQ 0@     aD???    TRNN	2,204000
007134  606100 000004    PQ   $    aD???    TRNN	2,4
007135  005000 516041     H IPA    ? ???    UUO05	0,516041
007136  261040 000012    6(@  *    ,"???    PUSH	1,12
007137  261040 000002    6(@  "    ,"???    PUSH	1,2
007140  200200 025057    0" "HO     ??*?    MOVE	4,25057
007141  202200 021701    02 "/!     H?#`    MOVEM	4,21701
007142  660100 004210    V!  B(    l???D    TRO	2,4210
007143  260040 016145    6 @!QE    ,???2    PUSHJ	1,16145
007144  302200 000075    82   ]    0H???    CAIE	4,75
007145  665100 002000    VI  0     m$???    TLOA	2,2000
007146  661000 100000    V( (      l ???    TLO	0,100000
007147  260040 022147    6 @"1G    ,??$3    PUSHJ	1,22147
007150  201640 000004    0.@  $     :???    MOVEI	15,4
007151  202640 014775    06@!G]     Z??~    MOVEM	15,14775
007152  606100 000010    PQ   (    aD???    TRNN	2,10
007153  254000 021322    5@ "+2    +??"i    JRST	0,21322
007154  630100 025060    S! "HP    f??*?    TDZ	2,25060
007155  434101 000000    CA!       G????    IOR	2,0(1)
007156  262041 000000    60A       ,B???    POP	1,0(1)
007157  262040 000012    60@  *    ,B???    POP	1,12
007160  332000 014774    ;0 !G\    6@??~    SKIPE	0,14774
007161  254000 021201    5@ "*!    +??"@    JRST	0,21201
007162  200200 014704    0" !G$     ???b    MOVE	4,14704
007163  316200 014705    9R !G%    3H??b    CAMN	4,14705
007164  254000 021272    5@ "*Z    +??"]    JRST	0,21272
007165  260040 021750    6 @"/H    ,??#t    PUSHJ	1,21750
007166  254000 021261    5@ "*Q    +??"X    JRST	0,21261
007167  254004 021204    5@$"*$    +? "B    JRST	0,21204(4)
007170  005000 516041     H IPA    ? ???    UUO05	0,516041
007171  005000 516041     H IPA    ? ???    UUO05	0,516041
007172  254000 021261    5@ "*Q    +??"X    JRST	0,21261
007173  254000 021261    5@ "*Q    +??"X    JRST	0,21261
007174  005000 516041     H IPA    ? ???    UUO05	0,516041
007175  005000 516041     H IPA    ? ???    UUO05	0,516041
007176  005000 516041     H IPA    ? ???    UUO05	0,516041
007177  005000 516041     H IPA    ? ???    UUO05	0,516041
007200  254000 021217    5@ "*/    +??"G    JRST	0,21217
007201  322240 021217    :2@"*/    4J?"G    JUMPE	5,21217
007202  260040 021243    6 @"*C    ,??"Q    PUSHJ	1,21243
007203  261040 021264    6(@"*T    ,"?"Z    PUSH	1,21264
007204  205400 400000    0L @      !0???    MOVSI	10,400000
007205  205300 004077    0K  @_    !,???    MOVSI	6,4077
007206  201240 000000    0*@        *???    MOVEI	5,0
007207  661500 040000    V- $      l4?@?    TLO	12,40000
007210  260040 022042    6 @"0B    ,??$?    PUSHJ	1,22042
007211  325000 023742    :H "?B    5 ?'q    JUMPGE	0,23742
007212  661300 020000    V+ "      l,? ?    TLO	6,20000
007213  550740 000007    M'@  '    Z????    HRRZ	17,7
007214  241740 777776    4/@__^    (>???    ROT	17,777776
007215  335000 000017    ;H   /    7 ???    SKIPGE	0,17
007216  546317 243050    LS/48H    YLzF?    HLRM	6,243050(17)
007217  331000 000017    ;(   /    6 ???    SKIPL	0,17
007220  502317 243050    H3/48H    PLzF?    HLLM	6,243050(17)
007221  260040 022443    6 @"4C    ,??%?    PUSHJ	1,22443
007222  201440 000007    0,@  '     2???    MOVEI	11,7
007223  137440 025061    +\@"HQ    ?r?*?    DPB	11,25061
007224  260040 022422    6 @"42    ,??%?    PUSHJ	1,22422
007225  260040 022525    6 @"55    ,??%*    PUSHJ	1,22525
007226  254000 022443    5@ "4C    +??%?    JRST	0,22443
007227  661500 040000    V- $      l4?@?    TLO	12,40000
007230  607300 100000    P[ (      al???    TLNN	6,100000
007231  603240 777777    P:@___    `j???    TLNE	5,777777
007232  664100 001000    VA  (     m????    TROA	2,1000
007233  263040 000000    68@       ,b???    POPJ	1,0
007234  201200 000006    0*   &     (???    MOVEI	4,6
007235  260040 022411    6 @"4)    ,??%?    PUSHJ	1,22411
007236  260040 022422    6 @"42    ,??%?    PUSHJ	1,22422
007237  554200 000005    MB   %    [????    HLRZ	4,5
007240  623300 100000    R; (      dl???    TLZE	6,100000
007241  661200 100000    V* (      l(???    TLO	4,100000
007242  553000 000005    M8   %    Z`???    HRRZS	0,5
007243  620100 001000    R!  (     d????    TRZ	2,1000
007244  254000 022424    5@ "44    +??%?    JRST	0,22424
007245  603100 000001    P9   !    `d???    TLNE	2,1
007246  254000 021217    5@ "*/    +??"G    JRST	0,21217
007247  260040 021265    6 @"*U    ,??"Z    PUSHJ	1,21265
007250  254000 021322    5@ "+2    +??"i    JRST	0,21322
007251  205400 140000    0L ,      !0?@?    MOVSI	10,140000
007252  621300 000077    R+   _    d,???    TLZ	6,77
007253  434300 014736    CC !G>    G???o    IOR	6,14736
007254  661300 004000    V+  @     l,???    TLO	6,4000
007255  254000 021224    5@ "*4    +??"J    JRST	0,21224
007256  260040 021750    6 @"/H    ,??#t    PUSHJ	1,21750
007257  254000 021451    5@ ",I    +??#?    JRST	0,21451
007260  254004 021275    5@$"*]    +? "^    JRST	0,21275(4)
007261  005000 516041     H IPA    ? ???    UUO05	0,516041
007262  254000 021400    5@ ",     +??#?    JRST	0,21400
007263  254000 021401    5@ ",!    +??#?    JRST	0,21401
007264  254000 021344    5@ "+D    +??"r    JRST	0,21344
007265  005000 516041     H IPA    ? ???    UUO05	0,516041
007266  005000 516041     H IPA    ? ???    UUO05	0,516041
007267  005000 516041     H IPA    ? ???    UUO05	0,516041
007270  005000 516041     H IPA    ? ???    UUO05	0,516041
007271  254000 021307    5@ "+'    +??"c    JRST	0,21307
007272  260040 021243    6 @"*C    ,??"Q    PUSHJ	1,21243
007273  260040 022721    6 @"71    ,??%h    PUSHJ	1,22721
007274  260040 022732    6 @"7:    ,??%m    PUSHJ	1,22732
007275  661300 000077    V+   _    l,???    TLO	6,77
007276  200240 014710    0"@!G(     ???d    MOVE	5,14710
007277  515400 400000    IL @      S0???    HRLZI	10,400000
007300  332000 014774    ;0 !G\    6@??~    SKIPE	0,14774
007301  661300 004000    V+  @     l,???    TLO	6,4000
007302  260040 022042    6 @"0B    ,??$?    PUSHJ	1,22042
007303  661500 040000    V- $      l4?@?    TLO	12,40000
007304  325000 021322    :H "+2    5 ?"i    JUMPGE	0,21322
007305  260040 021326    6 @"+6    ,??"k    PUSHJ	1,21326
007306  603100 004000    P9  @     `d???    TLNE	2,4000
007307  260040 024310    6 @"C(    ,??(d    PUSHJ	1,24310
007310  254000 021103    5@ ")#    +??"!    JRST	0,21103
007311  202240 014710    02@!G(     J??d    MOVEM	5,14710
007312  603000 400000    P8 @      ``???    TLNE	0,400000
007313  661300 020000    V+ "      l,? ?    TLO	6,20000
007314  550740 000007    M'@  '    Z????    HRRZ	17,7
007315  241740 777776    4/@__^    (>???    ROT	17,777776
007316  335000 000017    ;H   /    7 ???    SKIPGE	0,17
007317  546317 243050    LS/48H    YLzF?    HLRM	6,243050(17)
007320  331000 000017    ;(   /    6 ???    SKIPL	0,17
007321  502317 243050    H3/48H    PLzF?    HLLM	6,243050(17)
007322  660100 001000    V!  (     l????    TRO	2,1000
007323  260040 021362    6 @"+R    ,??"y    PUSHJ	1,21362
007324  260040 021617    6 @"./    ,??#G    PUSHJ	1,21617
007325  260040 022422    6 @"42    ,??%?    PUSHJ	1,22422
007326  620100 001000    R!  (     d????    TRZ	2,1000
007327  254000 022423    5@ "43    +??%?    JRST	0,22423
007330  200400 014736    0$ !G>     ???o    MOVE	10,14736
007331  312400 014732    94 !G:    2P??m    CAME	10,14732
007332  254000 021366    5@ "+V    +??"{    JRST	0,21366
007333  603100 000001    P9   !    `d???    TLNE	2,1
007334  254000 021371    5@ "+Y    +??"|    JRST	0,21371
007335  261040 000006    6(@  &    ,"???    PUSH	1,6
007336  260040 021244    6 @"*D    ,??"R    PUSHJ	1,21244
007337  260040 021455    6 @",M    ,??#?    PUSHJ	1,21455
007340  205400 100000    0L (      !0???    MOVSI	10,100000
007341  260040 021374    6 @"+\    ,??"~    PUSHJ	1,21374
007342  262040 000003    60@  #    ,B???    POP	1,3
007343  603140 001000    P9@ (     `f???    TLNE	3,1000
007344  260040 020152    6 @"!J    ,?? 5    PUSHJ	1,20152
007345  254000 021320    5@ "+0    +??"h    JRST	0,21320
007346  260040 021364    6 @"+T    ,??"z    PUSHJ	1,21364
007347  334200 014775    ;B !G]    7???~    SKIPA	4,14775
007350  201200 000007    0*   '     (???    MOVEI	4,7
007351  254000 022411    5@ "4)    +??%?    JRST	0,22411
007352  607100 000001    PY   !    ad???    TLNN	2,1
007353  254000 021413    5@ ",+    +??#?    JRST	0,21413
007354  254000 021306    5@ "+&    +??"c    JRST	0,21306
007355  260040 021703    6 @"/#    ,??#a    PUSHJ	1,21703
007356  254000 021306    5@ "+&    +??"c    JRST	0,21306
007357  261040 021264    6(@"*T    ,"?"Z    PUSH	1,21264
007360  434300 014736    CC !G>    G???o    IOR	6,14736
007361  603000 100000    P8 (      ``???    TLNE	0,100000
007362  661300 010000    V+ !      l,???    TLO	6,10000
007363  254000 022041    5@ "0A    +??$?    JRST	0,22041
007364  002000 616041     0 QPA    ?@???    UUO02	0,616041
007365  260040 022721    6 @"71    ,??%h    PUSHJ	1,22721
007366  603100 000001    P9   !    `d???    TLNE	2,1
007367  254000 021310    5@ "+(    +??"d    JRST	0,21310
007370  200400 014736    0$ !G>     ???o    MOVE	10,14736
007371  312400 014732    94 !G:    2P??m    CAME	10,14732
007372  254000 021413    5@ ",+    +??#?    JRST	0,21413
007373  260040 022732    6 @"7:    ,??%m    PUSHJ	1,22732
007374  205400 100000    0L (      !0???    MOVSI	10,100000
007375  254000 021373    5@ "+[    +??"}    JRST	0,21373
007376  262040 000006    60@  &    ,B???    POP	1,6
007377  211440 063760    1,@&?P    "2?gx    MOVNI	11,63760
007400  260040 022056    6 @"0N    ,??$?    PUSHJ	1,22056
007401  200246 073110    0"F'9(     ?0v$    MOVE	5,73110(6)
007402  621240 740000    R*@\      d*?@?    TLZ	5,740000
007403  322240 021427    :2@",7    4J?#?    JUMPE	5,21427
007404  316240 000012    9R@  *    3J???    CAMN	5,12
007405  254000 021434    5@ ",<    +??#?    JRST	0,21434
007406  271300 000002    7+   "    .,???    ADDI	6,2
007407  301300 147740    8+ ,_@    0,?Op    CAIL	6,147740
007410  201300 000000    0+         ,???    MOVEI	6,0
007411  346440 021415    <T@",-    9R?#?    AOJN	11,21415
007412  000000 634345       SCE    ???8r    UUO00	0,634345
007413  200340 000006    0#@  &     ????    MOVE	7,6
007414  260040 021455    6 @",M    ,??#?    PUSHJ	1,21455
007415  515400 100000    IL (      S0???    HRLZI	10,100000
007416  661300 000400    V+  $     l,???    TLO	6,400
007417  254000 021373    5@ "+[    +??"}    JRST	0,21373
007420  550740 000006    M'@  &    Z????    HRRZ	17,6
007421  241740 777776    4/@__^    (>???    ROT	17,777776
007422  510357 243050    I#O48H    R?zF?    HLLZ	7,243050(17)
007423  335000 000017    ;H   /    7 ???    SKIPGE	0,17
007424  514357 243050    ICO48H    S?zF?    HRLZ	7,243050(17)
007425  661340 000400    V+@ $     l.???    TLO	7,400
007426  550740 000006    M'@  &    Z????    HRRZ	17,6
007427  241740 777776    4/@__^    (>???    ROT	17,777776
007430  335000 000017    ;H   /    7 ???    SKIPGE	0,17
007431  546357 243050    LSO48H    YNzF?    HLRM	7,243050(17)
007432  331000 000017    ;(   /    6 ???    SKIPL	0,17
007433  502357 243050    H3O48H    PNzF?    HLLM	7,243050(17)
007434  254000 021422    5@ ",2    +??#?    JRST	0,21422
007435  607100 000001    PY   !    ad???    TLNN	2,1
007436  254000 021430    5@ ",8    +??#?    JRST	0,21430
007437  201300 000000    0+         ,???    MOVEI	6,0
007440  254000 021307    5@ "+'    +??"c    JRST	0,21307
007441  260040 022721    6 @"71    ,??%h    PUSHJ	1,22721
007442  254000 022732    5@ "7:    +??%m    JRST	0,22732
007443  544140 000002    LA@  "    Y????    HLR	3,2
007444  405140 000003    @I@  #    A&???    ANDI	3,3
007445  260040 021750    6 @"/H    ,??#t    PUSHJ	1,21750
007446  254000 021510    5@ "-(    +??#$    JRST	0,21510
007447  254004 021464    5@$",T    +? #?    JRST	0,21464(4)
007450  254000 021532    5@ "-:    +??#-    JRST	0,21532
007451  254000 021527    5@ "-7    +??#+    JRST	0,21527
007452  254000 021535    5@ "-=    +??#.    JRST	0,21535
007453  254000 021647    5@ ".G    +??#S    JRST	0,21647
007454  254000 021567    5@ "-W    +??#;    JRST	0,21567
007455  254000 021603    5@ ".#    +??#A    JRST	0,21603
007456  254000 021575    5@ "-]    +??#>    JRST	0,21575
007457  254000 021664    5@ ".T    +??#Z    JRST	0,21664
007460  254000 021610    5@ ".(    +??#D    JRST	0,21610
007461  603100 000002    P9   "    `d???    TLNE	2,2
007462  254000 021503    5@ "-#    +??#!    JRST	0,21503
007463  350000 014704    =  !G$    :???b    AOS	0,14704
007464  201407 073110    0,''9(     08v$    MOVEI	10,73110(7)
007465  552420 014704    M40!G$    ZQ??b    HRRZM	10,@14704
007466  254000 023664    5@ ">T    +??'Z    JRST	0,23664
007467  205400 340000    0L <      !0?@?    MOVSI	10,340000
007470  350000 014740    =  !G@    :???p    AOS	0,14740
007471  540240 014740    L"@!G@    X???p    HRR	5,14740
007472  661300 000077    V+   _    l,???    TLO	6,77
007473  254000 021517    5@ "-/    +??#'    JRST	0,21517
007474  200300 014736    0# !G>     ???o    MOVE	6,14736
007475  254003 021512    5@#"-*    +??#%    JRST	0,21512(3)
007476  254000 021523    5@ "-3    +??#)    JRST	0,21523
007477  254000 021521    5@ "-1    +??#(    JRST	0,21521
007500  334400 025062    ;D "HR    7??*?    SKIPA	10,25062
007501  205400 340000    0L <      !0?@?    MOVSI	10,340000
007502  350240 014740    ="@!G@    :???p    AOS	5,14740
007503  260040 022042    6 @"0B    ,??$?    PUSHJ	1,22042
007504  254000 021477    5@ ",_    +??#?    JRST	0,21477
007505  205400 440000    0L D      !0?@?    MOVSI	10,440000
007506  254000 021506    5@ "-&    +??##    JRST	0,21506
007507  260040 021666    6 @".V    ,??#[    PUSHJ	1,21666
007510  205400 140000    0L ,      !0?@?    MOVSI	10,140000
007511  201240 000000    0*@        *???    MOVEI	5,0
007512  254000 021517    5@ "-/    +??#'    JRST	0,21517
007513  623100 000003    R9   #    dd???    TLZE	2,3
007514  001000 515466     ( ILV    ? ???    UUO01	0,515466
007515  254005 000000    5@%       +?(??    JRST	0,0(5)
007516  660100 000040    V!   @    l????    TRO	2,40
007517  550200 000005    M"   %    Z????    HRRZ	4,5
007520  254000 023741    5@ "?A    +??'p    JRST	0,23741
007521  623100 000002    R9   "    dd???    TLZE	2,2
007522  001000 554466     ( MDV    ? ?Y?    UUO01	0,554466
007523  603100 000001    P9   !    `d???    TLNE	2,1
007524  254000 021546    5@ "-F    +??#3    JRST	0,21546
007525  200200 000005    0"   %     ????    MOVE	4,5
007526  135240 025063    +J@"HS    ?*?*?    LDB	5,25063
007527  603300 400000    P; @      `l???    TLNE	6,400000
007530  661240 000001    V*@  !    l*???    TLO	5,1
007531  263040 000000    68@       ,b???    POPJ	1,0
007532  515400 400000    IL @      S0???    HRLZI	10,400000
007533  661300 000077    V+   _    l,???    TLO	6,77
007534  260040 022042    6 @"0B    ,??$?    PUSHJ	1,22042
007535  325000 021561    :H "-Q    5 ?#8    JUMPGE	0,21561
007536  607300 004000    P[  @     al???    TLNN	6,4000
007537  602100 004200    P1  B     `D??@    TRNE	2,4200
007540  254000 021561    5@ "-Q    +??#8    JRST	0,21561
007541  661500 040000    V- $      l4?@?    TLO	12,40000
007542  261040 014710    6(@!G(    ,"??d    PUSH	1,14710
007543  260040 021325    6 @"+5    ,??"j    PUSHJ	1,21325
007544  262040 014710    60@!G(    ,B??d    POP	1,14710
007545  606100 000200    PQ  "     aD??@    TRNN	2,200
007546  606100 004000    PQ  @     aD???    TRNN	2,4000
007547  607300 600000    P[ P      al???    TLNN	6,600000
007550  603300 004000    P;  @     `l???    TLNE	6,4000
007551  254000 021477    5@ ",_    +??#?    JRST	0,21477
007552  254000 021541    5@ "-A    +??#0    JRST	0,21541
007553  260040 021576    6 @"-^    ,??#?    PUSHJ	1,21576
007554  627100 000001    RY   !    ed???    TLZN	2,1
007555  254000 021564    5@ "-T    +??#:    JRST	0,21564
007556  260040 021703    6 @"/#    ,??#a    PUSHJ	1,21703
007557  515400 300000    IL 8      S0???    HRLZI	10,300000
007560  260040 022042    6 @"0B    ,??$?    PUSHJ	1,22042
007561  261040 021565    6(@"-U    ,"?#:    PUSH	1,21565
007562  602000 020000    P0 "      `@? ?    TRNE	0,20000
007563  607100 000002    PY   "    ad???    TLNN	2,2
007564  263040 000000    68@       ,b???    POPJ	1,0
007565  661300 002000    V+  0     l,???    TLO	6,2000
007566  254000 022047    5@ "0G    +??$?    JRST	0,22047
007567  607100 000001    PY   !    ad???    TLNN	2,1
007570  254000 021664    5@ ".T    +??#Z    JRST	0,21664
007571  260040 021703    6 @"/#    ,??#a    PUSHJ	1,21703
007572  515400 340000    IL <      S0?@?    HRLZI	10,340000
007573  254000 021517    5@ "-/    +??#'    JRST	0,21517
007574  623100 000002    R9   "    dd???    TLZE	2,2
007575  001000 554466     ( MDV    ? ?Y?    UUO01	0,554466
007576  603100 000001    P9   !    `d???    TLNE	2,1
007577  603300 020000    P; "      `l? ?    TLNE	6,20000
007600  254000 021561    5@ "-Q    +??#8    JRST	0,21561
007601  254000 021551    5@ "-I    +??#4    JRST	0,21551
007602  661500 040000    V- $      l4?@?    TLO	12,40000
007603  603300 400000    P; @      `l???    TLNE	6,400000
007604  661500 200000    V- 0      l4???    TLO	12,200000
007605  603300 200000    P; 0      `l???    TLNE	6,200000
007606  661500 100000    V- (      l4???    TLO	12,100000
007607  263040 000000    68@       ,b???    POPJ	1,0
007610  603000 200000    P8 0      ``???    TLNE	0,200000
007611  254000 021640    5@ ".@    +??#P    JRST	0,21640
007612  602000 001000    P0  (     `@???    TRNE	0,1000
007613  254000 021643    5@ ".C    +??#Q    JRST	0,21643
007614  200240 014726    0"@!G6     ???k    MOVE	5,14726
007615  270240 014724    7"@!G4    .???j    ADD	5,14724
007616  200200 014723    0" !G3     ???i    MOVE	4,14723
007617  270200 014725    7" !G5    .???j    ADD	4,14725
007620  621100 000114    R)  !,    d$??&    TLZ	2,114
007621  335000 015000    ;H !H     7 ???    SKIPGE	0,15000
007622  500200 015004    H" !H$    P????    HLL	4,15004
007623  263040 000000    68@       ,b???    POPJ	1,0
007624  603000 400000    P8 @      ``???    TLNE	0,400000
007625  001000 605651     ( PNI    ? ??T    UUO01	0,605651
007626  254000 021502    5@ "-"    +??#!    JRST	0,21502
007627  201400 021646    0, ".F     0?#S    MOVEI	10,21646
007630  350000 014704    =  !G$    :???b    AOS	0,14704
007631  254000 021501    5@ "-!    +??#     JRST	0,21501
007632  435545 050000    CME%      G6(P?    IORI	13,50000(5)
007633  603300 004000    P;  @     `l???    TLNE	6,4000
007634  254000 021477    5@ ",_    +??#?    JRST	0,21477
007635  254003 021652    5@#".J    +??#U    JRST	0,21652(3)
007636  254000 021664    5@ ".T    +??#Z    JRST	0,21664
007637  254000 021662    5@ ".R    +??#Y    JRST	0,21662
007640  254000 021657    5@ ".O    +??#W    JRST	0,21657
007641  260040 021703    6 @"/#    ,??#a    PUSHJ	1,21703
007642  254000 021503    5@ "-#    +??#!    JRST	0,21503
007643  260040 021666    6 @".V    ,??#[    PUSHJ	1,21666
007644  515400 240000    IL 4      S0?@?    HRLZI	10,240000
007645  254000 021504    5@ "-$    +??#"    JRST	0,21504
007646  260040 021703    6 @"/#    ,??#a    PUSHJ	1,21703
007647  254000 021521    5@ "-1    +??#(    JRST	0,21521
007650  260040 021666    6 @".V    ,??#[    PUSHJ	1,21666
007651  254000 021477    5@ ",_    +??#?    JRST	0,21477
007652  620100 000010    R!   (    d????    TRZ	2,10
007653  602100 004000    P1  @     `D???    TRNE	2,4000
007654  254000 021701    5@ "/!    +??#`    JRST	0,21701
007655  606000 020000    PP "      a@? ?    TRNN	0,20000
007656  263040 000000    68@       ,b???    POPJ	1,0
007657  336000 014760    ;P !GP    7@??x    SKIPN	0,14760
007660  001000 656367     ( USW    ? ?\{    UUO01	0,656367
007661  332000 014760    ;0 !GP    6@??x    SKIPE	0,14760
007662  001000 656343     ( USC    ? ?\q    UUO01	0,656343
007663  262041 000001    60A  !    ,B???    POP	1,1(1)
007664  254000 021502    5@ "-"    +??#!    JRST	0,21502
007665  000000 000000              ?????    UUO00	0,0
007666  254000 021677    5@ "._    +??#_    JRST	0,21677
007667  261040 000004    6(@  $    ,"???    PUSH	1,4
007670  260040 021364    6 @"+T    ,??"z    PUSHJ	1,21364
007671  201200 000002    0*   "     (???    MOVEI	4,2
007672  260040 022411    6 @"4)    ,??%?    PUSHJ	1,22411
007673  260040 022422    6 @"42    ,??%?    PUSHJ	1,22422
007674  254000 024315    5@ "C-    +??(f    JRST	0,24315
007675  100000 022257    (  "2O    ???$W    XX100	0,22257
007676  400000 015420    @  !L0    @????    SETZ	0,15420
007677  400000 015770    @  !OX    @???|    SETZ	0,15770
007700  200000 015332    0  !K:     ???m    MOVE	0,15332
007701  040123 661115    $!3V)-    ???b&    UUO40	2,@661115(3)
007702  777762 021717    __R"//    ???#g    CONSO	774,@21717(2)
007703  200000 015334    0  !K<     ???n    MOVE	0,15334
007704  400000 016004    @  !P$    @????    SETZ	0,16004
007705  200000 020533    0  "%;     ??!-    MOVE	0,20533
007706  000000 000000              ?????    UUO00	0,0
007707  200000 015235    0  !J=     ???N    MOVE	0,15235
007710  200000 015205    0  !J%     ???B    MOVE	0,15205
007711  100000 022224    (  "24    ???$J    XX100	0,22224
007712  200000 015233    0  !J;     ???M    MOVE	0,15233
007713  400000 015123    @  !I3    @???)    SETZ	0,15123
007714  200000 015267    0  !JW     ???[    MOVE	0,15267
007715  400000 017656    @  !^N    @???W    SETZ	0,17656
007716  400000 015362    @  !KR    @???y    SETZ	0,15362
007717  200000 020305    0  "#%     ?? b    MOVE	0,20305
007720  400000 021145    @  ")E    @??"2    SETZ	0,21145
007721  101742 371574    (/B?-\    ?>?s>    XX101	17,371574(2)
007722  777737 021737    __?"/?    ?}x#o    CONSZ	774,@21737(17)
007723  400000 015455    @  !LM    @????    SETZ	0,15455
007724  200000 020557    0  "%O     ??!7    MOVE	0,20557
007725  200000 015327    0  !K7     ???k    MOVE	0,15327
007726  400000 015367    @  !KW    @???{    SETZ	0,15367
007727  400000 015654    @  !NL    @???V    SETZ	0,15654
007730  400000 015744    @  !OD    @???r    SETZ	0,15744
007731  000000 000000              ?????    UUO00	0,0
007732  100000 022257    (  "2O    ???$W    XX100	0,22257
007733  000000 000000              ?????    UUO00	0,0
007734  211440 063760    1,@&?P    "2?gx    MOVNI	11,63760
007735  477340 014732    G[@!G:    On??m    SETOB	7,14732
007736  200240 000012    0"@  *     ????    MOVE	5,12
007737  621240 740000    R*@\      d*?@?    TLZ	5,740000
007740  651240 000005    U*@  %    j*???    TSC	5,5
007741  217000 000005    1X   %    #`???    MOVMS	0,5
007742  231240 063760    3*@&?P    &*?gx    IDIVI	5,63760
007743  240300 000001    4#   !    (????    ASH	6,1
007744  336246 073110    ;RF'9(    7J0v$    SKIPN	5,73110(6)
007745  254000 022020    5@ "00    +??$?    JRST	0,22020
007746  621240 740000    R*@\      d*?@?    TLZ	5,740000
007747  312240 000012    92@  *    2J???    CAME	5,12
007750  254000 022005    5@ "0%    +??$?    JRST	0,22005
007751  550740 000006    M'@  &    Z????    HRRZ	17,6
007752  241740 777776    4/@__^    (>???    ROT	17,777776
007753  510217 243050    I"/48H    R?zF?    HLLZ	4,243050(17)
007754  335000 000017    ;H   /    7 ???    SKIPGE	0,17
007755  514217 243050    IB/48H    S?zF?    HRLZ	4,243050(17)
007756  200740 000004    0'@  $     ????    MOVE	17,4
007757  621200 777700    R* __     d(??`    TLZ	4,777700
007760  336000 014716    ;P !G.    7@??g    SKIPN	0,14716
007761  322200 022032    :2 "0:    4H?$?    JUMPE	4,22032
007762  317200 014732    9Z !G:    3h??m    CAMG	4,14732
007763  254000 022005    5@ "0%    +??$?    JRST	0,22005
007764  041633 336617    $.;;V/    ?9[=G    UUO41	14,@336617(13)
007765  777711 022000    __)"0     ?|H$?    CONSZ	774,22000(11)
007766  202740 014733    07@!G;     ^??m    MOVEM	17,14733
007767  202200 014732    02 !G:     H??m    MOVEM	4,14732
007770  202300 014734    03 !G<     L??n    MOVEM	6,14734
007771  607740 000400    P_@ $     a~???    TLNN	17,400
007772  254000 022022    5@ "02    +??$?    JRST	0,22022
007773  326240 022010    :R@"0(    5J?$?    JUMPN	5,22010
007774  335000 000007    ;H   '    7 ???    SKIPGE	0,7
007775  200340 000006    0#@  &     ????    MOVE	7,6
007776  271300 000002    7+   "    .,???    ADDI	6,2
007777  301300 147740    8+ ,_@    0,?Op    CAIL	6,147740
010000  201300 000000    0+         ,???    MOVEI	6,0
010001  346440 021760    <T@"/P    9R?#x    AOJN	11,21760
010002  331000 014732    ;( !G:    6 ??m    SKIPL	0,14732
010003  254000 022022    5@ "02    +??$?    JRST	0,22022
010004  325340 022036    :K@"0>    5.?$?    JUMPGE	7,22036
010005  000000 634345       SCE    ???8r    UUO00	0,634345
010006  335000 014732    ;H !G:    7 ??m    SKIPGE	0,14732
010007  254000 022034    5@ "0<    +??$?    JRST	0,22034
010010  200340 014734    0#@!G<     ???n    MOVE	7,14734
010011  200207 073110    0"''9(     ?8v$    MOVE	4,73110(7)
010012  241200 000004    4*   $    ((???    ROT	4,4
010013  405200 000017    @J   /    A(???    ANDI	4,17
010014  200247 073111    0"G'9)     ?8v$    MOVE	5,73111(7)
010015  200300 014733    0# !G;     ???m    MOVE	6,14733
010016  350001 000000    = !       :????    AOS	0,0(1)
010017  263040 000000    68@       ,b???    POPJ	1,0
010020  205200 000100    0J  !     !(??     MOVSI	4,100
010021  254000 022000    5@ "0     +??$?    JRST	0,22000
010022  335000 000007    ;H   '    7 ???    SKIPGE	0,7
010023  200340 000006    0#@  &     ????    MOVE	7,6
010024  202340 014734    03@!G<     N??n    MOVEM	7,14734
010025  263040 000000    68@       ,b???    POPJ	1,0
010026  665300 004000    VK  @     m,???    TLOA	6,4000
010027  200240 014710    0"@!G(     ???d    MOVE	5,14710
010030  200640 000012    0&@  *     ????    MOVE	15,12
010031  621640 740000    R.@\      d:?@?    TLZ	15,740000
010032  434400 000015    CD   -    G????    IOR	10,15
010033  202407 073110    04''9(     P8v$    MOVEM	10,73110(7)
010034  202247 073111    02G'9)     J8v$    MOVEM	5,73111(7)
010035  550740 000007    M'@  '    Z????    HRRZ	17,7
010036  241740 777776    4/@__^    (>???    ROT	17,777776
010037  335000 000017    ;H   /    7 ???    SKIPGE	0,17
010040  546317 243050    LS/48H    YLzF?    HLRM	6,243050(17)
010041  331000 000017    ;(   /    6 ???    SKIPL	0,17
010042  502317 243050    H3/48H    PLzF?    HLLM	6,243050(17)
010043  263040 000000    68@       ,b???    POPJ	1,0
010044  200240 000012    0"@  *     ????    MOVE	5,12
010045  621240 740000    R*@\      d*?@?    TLZ	5,740000
010046  651240 000005    U*@  %    j*???    TSC	5,5
010047  217000 000005    1X   %    #`???    MOVMS	0,5
010050  231240 063760    3*@&?P    &*?gx    IDIVI	5,63760
010051  240300 000001    4#   !    (????    ASH	6,1
010052  263040 000000    68@       ,b???    POPJ	1,0
010053  002200 000000     2        ?H???    UUO02	4,0
010054  002200 000000     2        ?H???    UUO02	4,0
010055  656646 504712    UVFHG*    kZ5?e    TDCN	15,504712(6)
010056  777777 022072    ___"0Z    ??x$?    CONSO	774,@22072(17)
010057  004400 000000     D        ?????    UUO04	10,0
010060  004376 044165     C^$AU    ??pH:    UUO04	7,@44165(16)
010061  777767 022076    __W"0^    ??8$?    CONSO	774,@22076(7)
010062  002200 440000     2 D      ?H?@?    UUO02	4,440000
010063  002200 220044     2 2 D    ?H? ?    UUO02	4,220044
010064  270400 440000    7$ D      .??@?    ADD	10,440000
010065  002227 040044     27$ D    ?I8@?    UUO02	4,@40044(7)
010066  004400 000000     D        ?????    UUO04	10,0
010067  000000 000000              ?????    UUO00	0,0
010070  000022 220000      22      ??? ?    UUO00	0,@220000(2)
010071  002200 002222     2  22    ?H??I    UUO02	4,2222
010072  002200 440000     2 D      ?H?@?    UUO02	4,440000
010073  017625 656275    !^5UR]    ?y.\^    UUO17	14,@656275(5)
010074  776137 022137    _Q?"1?    ?Ex$/    BLKO	760,@22137(17)
010075  260040 017237    6 @!Z?    ,???O    PUSHJ	1,17237
010076  001000 654621     ( UF1    ? ?YH    UUO01	0,654621
010077  261040 000004    6(@  $    ,"???    PUSH	1,4
010100  260040 017237    6 @!Z?    ,???O    PUSHJ	1,17237
010101  001000 654622     ( UF2    ? ?YI    UUO01	0,654622
010102  262040 000005    60@  %    ,B???    POP	1,5
010103  202205 022077    02%"0_     H($?    MOVEM	4,22077(5)
010104  254000 021103    5@ ")#    +??"!    JRST	0,21103
010105  200400 014704    0$ !G$     ???b    MOVE	10,14704
010106  202400 014705    04 !G%     P??b    MOVEM	10,14705
010107  402000 014706    @0 !G&    @@??c    SETZM	0,14706
010110  402000 014710    @0 !G(    @@??d    SETZM	0,14710
010111  402000 014711    @0 !G)    @@??d    SETZM	0,14711
010112  630100 025064    S! "HT    f??*?    TDZ	2,25064
010113  402000 014716    @0 !G.    @@??g    SETZM	0,14716
010114  200400 025065    0$ "HU     ??*?    MOVE	10,25065
010115  202400 014707    04 !G'     P??c    MOVEM	10,14707
010116  260040 015132    6 @!I:    ,???-    PUSHJ	1,15132
010117  201400 000001    0,   !     0???    MOVEI	10,1
010120  200300 014702    0# !G"     ???a    MOVE	6,14702
010121  603300 100000    P; (      `l???    TLNE	6,100000
010122  254006 000000    5@&       +?0??    JRST	0,0(6)
010123  200300 014704    0# !G$     ???b    MOVE	6,14704
010124  202300 014750    03 !GH     L??t    MOVEM	6,14750
010125  606100 000001    PQ   !    aD???    TRNN	2,1
010126  254000 022245    5@ "2E    +??$R    JRST	0,22245
010127  136400 014707    +T !G'    ?P??c    IDPB	10,14707
010130  661100 000400    V)  $     l$???    TLO	2,400
010131  200440 014706    0$@!G&     ???c    MOVE	11,14706
010132  336451 022077    ;TI"0_    7RH$?    SKIPN	11,22077(11)
010133  002000 654655     0 UFM    ?@?YV    UUO02	0,654655
010134  202440 014706    04@!G&     R??c    MOVEM	11,14706
010135  200400 025066    0$ "HV     ??*?    MOVE	10,25066
010136  202400 014707    04 !G'     P??c    MOVEM	10,14707
010137  135400 014707    +L !G'    ?0??c    LDB	10,14707
010140  200340 014716    0#@!G.     ???g    MOVE	7,14716
010141  307340 000002    8[@  "    1n???    CAIG	7,2
010142  133000 014707    +8 !G'    ?`??c    IBP	0,14707
010143  260040 022275    6 @"2]    ,??$^    PUSHJ	1,22275
010144  375000 014716    ?H !G.    ? ??g    SOSGE	0,14716
010145  254000 022215    5@ "2-    +??$F    JRST	0,22215
010146  262040 014705    60@!G%    ,B??b    POP	1,14705
010147  262040 014704    60@!G$    ,B??b    POP	1,14704
010150  262040 000005    60@  %    ,B???    POP	1,5
010151  262040 000004    60@  $    ,B???    POP	1,4
010152  254000 022201    5@ "2!    +??$@    JRST	0,22201
010153  200200 014710    0" !G(     ???d    MOVE	4,14710
010154  200240 014711    0"@!G)     ???d    MOVE	5,14711
010155  200300 014750    0# !GH     ???t    MOVE	6,14750
010156  202300 014704    03 !G$     L??b    MOVEM	6,14704
010157  620100 000400    R!  $     d????    TRZ	2,400
010160  263040 000000    68@       ,b???    POPJ	1,0
010161  262040 000004    60@  $    ,B???    POP	1,4
010162  606100 000001    PQ   !    aD???    TRNN	2,1
010163  254000 022255    5@ "2M    +??$V    JRST	0,22255
010164  136400 014707    +T !G'    ?P??c    IDPB	10,14707
010165  136400 014707    +T !G'    ?P??c    IDPB	10,14707
010166  261040 000004    6(@  $    ,"???    PUSH	1,4
010167  261040 000005    6(@  %    ,"???    PUSH	1,5
010170  261040 014704    6(@!G$    ,"??b    PUSH	1,14704
010171  261040 014705    6(@!G%    ,"??b    PUSH	1,14705
010172  350000 014716    =  !G.    :???g    AOS	0,14716
010173  200440 014704    0$@!G$     ???b    MOVE	11,14704
010174  202440 014705    04@!G%     R??b    MOVEM	11,14705
010175  550400 014707    M$ !G'    Z???c    HRRZ	10,14707
010176  306400 014706    8T !G&    1P??c    CAIN	10,14706
010177  254000 022160    5@ "1P    +??$8    JRST	0,22160
010200  515400 440000    IL D      S0?@?    HRLZI	10,440000
010201  502400 014707    H4 !G'    PP??c    HLLM	10,14707
010202  254000 022160    5@ "1P    +??$8    JRST	0,22160
010203  336000 014706    ;P !G&    7@??c    SKIPN	0,14706
010204  263040 000000    68@       ,b???    POPJ	1,0
010205  370000 014716    ?  !G.    >???g    SOS	0,14716
010206  262040 014705    60@!G%    ,B??b    POP	1,14705
010207  262040 014704    60@!G$    ,B??b    POP	1,14704
010210  262040 000005    60@  %    ,B???    POP	1,5
010211  262040 000004    60@  $    ,B???    POP	1,4
010212  254000 022172    5@ "1Z    +??$=    JRST	0,22172
010213  133000 014707    +8 !G'    ?`??c    IBP	0,14707
010214  254000 022227    5@ "27    +??$K    JRST	0,22227
010215  261040 000004    6(@  $    ,"???    PUSH	1,4
010216  260040 016145    6 @!QE    ,???2    PUSHJ	1,16145
010217  302200 000011    82   )    0H???    CAIE	4,11
010220  306200 000040    8R   @    1H???    CAIN	4,40
010221  254000 022260    5@ "2P    +??$X    JRST	0,22260
010222  306200 000054    8R   L    1H???    CAIN	4,54
010223  254000 022223    5@ "23    +??$I    JRST	0,22223
010224  262040 000004    60@  $    ,B???    POP	1,4
010225  661100 002000    V)  0     l$???    TLO	2,2000
010226  606100 000001    PQ   !    aD???    TRNN	2,1
010227  254000 022160    5@ "1P    +??$8    JRST	0,22160
010230  136400 014707    +T !G'    ?P??c    IDPB	10,14707
010231  133000 014707    +8 !G'    ?`??c    IBP	0,14707
010232  254000 022230    5@ "28    +??$L    JRST	0,22230
010233  602100 000400    P1  $     `D???    TRNE	2,400
010234  254000 022302    5@ "3"    +??$a    JRST	0,22302
010235  200440 014705    0$@!G%     ???b    MOVE	11,14705
010236  316440 014704    9T@!G$    3R??b    CAMN	11,14704
010237  322240 022321    :2@"31    4J?$h    JUMPE	5,22321
010240  306400 002222    8T  22    1P??I    CAIN	10,2222
010241  254000 022340    5@ "3@    +??$p    JRST	0,22340
010242  306400 000022    8T   2    1P???    CAIN	10,22
010243  254000 022355    5@ "3M    +??$v    JRST	0,22355
010244  306400 000044    8T   D    1P???    CAIN	10,44
010245  254000 022347    5@ "3G    +??$s    JRST	0,22347
010246  332000 000005    ;0   %    6@???    SKIPE	0,5
010247  002000 516254     0 IRL    ?@??V    UUO02	0,516254
010250  306400 002704    8T  7$    1P??b    CAIN	10,2704
010251  254000 022361    5@ "3Q    +??$x    JRST	0,22361
010252  306400 000504    8T  %$    1P??"    CAIN	10,504
010253  254000 022360    5@ "3P    +??$x    JRST	0,22360
010254  325000 022321    :H "31    5 ?$h    JUMPGE	0,22321
010255  312440 014704    94@!G$    2R??b    CAME	11,14704
010256  002000 514763     0 IGS    ?@??y    UUO02	0,514763
010257  201440 060000    0,@&       2?`?    MOVEI	11,60000
010260  245400 777764    4L __T    )0??z    ROTC	10,777764
010261  201300 000000    0+         ,???    MOVEI	6,0
010262  137200 000011    +Z   )    ?h???    DPB	4,11
010263  200200 000006    0"   &     ????    MOVE	4,6
010264  316440 025067    9T@"HW    3R?*?    CAMN	11,25067
010265  254000 022335    5@ "3=    +??$n    JRST	0,22335
010266  272200 014710    72 !G(    .H??d    ADDM	4,14710
010267  200200 014711    0" !G)     ???d    MOVE	4,14711
010270  260040 015110    6 @!I(    ,???$    PUSHJ	1,15110
010271  202200 014711    02 !G)     H??d    MOVEM	4,14711
010272  263040 000000    68@       ,b???    POPJ	1,0
010273  270200 014710    7" !G(    .???d    ADD	4,14710
010274  542200 014710    L2 !G(    XH??d    HRRM	4,14710
010275  254000 022331    5@ "39    +??$l    JRST	0,22331
010276  514340 000005    IC@  %    S????    HRLZ	7,5
010277  515240 200000    IJ@0      S*???    HRLZI	5,200000
010300  261040 000010    6(@  (    ,"???    PUSH	1,10
010301  515300 100000    IK (      S,???    HRLZI	6,100000
010302  260040 015100    6 @!I     ,???     PUSHJ	1,15100
010303  200240 000007    0"@  '     ????    MOVE	5,7
010304  262040 000010    60@  (    ,B???    POP	1,10
010305  200340 014705    0#@!G%     ???b    MOVE	7,14705
010306  525540 377777    JM@?__    U6???    HRLOI	13,377777
010307  311340 014704    9+@!G$    2.??b    CAML	7,14704
010310  254000 022321    5@ "31    +??$h    JRST	0,22321
010311  406547 000001    @UG  !    AV8??    ANDM	13,1(7)
010312  344340 022351    <C@"3I    9??$t    AOJA	7,22351
010313  550340 000005    M#@  %    Z????    HRRZ	7,5
010314  201240 000000    0*@        *???    MOVEI	5,0
010315  254000 022342    5@ "3B    +??$q    JRST	0,22342
010316  634240 000005    SB@  %    g????    TDZA	5,5
010317  515240 200000    IJ@0      S*???    HRLZI	5,200000
010320  602100 000400    P1  $     `D???    TRNE	2,400
010321  242200 000001    42   !    (H???    LSH	4,1
010322  602100 000400    P1  $     `D???    TRNE	2,400
010323  271400 000006    7,   &    .0???    ADDI	10,6
010324  515300 040000    IK $      S,?@?    HRLZI	6,40000
010325  261040 000010    6(@  (    ,"???    PUSH	1,10
010326  260040 015100    6 @!I     ,???     PUSHJ	1,15100
010327  201240 000000    0*@        *???    MOVEI	5,0
010330  254000 022346    5@ "3F    +??$s    JRST	0,22346
010331  261040 000004    6(@  $    ,"???    PUSH	1,4
010332  201200 000014    0*   ,     (???    MOVEI	4,14
010333  202200 014720    02 !G0     H??h    MOVEM	4,14720
010334  200200 025053    0" "HK     ??*?    MOVE	4,25053
010335  202200 014767    02 !GW     H??{    MOVEM	4,14767
010336  200200 014717    0" !G/     ???g    MOVE	4,14717
010337  202220 014721    020!G1     I??h    MOVEM	4,@14721
010340  350200 014727    =" !G7    :???k    AOS	4,14727
010341  606000 000400    PP  $     a@???    TRNN	0,400
010342  374000 000004    ?@   $    ?????    SOSA	0,4
010343  660000 004000    V   @     l????    TRO	0,4000
010344  552200 014721    M2 !G1    ZH??h    HRRZM	4,14721
010345  262040 000004    60@  $    ,B???    POP	1,4
010346  402000 014717    @0 !G/    @@??g    SETZM	0,14717
010347  332000 014735    ;0 !G=    6@??n    SKIPE	0,14735
010350  263040 000000    68@       ,b???    POPJ	1,0
010351  375000 014720    ?H !G0    ? ??h    SOSGE	0,14720
010352  254000 022373    5@ "3[    +??$}    JRST	0,22373
010353  620000 000400    R   $     d????    TRZ	0,400
010354  306200 000007    8R   '    1H???    CAIN	4,7
010355  660000 000400    V   $     l????    TRO	0,400
010356  136200 014767    +R !GW    ?H??{    IDPB	4,14767
010357  263040 000000    68@       ,b???    POPJ	1,0
010360  334200 000012    ;B   *    7????    SKIPA	4,12
010361  200200 014710    0" !G(     ???d    MOVE	4,14710
010362  332000 014735    ;0 !G=    6@??n    SKIPE	0,14735
010363  263040 000000    68@       ,b???    POPJ	1,0
010364  261040 000003    6(@  #    ,"???    PUSH	1,3
010365  200140 014727    0!@!G7     ???k    MOVE	3,14727
010366  626000 004000    RP  @     e@???    TRZN	0,4000
010367  350000 000003    =    #    :????    AOS	0,3
010370  202203 777777    02#___     H???    MOVEM	4,777777(3)
010371  200200 014723    0" !G3     ???i    MOVE	4,14723
010372  622000 400000    R0 @      d@???    TRZE	0,400000
010373  542200 066023    L2 &P3    XH?l?    HRRM	4,66023
010374  262040 000003    60@  #    ,B???    POP	1,3
010375  350200 014727    =" !G7    :???k    AOS	4,14727
010376  301200 066062    8* &PR    0(?l?    CAIL	4,66062
010377  602100 001000    P1  (     `D???    TRNE	2,1000
010400  263040 000000    68@       ,b???    POPJ	1,0
010401  261040 000010    6(@  (    ,"???    PUSH	1,10
010402  261040 000011    6(@  )    ,"???    PUSH	1,11
010403  261040 000004    6(@  $    ,"???    PUSH	1,4
010404  261040 000005    6(@  %    ,"???    PUSH	1,5
010405  200400 014735    0$ !G=     ???n    MOVE	10,14735
010406  322400 022454    :4 "4L    4P?%?    JUMPE	10,22454
010407  606400 000010    PT   (    aP???    TRNN	10,10
010410  254000 022513    5@ "5+    +??%%    JRST	0,22513
010411  254000 023005    5@ "8%    +??&?    JRST	0,23005
010412  200400 014717    0$ !G/     ???g    MOVE	10,14717
010413  202420 014721    040!G1     Q??h    MOVEM	10,@14721
010414  201400 014721    0, !G1     0??h    MOVEI	10,14721
010415  202400 014721    04 !G1     P??h    MOVEM	10,14721
010416  200400 025053    0$ "HK     ??*?    MOVE	10,25053
010417  202400 014767    04 !GW     P??{    MOVEM	10,14767
010420  403440 014720    @<@!G0    @r??h    SETZB	11,14720
010421  402000 014717    @0 !G/    @@??g    SETZM	0,14717
010422  201400 066023    0, &P3     0?l?    MOVEI	10,66023
010423  200240 014727    0"@!G7     ???k    MOVE	5,14727
010424  275240 066024    7J@&P4    /*?l?    SUBI	5,66024
010425  137240 025070    +Z@"HX    ?j?*?    DPB	5,25070
010426  602000 400000    P0 @      `@???    TRNE	0,400000
010427  323240 022512    ::@"5*    4j?%%    JUMPLE	5,22512
010430  620000 100000    R  (      d????    TRZ	0,100000
010431  260040 025006    6 @"H&    ,??*?    PUSHJ	1,25006
010432  311400 014727    9, !G7    20??k    CAML	10,14727
010433  254000 022504    5@ "5$    +??%"    JRST	0,22504
010434  200210 000000    0"(        ?@??    MOVE	4,0(10)
010435  255200 022500    5J "5     +(?%     JFCL	4,22500
010436  270440 000004    7$@  $    .????    ADD	11,4
010437  255200 025071    5J "HY    +(?*?    JFCL	4,25071
010440  260040 025010    6 @"H(    ,??*?    PUSHJ	1,25010
010441  344400 022474    <D "4\    9??%?    AOJA	10,22474
010442  460200 000011    F"   )    L????    SETCM	4,11
010443  260040 025010    6 @"H(    ,??*?    PUSHJ	1,25010
010444  200400 014737    0$ !G?     ???o    MOVE	10,14737
010445  137400 025061    +\ "HQ    ?p?*?    DPB	10,25061
010446  201400 066024    0, &P4     0?l?    MOVEI	10,66024
010447  202400 014727    04 !G7     P??k    MOVEM	10,14727
010450  660000 400000    V  @      l????    TRO	0,400000
010451  262040 000005    60@  %    ,B???    POP	1,5
010452  262040 000004    60@  $    ,B???    POP	1,4
010453  262040 000011    60@  )    ,B???    POP	1,11
010454  262040 000010    60@  (    ,B???    POP	1,10
010455  263040 000000    68@       ,b???    POPJ	1,0
010456  336000 014735    ;P !G=    7@??n    SKIPN	0,14735
010457  626000 100000    RP (      e@???    TRZN	0,100000
010460  263040 000000    68@       ,b???    POPJ	1,0
010461  620000 400000    R  @      d????    TRZ	0,400000
010462  254000 022443    5@ "4C    +??%?    JRST	0,22443
010463  664000 002000    V@  0     m????    TROA	0,2000
010464  620000 002000    R   0     d????    TRZ	0,2000
010465  325000 023742    :H "?B    5 ?'q    JUMPGE	0,23742
010466  332540 014735    ;5@!G=    6V??n    SKIPE	13,14735
010467  254000 022737    5@ "7?    +??%o    JRST	0,22737
010470  260040 022721    6 @"71    ,??%h    PUSHJ	1,22721
010471  200200 014705    0" !G%     ???b    MOVE	4,14705
010472  316200 014704    9R !G$    3H??b    CAMN	4,14704
010473  254000 022714    5@ "7,    +??%f    JRST	0,22714
010474  514240 014710    IB@!G(    S???d    HRLZ	5,14710
010475  540240 014711    L"@!G)    X???d    HRR	5,14711
010476  326240 022713    :R@"7+    5J?%e    JUMPN	5,22713
010477  201400 000000    0,         0???    MOVEI	10,0
010500  311200 014704    9* !G$    2(??b    CAML	4,14704
010501  254000 022574    5@ "5\    +??%>    JRST	0,22574
010502  550444 000001    M$D  !    Z? ??    HRRZ	11,1(4)
010503  322440 022566    :4@"5V    4R?%;    JUMPE	11,22566
010504  135440 025072    +L@"HZ    ?2?*?    LDB	11,25072
010505  302440 000006    84@  &    0R???    CAIE	11,6
010506  306440 000010    8T@  (    1R???    CAIN	11,10
010507  254000 022713    5@ "7+    +??%e    JRST	0,22713
010510  554444 000001    MDD  !    [? ??    HLRZ	11,1(4)
010511  606000 003000    PP  8     a@???    TRNN	0,3000
010512  602440 001777    P4@ /_    `R???    TRNE	11,1777
010513  254000 022713    5@ "7+    +??%e    JRST	0,22713
010514  336000 014774    ;P !G\    7@??~    SKIPN	0,14774
010515  602440 020000    P4@"      `R? ?    TRNE	11,20000
010516  254000 022713    5@ "7+    +??%e    JRST	0,22713
010517  602440 100000    P4@(      `R???    TRNE	11,100000
010520  254000 022567    5@ "5W    +??%;    JRST	0,22567
010521  602440 040000    P4@$      `R?@?    TRNE	11,40000
010522  606440 200000    PT@0      aR???    TRNN	11,200000
010523  254000 022713    5@ "7+    +??%e    JRST	0,22713
010524  344200 022542    <B "5B    9??%1    AOJA	4,22542
010525  602440 200000    P4@0      `R???    TRNE	11,200000
010526  344200 022542    <B "5B    9??%1    AOJA	4,22542
010527  201344 000001    0+D  !     . ??    MOVEI	7,1(4)
010530  350000 000010    =    (    :????    AOS	0,10
010531  344200 022542    <B "5B    9??%1    AOJA	4,22542
010532  366400 022713    >T "7+    =P?%e    SOJN	10,22713
010533  550407 000000    M$'       Z?8??    HRRZ	10,0(7)
010534  301400 243050    8, 48H    00?F?    CAIL	10,243050
010535  254000 022713    5@ "7+    +??%e    JRST	0,22713
010536  261040 000010    6(@  (    ,"???    PUSH	1,10
010537  313340 014704    9;@!G$    2n??b    CAMLE	7,14704
010540  254000 022606    5@ "6&    +??%C    JRST	0,22606
010541  200207 000001    0"'  !     ?8??    MOVE	4,1(7)
010542  202207 000000    02'        H8??    MOVEM	4,0(7)
010543  344340 022601    <C@"6!    9??%@    AOJA	7,22601
010544  370000 014704    ?  !G$    >???b    SOS	0,14704
010545  260040 022650    6 @"6H    ,??%T    PUSHJ	1,22650
010546  262040 000007    60@  '    ,B???    POP	1,7
010547  201747 704670    0/GXFX     >??\    MOVEI	17,704670(7)
010550  241740 777776    4/@__^    (>???    ROT	17,777776
010551  510217 243050    I"/48H    R?zF?    HLLZ	4,243050(17)
010552  335000 000017    ;H   /    7 ???    SKIPGE	0,17
010553  514217 243050    IB/48H    S?zF?    HRLZ	4,243050(17)
010554  135200 025073    +J "H[    ?(?*?    LDB	4,25073
010555  200240 014711    0"@!G)     ???d    MOVE	5,14711
010556  603240 000001    P:@  !    `j???    TLNE	5,1
010557  660200 000002    V"   "    l????    TRO	4,2
010560  260040 022411    6 @"4)    ,??%?    PUSHJ	1,22411
010561  544207 000001    LB'  !    Y?8??    HLR	4,1(7)
010562  500200 014710    H" !G(    P???d    HLL	4,14710
010563  260040 022424    6 @"44    ,??%?    PUSHJ	1,22424
010564  200200 014723    0" !G3     ???i    MOVE	4,14723
010565  506207 000001    HR'  !    QH8??    HRLM	4,1(7)
010566  200200 014724    0" !G4     ???j    MOVE	4,14724
010567  201747 704670    0/GXFX     >??\    MOVEI	17,704670(7)
010570  241740 777776    4/@__^    (>???    ROT	17,777776
010571  510257 243050    I"O48H    R?zF?    HLLZ	5,243050(17)
010572  335000 000017    ;H   /    7 ???    SKIPGE	0,17
010573  514257 243050    IBO48H    S?zF?    HRLZ	5,243050(17)
010574  621240 100000    R*@(      d*???    TLZ	5,100000
010575  322200 022641    :2 "6A    4H?%P    JUMPE	4,22641
010576  661240 100000    V*@(      l*???    TLO	5,100000
010577  201747 704670    0/GXFX     >??\    MOVEI	17,704670(7)
010600  241740 777776    4/@__^    (>???    ROT	17,777776
010601  335000 000017    ;H   /    7 ???    SKIPGE	0,17
010602  546257 243050    LRO48H    YJzF?    HLRM	5,243050(17)
010603  331000 000017    ;(   /    6 ???    SKIPL	0,17
010604  502257 243050    H2O48H    PJzF?    HLLM	5,243050(17)
010605  263040 000000    68@       ,b???    POPJ	1,0
010606  200400 014705    0$ !G%     ???b    MOVE	10,14705
010607  311400 014704    9, !G$    20??b    CAML	10,14704
010610  263040 000000    68@       ,b???    POPJ	1,0
010611  200250 000001    0"H  !     ?@??    MOVE	5,1(10)
010612  606240 777777    PR@___    aJ???    TRNN	5,777777
010613  344400 022651    <D "6I    9??%T    AOJA	10,22651
010614  603240 001777    P:@ /_    `j???    TLNE	5,1777
010615  254000 022703    5@ "7#    +??%a    JRST	0,22703
010616  135200 025074    +J "H\    ?(?*?    LDB	4,25074
010617  660200 000004    V"   $    l????    TRO	4,4
010620  260040 022411    6 @"4)    ,??%?    PUSHJ	1,22411
010621  200205 000000    0"%        ?(??    MOVE	4,0(5)
010622  554300 000004    MC   $    [????    HLRZ	6,4
010623  621200 740000    R* \      d(?@?    TLZ	4,740000
010624  301300 300000    8+ 8      0,???    CAIL	6,300000
010625  661200 040000    V* $      l(?@?    TLO	4,40000
010626  603240 200000    P:@0      `j???    TLNE	5,200000
010627  661200 400000    V* @      l(???    TLO	4,400000
010630  603240 040000    P:@$      `j?@?    TLNE	5,40000
010631  254000 022711    5@ "7)    +??%d    JRST	0,22711
010632  607240 100000    PZ@(      aj???    TLNN	5,100000
010633  254000 022701    5@ "7!    +??%`    JRST	0,22701
010634  661200 100000    V* (      l(???    TLO	4,100000
010635  603240 200000    P:@0      `j???    TLNE	5,200000
010636  641200 300000    T* 8      h(???    TLC	4,300000
010637  260040 022424    6 @"44    ,??%?    PUSHJ	1,22424
010640  344400 022651    <D "6I    9??%T    AOJA	10,22651
010641  260040 021364    6 @"+T    ,??"z    PUSHJ	1,21364
010642  201200 000005    0*   %     (???    MOVEI	4,5
010643  260040 022411    6 @"4)    ,??%?    PUSHJ	1,22411
010644  135200 025075    +J "H]    ?(?*?    LDB	4,25075
010645  260040 022424    6 @"44    ,??%?    PUSHJ	1,22424
010646  254000 022660    5@ "6P    +??%X    JRST	0,22660
010647  661200 300000    V* 8      l(???    TLO	4,300000
010650  254000 022701    5@ "7!    +??%`    JRST	0,22701
010651  260040 022650    6 @"6H    ,??%T    PUSHJ	1,22650
010652  260040 022721    6 @"71    ,??%h    PUSHJ	1,22721
010653  550200 000005    M"   %    Z????    HRRZ	4,5
010654  137300 025076    +[ "H^    ?l?*?    DPB	6,25076
010655  260040 022411    6 @"4)    ,??%?    PUSHJ	1,22411
010656  254000 022423    5@ "43    +??%?    JRST	0,22423
010657  550240 014711    M"@!G)    Z???d    HRRZ	5,14711
010660  554300 014711    MC !G)    [???d    HLRZ	6,14711
010661  302240 000001    82@  !    0J???    CAIE	5,1
010662  326240 022730    :R@"78    5J?%l    JUMPN	5,22730
010663  302300 000001    83   !    0L???    CAIE	6,1
010664  326300 022730    :S "78    5L?%l    JUMPN	6,22730
010665  263040 000000    68@       ,b???    POPJ	1,0
010666  001000 516243     ( IRC    ? ??Q    UUO01	0,516243
010667  263040 000000    68@       ,b???    POPJ	1,0
010670  201400 000000    0,         0???    MOVEI	10,0
010671  137300 025077    +[ "H_    ?l?*?    DPB	6,25077
010672  137240 025100    +Z@"I     ?j?*     DPB	5,25100
010673  200300 000010    0#   (     ????    MOVE	6,10
010674  263040 000000    68@       ,b???    POPJ	1,0
010675  200200 014704    0" !G$     ???b    MOVE	4,14704
010676  312200 014705    92 !G%    2H??b    CAME	4,14705
010677  002000 515441     0 ILA    ?@???    UUO02	0,515441
010700  332000 014711    ;0 !G)    6@??d    SKIPE	0,14711
010701  002000 516241     0 IRA    ?@??P    UUO02	0,516241
010702  602540 000002    P5@  "    `V???    TRNE	13,2
010703  254000 023010    5@ "8(    +??&?    JRST	0,23010
010704  602540 000004    P5@  $    `V???    TRNE	13,4
010705  254000 023015    5@ "8-    +??&?    JRST	0,23015
010706  200200 014710    0" !G(     ???d    MOVE	4,14710
010707  202220 014727    020!G7     I??k    MOVEM	4,@14727
010710  200200 014723    0" !G3     ???i    MOVE	4,14723
010711  622000 400000    R0 @      d@???    TRZE	0,400000
010712  202200 066023    02 &P3     H?l?    MOVEM	4,66023
010713  350200 014727    =" !G7    :???k    AOS	4,14727
010714  305200 066062    8J &PR    1(?l?    CAIGE	4,66062
010715  263040 000000    68@       ,b???    POPJ	1,0
010716  275200 066024    7J &P4    /(?l?    SUBI	4,66024
010717  322200 023742    :2 "?B    4H?'q    JUMPE	4,23742
010720  213000 000004    18   $    "`???    MOVNS	0,4
010721  506200 066023    HR &P3    QH?l?    HRLM	4,66023
010722  260040 025006    6 @"H&    ,??*?    PUSHJ	1,25006
010723  201400 066023    0, &P3     0?l?    MOVEI	10,66023
010724  402000 014741    @0 !GA    @@??p    SETZM	0,14741
010725  311400 014727    9, !G7    20??k    CAML	10,14727
010726  254000 023000    5@ "8     +??&?    JRST	0,23000
010727  200200 014741    0" !GA     ???p    MOVE	4,14741
010730  241200 000001    4*   !    ((???    ROT	4,1
010731  270210 000000    7"(       .?@??    ADD	4,0(10)
010732  202200 014741    02 !GA     H??p    MOVEM	4,14741
010733  200210 000000    0"(        ?@??    MOVE	4,0(10)
010734  260040 025010    6 @"H(    ,??*?    PUSHJ	1,25010
010735  344400 022767    <D "7W    9??%{    AOJA	10,22767
010736  660000 400000    V  @      l????    TRO	0,400000
010737  201200 066024    0* &P4     (?l?    MOVEI	4,66024
010740  202200 014727    02 !G7     H??k    MOVEM	4,14727
010741  200200 014741    0" !GA     ???p    MOVE	4,14741
010742  254000 025010    5@ "H(    +??*?    JRST	0,25010
010743  200200 014727    0" !G7     ???k    MOVE	4,14727
010744  260040 022760    6 @"7P    ,??%x    PUSHJ	1,22760
010745  254000 022512    5@ "5*    +??%%    JRST	0,22512
010746  205200 710440    0J Y$@    !(???    MOVSI	4,710440
010747  540200 014723    L" !G3    X???i    HRR	4,14723
010750  260040 025010    6 @"H(    ,??*?    PUSHJ	1,25010
010751  200200 014710    0" !G(     ???d    MOVE	4,14710
010752  254000 025010    5@ "H(    +??*?    JRST	0,25010
010753  205200 541740    0J L/@    !(?Cp    MOVSI	4,541740
010754  540200 014710    L" !G(    X???d    HRR	4,14710
010755  260040 025010    6 @"H(    ,??*?    PUSHJ	1,25010
010756  205200 542740    0J L7@    !(?Ep    MOVSI	4,542740
010757  540200 014723    L" !G3    X???i    HRR	4,14723
010760  260040 025010    6 @"H(    ,??*?    PUSHJ	1,25010
010761  205200 541740    0J L/@    !(?Cp    MOVSI	4,541740
010762  544200 014710    LB !G(    Y???d    HLR	4,14710
010763  260040 025010    6 @"H(    ,??*?    PUSHJ	1,25010
010764  205200 506740    0J HW@    !(??p    MOVSI	4,506740
010765  540200 014723    L" !G3    X???i    HRR	4,14723
010766  254000 025010    5@ "H(    +??*?    JRST	0,25010
010767  334200 025101    ;B "I!    7??*     SKIPA	4,25101
010770  201200 000005    0*   %     (???    MOVEI	4,5
010771  542200 023063    L2 "8S    XH?&?    HRRM	4,23063
010772  402000 023071    @0 "8Y    @@?&?    SETZM	0,23071
010773  260040 022443    6 @"4C    ,??%?    PUSHJ	1,22443
010774  260040 015410    6 @!L(    ,????    PUSHJ	1,15410
010775  606100 000002    PQ   "    aD???    TRNN	2,2
010776  254000 023046    5@ "8F    +??&?    JRST	0,23046
010777  434500 023071    CE "8Y    G??&?    IOR	12,23071
011000  661500 040000    V- $      l4?@?    TLO	12,40000
011001  260040 022422    6 @"42    ,??%?    PUSHJ	1,22422
011002  205200 400000    0J @      !(???    MOVSI	4,400000
011003  412200 023071    A2 "8Y    BH?&?    ANDCAM	4,23071
011004  200240 014742    0"@!GB     ???q    MOVE	5,14742
011005  302240 000012    82@  *    0J???    CAIE	5,12
011006  306240 000015    8R@  -    1J???    CAIN	5,15
011007  254000 023063    5@ "8S    +??&?    JRST	0,23063
011010  200200 023071    0" "8Y     ??&?    MOVE	4,23071
011011  306240 000054    8R@  L    1J???    CAIN	5,54
011012  205200 400000    0J @      !(???    MOVSI	4,400000
011013  306240 000053    8R@  K    1J???    CAIN	5,53
011014  621200 200000    R* 0      d(???    TLZ	4,200000
011015  306240 000055    8R@  M    1J???    CAIN	5,55
011016  661200 200000    V* 0      l(???    TLO	4,200000
011017  202200 023071    02 "8Y     H?&?    MOVEM	4,23071
011020  254000 023036    5@ "8>    +??&?    JRST	0,23036
011021  201200 000005    0*   %     (???    MOVEI	4,5
011022  137200 025061    +Z "HQ    ?h?*?    DPB	4,25061
011023  260040 022443    6 @"4C    ,??%?    PUSHJ	1,22443
011024  302200 000011    82   )    0H???    CAIE	4,11
011025  254000 024360    5@ "CP    +??(x    JRST	0,24360
011026  254000 023117    5@ "9/    +??&'    JRST	0,23117
011027  000000 000000              ?????    UUO00	0,0
011030  260040 022443    6 @"4C    ,??%?    PUSHJ	1,22443
011031  201200 000012    0*   *     (???    MOVEI	4,12
011032  137200 025061    +Z "HQ    ?h?*?    DPB	4,25061
011033  620000 400000    R  @      d????    TRZ	0,400000
011034  260040 022443    6 @"4C    ,??%?    PUSHJ	1,22443
011035  375000 014774    ?H !G\    ? ??~    SOSGE	0,14774
011036  402000 014774    @0 !G\    @@??~    SETZM	0,14774
011037  254000 021103    5@ ")#    +??"!    JRST	0,21103
011040  242240 777745    42@__E    (J??r    LSH	5,777745
011041  261040 000005    6(@  %    ,"???    PUSH	1,5
011042  260040 022443    6 @"4C    ,??%?    PUSHJ	1,22443
011043  200200 025102    0" "I"     ??*!    MOVE	4,25102
011044  202200 021701    02 "/!     H?#`    MOVEM	4,21701
011045  660100 004000    V!  @     l????    TRO	2,4000
011046  260040 022147    6 @"1G    ,??$3    PUSHJ	1,22147
011047  262040 000005    60@  %    ,B???    POP	1,5
011050  137240 025103    +Z@"I#    ?j?*!    DPB	5,25103
011051  201200 000005    0*   %     (???    MOVEI	4,5
011052  260040 023167    6 @"9W    ,??&;    PUSHJ	1,23167
011053  201200 000000    0*         (???    MOVEI	4,0
011054  137200 025103    +Z "I#    ?h?*!    DPB	4,25103
011055  350000 014774    =  !G\    :???~    AOS	0,14774
011056  254000 021103    5@ ")#    +??"!    JRST	0,21103
011057  260040 020373    6 @"#[    ,?? }    PUSHJ	1,20373
011060  260040 020005    6 @" %    ,?? ?    PUSHJ	1,20005
011061  336200 014735    ;R !G=    7H??n    SKIPN	4,14735
011062  260040 023244    6 @":D    ,??&R    PUSHJ	1,23244
011063  606000 020000    PP "      a@? ?    TRNN	0,20000
011064  606000 040000    PP $      a@?@?    TRNN	0,40000
011065  254000 023224    5@ ":4    +??&J    JRST	0,23224
011066  260040 022147    6 @"1G    ,??$3    PUSHJ	1,22147
011067  254000 021141    5@ ")A    +??"0    JRST	0,21141
011070  550200 014723    M" !G3    Z???i    HRRZ	4,14723
011071  542200 066023    L2 &P3    XH?l?    HRRM	4,66023
011072  620000 400000    R  @      d????    TRZ	0,400000
011073  260040 022443    6 @"4C    ,??%?    PUSHJ	1,22443
011074  201200 000001    0*   !     (???    MOVEI	4,1
011075  260040 023167    6 @"9W    ,??&;    PUSHJ	1,23167
011076  254000 023241    5@ ":A    +??&P    JRST	0,23241
011077  542200 021141    L2 ")A    XH?"0    HRRM	4,21141
011100  321000 023147    :( "9G    4 ?&3    JUMPL	0,23147
011101  670000 025104    W  "I$    n??*"    TDO	0,25104
011102  620000 001000    R   (     d????    TRZ	0,1000
011103  260040 021035    6 @"(=    ,??"?    PUSHJ	1,21035
011104  254000 021103    5@ ")#    +??"!    JRST	0,21103
011105  205200 714020    0J Y@0    !(???    MOVSI	4,714020
011106  200504 073110    0%$'9(     ? v$    MOVE	12,73110(4)
011107  135240 025105    +J@"I%    ?*?*"    LDB	5,25105
011110  302240 000003    82@  #    0J???    CAIE	5,3
011111  254000 023164    5@ "9T    +??&:    JRST	0,23164
011112  550740 000004    M'@  $    Z????    HRRZ	17,4
011113  241740 777776    4/@__^    (>???    ROT	17,777776
011114  510317 243050    I#/48H    R?zF?    HLLZ	6,243050(17)
011115  335000 000017    ;H   /    7 ???    SKIPGE	0,17
011116  514317 243050    IC/48H    S?zF?    HRLZ	6,243050(17)
011117  621500 740000    R- \      d4?@?    TLZ	12,740000
011120  607300 004000    P[  @     al???    TLNN	6,4000
011121  001000 656367     ( USW    ? ?\{    UUO01	0,656367
011122  350000 000004    =    $    :????    AOS	0,4
011123  253200 023150    5: "9H    *h?&4    AOBJN	4,23150
011124  254000 021141    5@ ")A    +??"0    JRST	0,21141
011125  620000 400000    R  @      d????    TRZ	0,400000
011126  542200 066023    L2 &P3    XH?l?    HRRM	4,66023
011127  201200 000001    0*   !     (???    MOVEI	4,1
011130  137200 025061    +Z "HQ    ?h?*?    DPB	4,25061
011131  260040 022525    6 @"55    ,??%*    PUSHJ	1,22525
011132  254000 022443    5@ "4C    +??%?    JRST	0,22443
011133  542200 021141    L2 ")A    XH?"0    HRRM	4,21141
011134  260040 023200    6 @":     ,??&@    PUSHJ	1,23200
011135  254000 021141    5@ ")A    +??"0    JRST	0,21141
011136  260040 025005    6 @"H%    ,??*?    PUSHJ	1,25005
011137  200240 014735    0"@!G=     ???n    MOVE	5,14735
011140  606240 000010    PR@  (    aJ???    TRNN	5,10
011141  263040 000000    68@       ,b???    POPJ	1,0
011142  205240 777755    0J@__M    !*??v    MOVSI	5,777755
011143  205300 710440    0K Y$@    !,???    MOVSI	6,710440
011144  200200 000006    0"   &     ????    MOVE	4,6
011145  260040 025011    6 @"H)    ,??*?    PUSHJ	1,25011
011146  316300 025106    9S "I&    3L?*#    CAMN	6,25106
011147  541300 000027    L+   7    X,???    HRRI	6,27
011150  200205 024411    0"%"D)     ?()?    MOVE	4,24411(5)
011151  260040 025011    6 @"H)    ,??*?    PUSHJ	1,25011
011152  350000 000006    =    &    :????    AOS	0,6
011153  253240 023206    5:@":&    *j?&C    AOBJN	5,23206
011154  200200 025107    0" "I'     ??*#    MOVE	4,25107
011155  260040 025011    6 @"H)    ,??*?    PUSHJ	1,25011
011156  254000 025005    5@ "H%    +??*?    JRST	0,25005
011157  260040 025005    6 @"H%    ,??*?    PUSHJ	1,25005
011160  260040 023204    6 @":$    ,??&B    PUSHJ	1,23204
011161  254000 023653    5@ ">K    +??'U    JRST	0,23653
011162  260040 022443    6 @"4C    ,??%?    PUSHJ	1,22443
011163  660100 004010    V!  @(    l????    TRO	2,4010
011164  200200 025110    0" "I(     ??*$    MOVE	4,25110
011165  202200 021701    02 "/!     H?#`    MOVEM	4,21701
011166  260040 022147    6 @"1G    ,??$3    PUSHJ	1,22147
011167  336000 014735    ;P !G=    7@??n    SKIPN	0,14735
011170  254000 023132    5@ "9:    +??&-    JRST	0,23132
011171  607200 777000    PZ _X     ah?~?    TLNN	4,777000
011172  270200 025111    7" "I)    .??*$    ADD	4,25111
011173  327200 023237    :Z ":?    5h?&O    JUMPG	4,23237
011174  002000 456756     0 EWN    ?@?]w    UUO02	0,456756
011175  260040 025010    6 @"H(    ,??*?    PUSHJ	1,25010
011176  260040 025005    6 @"H%    ,??*?    PUSHJ	1,25005
011177  260040 024052    6 @"@J    ,??(?    PUSHJ	1,24052
011200  254000 021141    5@ ")A    +??"0    JRST	0,21141
011201  261040 023120    6(@"90    ,"?&(    PUSH	1,23120
011202  325000 023742    :H "?B    5 ?'q    JUMPGE	0,23742
011203  205340 714020    0K@Y@0    !.???    MOVSI	7,714020
011204  200507 073110    0%''9(     ?8v$    MOVE	12,73110(7)
011205  135400 025105    +L "I%    ?0?*"    LDB	10,25105
011206  302400 000004    84   $    0P???    CAIE	10,4
011207  306400 000006    8T   &    1P???    CAIN	10,6
011210  254000 023261    5@ ":Q    +??&X    JRST	0,23261
011211  302400 000003    84   #    0P???    CAIE	10,3
011212  306400 000011    8T   )    1P???    CAIN	10,11
011213  254000 023270    5@ ":X    +??&\    JRST	0,23270
011214  350000 000007    =    '    :????    AOS	0,7
011215  253340 023246    5;@":F    *n?&S    AOBJN	7,23246
011216  263040 000000    68@       ,b???    POPJ	1,0
011217  550740 000007    M'@  '    Z????    HRRZ	17,7
011220  241740 777776    4/@__^    (>???    ROT	17,777776
011221  510317 243050    I#/48H    R?zF?    HLLZ	6,243050(17)
011222  335000 000017    ;H   /    7 ???    SKIPGE	0,17
011223  514317 243050    IC/48H    S?zF?    HRLZ	6,243050(17)
011224  607300 004000    P[  @     al???    TLNN	6,4000
011225  254000 023256    5@ ":N    +??&W    JRST	0,23256
011226  510247 073111    I"G'9)    R?8v$    HLLZ	5,73111(7)
011227  550740 000007    M'@  '    Z????    HRRZ	17,7
011230  241740 777776    4/@__^    (>???    ROT	17,777776
011231  510317 243050    I#/48H    R?zF?    HLLZ	6,243050(17)
011232  335000 000017    ;H   /    7 ???    SKIPGE	0,17
011233  514317 243050    IC/48H    S?zF?    HRLZ	6,243050(17)
011234  607300 100000    P[ (      al???    TLNN	6,100000
011235  322240 023256    :2@":N    4J?&W    JUMPE	5,23256
011236  621500 740000    R- \      d4?@?    TLZ	12,740000
011237  302400 000003    84   #    0P???    CAIE	10,3
011240  306400 000004    8T   $    1P???    CAIN	10,4
011241  334000 000000    ;@        7????    SKIPA	0,0
011242  661500 040000    V- $      l4?@?    TLO	12,40000
011243  260040 021244    6 @"*D    ,??"R    PUSHJ	1,21244
011244  254000 023256    5@ ":N    +??&W    JRST	0,23256
011245  402000 014772    @0 !GZ    @@??}    SETZM	0,14772
011246  621000 200000    R( 0      d ???    TLZ	0,200000
011247  660100 004010    V!  @(    l????    TRO	2,4010
011250  260040 022443    6 @"4C    ,??%?    PUSHJ	1,22443
011251  200200 025112    0" "I*     ??*%    MOVE	4,25112
011252  202200 021701    02 "/!     H?#`    MOVEM	4,21701
011253  201200 000054    0*   L     (???    MOVEI	4,54
011254  202200 014742    02 !GB     H??q    MOVEM	4,14742
011255  661100 002000    V)  0     l$???    TLO	2,2000
011256  260040 022147    6 @"1G    ,??$3    PUSHJ	1,22147
011257  332000 014772    ;0 !GZ    6@??}    SKIPE	0,14772
011260  254000 023443    5@ "<C    +??'?    JRST	0,23443
011261  402000 014754    @0 !GL    @@??v    SETZM	0,14754
011262  402000 014755    @0 !GM    @@??v    SETZM	0,14755
011263  606100 000010    PQ   (    aD???    TRNN	2,10
011264  254000 023346    5@ ";F    +??&s    JRST	0,23346
011265  200400 014705    0$ !G%     ???b    MOVE	10,14705
011266  312400 014704    94 !G$    2P??b    CAME	10,14704
011267  254000 023404    5@ "<$    +??'?    JRST	0,23404
011270  622000 001000    R0  (     d@???    TRZE	0,1000
011271  254000 023415    5@ "<-    +??'?    JRST	0,23415
011272  660000 100000    V  (      l????    TRO	0,100000
011273  552200 014723    M2 !G3    ZH??i    HRRZM	4,14723
011274  552200 066023    M2 &P3    ZH?l?    HRRZM	4,66023
011275  612240 025113    Q2@"I+    bJ?*%    TDNE	5,25113
011276  002000 544151     0 LAI    ?@?H4    UUO02	0,544151
011277  552240 014724    M2@!G4    ZJ??j    HRRZM	5,14724
011300  201205 000002    0*%  "     ((??    MOVEI	4,2(5)
011301  137200 025061    +Z "HQ    ?h?*?    DPB	4,25061
011302  202200 014737    02 !G?     H??o    MOVEM	4,14737
011303  254000 021103    5@ ")#    +??"!    JRST	0,21103
011304  661000 200000    V( 0      l ???    TLO	0,200000
011305  200200 025114    0" "I,     ??*&    MOVE	4,25114
011306  202200 014755    02 !GM     H??v    MOVEM	4,14755
011307  200200 014723    0" !G3     ???i    MOVE	4,14723
011310  202200 014754    02 !GL     H??v    MOVEM	4,14754
011311  603000 400000    P8 @      ``???    TLNE	0,400000
011312  001000 656354     ( USL    ? ?\v    UUO01	0,656354
011313  254000 021103    5@ ")#    +??"!    JRST	0,21103
011314  260040 015132    6 @!I:    ,???-    PUSHJ	1,15132
011315  200300 014702    0# !G"     ???a    MOVE	6,14702
011316  306300 022224    8S "24    1L?$J    CAIN	6,22224
011317  254000 023364    5@ ";T    +??&z    JRST	0,23364
011320  606100 000001    PQ   !    aD???    TRNN	2,1
011321  254000 023356    5@ ";N    +??&w    JRST	0,23356
011322  506200 014710    HR !G(    QH??d    HRLM	4,14710
011323  506240 014711    HR@!G)    QJ??d    HRLM	5,14711
011324  205300 100000    0K (      !,???    MOVSI	6,100000
011325  205240 200000    0J@0      !*???    MOVSI	5,200000
011326  260040 015100    6 @!I     ,???     PUSHJ	1,15100
011327  261040 014704    6(@!G$    ,"??b    PUSH	1,14704
011330  260040 015132    6 @!I:    ,???-    PUSHJ	1,15132
011331  606100 000001    PQ   !    aD???    TRNN	2,1
011332  254000 023372    5@ ";Z    +??&}    JRST	0,23372
011333  542200 014710    L2 !G(    XH??d    HRRM	4,14710
011334  542240 014711    L2@!G)    XJ??d    HRRM	5,14711
011335  205300 100000    0K (      !,???    MOVSI	6,100000
011336  201240 000000    0*@        *???    MOVEI	5,0
011337  262040 000010    60@  (    ,B???    POP	1,10
011340  260040 015101    6 @!I!    ,???     PUSHJ	1,15101
011341  254000 023664    5@ ">T    +??'Z    JRST	0,23664
011342  260040 022520    6 @"50    ,??%(    PUSHJ	1,22520
011343  201200 000002    0*   "     (???    MOVEI	4,2
011344  260040 023167    6 @"9W    ,??&;    PUSHJ	1,23167
011345  402000 014723    @0 !G3    @@??i    SETZM	0,14723
011346  201400 000001    0,   !     0???    MOVEI	10,1
011347  202400 014724    04 !G4     P??j    MOVEM	10,14724
011350  660000 001000    V   (     l????    TRO	0,1000
011351  201200 000003    0*   #     (???    MOVEI	4,3
011352  254000 023343    5@ ";C    +??&q    JRST	0,23343
011353  261040 000004    6(@  $    ,"???    PUSH	1,4
011354  620000 400000    R  @      d????    TRZ	0,400000
011355  201200 000004    0*   $     (???    MOVEI	4,4
011356  260040 023167    6 @"9W    ,??&;    PUSHJ	1,23167
011357  262040 000004    60@  $    ,B???    POP	1,4
011360  254000 023334    5@ ";<    +??&n    JRST	0,23334
011361  200200 014742    0" !GB     ???q    MOVE	4,14742
011362  306200 000040    8R   @    1H???    CAIN	4,40
011363  260040 016145    6 @!QE    ,???2    PUSHJ	1,16145
011364  202200 023435    02 "<=     H?'?    MOVEM	4,23435
011365  201240 000000    0*@        *???    MOVEI	5,0
011366  260040 016145    6 @!QE    ,???2    PUSHJ	1,16145
011367  312200 023435    92 "<=    2H?'?    CAME	4,23435
011370  344240 023430    <B@"<8    9??'?    AOJA	5,23430
011371  200200 000005    0"   %     ????    MOVE	4,5
011372  254000 024254    5@ "BL    +??(V    JRST	0,24254
011373  000000 000000              ?????    UUO00	0,0
011374  660100 004010    V!  @(    l????    TRO	2,4010
011375  260040 022443    6 @"4C    ,??%?    PUSHJ	1,22443
011376  200200 025115    0" "I-     ??*&    MOVE	4,25115
011377  476000 014772    GP !GZ    O@??}    SETOM	0,14772
011400  254000 023314    5@ ";,    +??&f    JRST	0,23314
011401  602000 001000    P0  (     `@???    TRNE	0,1000
011402  254000 023452    5@ "<J    +??'?    JRST	0,23452
011403  200200 014723    0" !G3     ???i    MOVE	4,14723
011404  273200 014710    7: !G(    .h??d    ADDB	4,14710
011405  200240 014724    0"@!G4     ???j    MOVE	5,14724
011406  273240 014711    7:@!G)    .j??d    ADDB	5,14711
011407  254000 023325    5@ ";5    +??&j    JRST	0,23325
011410  201400 021646    0, ".F     0?#S    MOVEI	10,21646
011411  350000 014704    =  !G$    :???b    AOS	0,14704
011412  552420 014704    M40!G$    ZQ??b    HRRZM	10,@14704
011413  254000 023325    5@ ";5    +??&j    JRST	0,23325
011414  620000 200000    R  0      d????    TRZ	0,200000
011415  254000 021103    5@ ")#    +??"!    JRST	0,21103
011416  260040 015410    6 @!L(    ,????    PUSHJ	1,15410
011417  260040 021750    6 @"/H    ,??#t    PUSHJ	1,21750
011420  254000 023465    5@ "<U    +??'?    JRST	0,23465
011421  515200 400000    IJ @      S(???    HRLZI	4,400000
011422  202207 073110    02''9(     H8v$    MOVEM	4,73110(7)
011423  200200 014742    0" !GB     ???q    MOVE	4,14742
011424  302200 000015    82   -    0H???    CAIE	4,15
011425  306200 000012    8R   *    1H???    CAIN	4,12
011426  254000 021103    5@ ")#    +??"!    JRST	0,21103
011427  254000 023460    5@ "<P    +??'?    JRST	0,23460
011430  000000 000000              ?????    UUO00	0,0
011431  261040 000010    6(@  (    ,"???    PUSH	1,10
011432  135400 025116    +L "I.    ?0?*'    LDB	10,25116
011433  465400 000077    FL   _    M0???    ORCMI	10,77
011434  342400 023643    <4 ">C    8P?'Q    AOJE	10,23643
011435  261040 000005    6(@  %    ,"???    PUSH	1,5
011436  261040 000004    6(@  $    ,"???    PUSH	1,4
011437  550400 000040    M$   @    Z????    HRRZ	10,40
011440  302400 554464    84 MDT    0P?Y?    CAIE	10,554464
011441  306400 624563    8T RES    1P?)9    CAIN	10,624563
011442  334400 014757    ;D !GO    7???w    SKIPA	10,14757
011443  254000 023511    5@ "=)    +??'$    JRST	0,23511
011444  202400 014755    04 !GM     P??v    MOVEM	10,14755
011445  200400 014756    0$ !GN     ???w    MOVE	10,14756
011446  202400 014754    04 !GL     P??v    MOVEM	10,14754
011447  200200 014755    0" !GM     ???v    MOVE	4,14755
011450  322200 023522    :2 "=2    4H?')    JUMPE	4,23522
011451  260040 023553    6 @"=K    ,??'5    PUSHJ	1,23553
011452  200240 014723    0"@!G3     ???i    MOVE	5,14723
011453  274240 014754    7B@!GL    /???v    SUB	5,14754
011454  322240 023522    :2@"=2    4J?')    JUMPE	5,23522
011455  201200 000053    0*   K     (???    MOVEI	4,53
011456  260040 000610    6 @ &(    ,???D    PUSHJ	1,610
011457  260040 023574    6 @"=\    ,??'>    PUSHJ	1,23574
011460  260040 000607    6 @ &'    ,???C    PUSHJ	1,607
011461  261040 023472    6(@"<Z    ,"?'?    PUSH	1,23472
011462  261040 000040    6(@  @    ,"???    PUSH	1,40
011463  602000 001000    P0  (     `@???    TRNE	0,1000
011464  077000 025117    'X "I/    ?`?*'    UUO77	0,25117
011465  262040 000040    60@  @    ,B???    POP	1,40
011466  262040 023472    60@"<Z    ,B?'?    POP	1,23472
011467  200240 014723    0"@!G3     ???i    MOVE	5,14723
011470  260040 023574    6 @"=\    ,??'>    PUSHJ	1,23574
011471  260040 000607    6 @ &'    ,???C    PUSHJ	1,607
011472  200240 015066    0"@!HV     ????    MOVE	5,15066
011473  260040 023574    6 @"=\    ,??'>    PUSHJ	1,23574
011474  260040 000607    6 @ &'    ,???C    PUSHJ	1,607
011475  255000 000000    5H        + ???    JFCL	0,0
011476  135200 025116    +J "I.    ?(?*'    LDB	4,25116
011477  305200 000007    8J   '    1(???    CAIGE	4,7
011500  254004 023543    5@$"=C    +? '1    JRST	0,23543(4)
011501  254000 023635    5@ ">=    +??'N    JRST	0,23635
011502  254000 023611    5@ ">)    +??'D    JRST	0,23611
011503  254000 023614    5@ ">,    +??'F    JRST	0,23614
011504  254200 023546    5B "=F    +??'3    JRST	4,23546
011505  254000 023604    5@ ">$    +??'B    JRST	0,23604
011506  254000 023607    5@ ">'    +??'C    JRST	0,23607
011507  321000 023611    :( ">)    4 ?'D    JUMPL	0,23611
011510  254000 023617    5@ ">/    +??'G    JRST	0,23617
011511  231200 000050    3*   H    &(???    IDIVI	4,50
011512  506241 000000    HRA       QJ???    HRLM	5,0(1)
011513  322200 023557    :2 "=O    4H?'7    JUMPE	4,23557
011514  260040 023553    6 @"=K    ,??'5    PUSHJ	1,23553
011515  554201 000000    MB!       [????    HLRZ	4,0(1)
011516  322200 023742    :2 "?B    4H?'q    JUMPE	4,23742
011517  301200 000045    8*   E    0(???    CAIL	4,45
011520  254000 023567    5@ "=W    +??';    JRST	0,23567
011521  301200 000013    8*   +    0(???    CAIL	4,13
011522  271200 000007    7*   '    .(???    ADDI	4,7
011523  271200 000257    7*  "O    .(??W    ADDI	4,257
011524  254000 000610    5@  &(    +???D    JRST	0,610
011525  200204 023524    0"$"=4     ? '*    MOVE	4,23524(4)
011526  254000 000610    5@  &(    +???D    JRST	0,610
011527  000000 000056         N    ?????    UUO00	0,56
011530  000000 000044         D    ?????    UUO00	0,44
011531  000000 000045         E    ?????    UUO00	0,45
011532  550200 000005    M"   %    Z????    HRRZ	4,5
011533  231200 000010    3*   (    &(???    IDIVI	4,10
011534  506241 000000    HRA       QJ???    HRLM	5,0(1)
011535  322200 023601    :2 ">!    4H?'@    JUMPE	4,23601
011536  260040 023575    6 @"=]    ,??'>    PUSHJ	1,23575
011537  554201 000000    MB!       [????    HLRZ	4,0(1)
011540  271200 000260    7*  "P    .(??X    ADDI	4,260
011541  254000 000610    5@  &(    +???D    JRST	0,610
011542  260040 016145    6 @!QE    ,???2    PUSHJ	1,16145
011543  302200 000012    82   *    0H???    CAIE	4,12
011544  254000 023604    5@ ">$    +??'B    JRST	0,23604
011545  201200 021103    0* ")#     (?"!    MOVEI	4,21103
011546  202200 023472    02 "<Z     H?'?    MOVEM	4,23472
011547  200200 000012    0"   *     ????    MOVE	4,12
011550  260040 023553    6 @"=K    ,??'5    PUSHJ	1,23553
011551  260040 000607    6 @ &'    ,???C    PUSHJ	1,607
011552  514240 000040    IB@  @    S????    HRLZ	5,40
011553  260040 023623    6 @">3    ,??'I    PUSHJ	1,23623
011554  260040 023631    6 @">9    ,??'L    PUSHJ	1,23631
011555  262040 000004    60@  $    ,B???    POP	1,4
011556  262040 000005    60@  %    ,B???    POP	1,5
011557  262040 000010    60@  (    ,B???    POP	1,10
011560  254120 023472    5A0"<Z    +??'?    JRST	2,@23472
011561  322240 023742    :2@"?B    4J?'q    JUMPE	5,23742
011562  201200 000000    0*         (???    MOVEI	4,0
011563  245200 000006    4J   &    )(???    ROTC	4,6
011564  271200 000040    7*   @    .(???    ADDI	4,40
011565  260040 000610    6 @ &(    ,???D    PUSHJ	1,610
011566  254000 023623    5@ ">3    +??'I    JRST	0,23623
011567  201200 000015    0*   -     (???    MOVEI	4,15
011570  260040 000610    6 @ &(    ,???D    PUSHJ	1,610
011571  201200 000012    0*   *     (???    MOVEI	4,12
011572  254000 000610    5@  &(    +???D    JRST	0,610
011573  514240 000040    IB@  @    S????    HRLZ	5,40
011574  260040 023623    6 @">3    ,??'I    PUSHJ	1,23623
011575  260040 000607    6 @ &'    ,???C    PUSHJ	1,607
011576  200240 023472    0"@"<Z     ??'?    MOVE	5,23472
011577  260040 023574    6 @"=\    ,??'>    PUSHJ	1,23574
011600  254000 000122    5@  !2    +???)    JRST	0,122
011601  515240 440700    IJ@D'     S*?A`    HRLZI	5,440700
011602  540240 000040    L"@  @    X????    HRR	5,40
011603  134200 000005    +B   %    ?????    ILDB	4,5
011604  306200 000041    8R   A    1H???    CAIN	4,41
011605  254000 023621    5@ ">1    +??'H    JRST	0,23621
011606  260040 000610    6 @ &(    ,???D    PUSHJ	1,610
011607  254000 023645    5@ ">E    +??'R    JRST	0,23645
011610  542200 021141    L2 ")A    XH?"0    HRRM	4,21141
011611  334200 025123    ;B "I3    7??*)    SKIPA	4,25123
011612  201200 000004    0*   $     (???    MOVEI	4,4
011613  660000 040000    V  $      l??@?    TRO	0,40000
011614  661200 400000    V* @      l(???    TLO	4,400000
011615  202200 014735    02 !G=     H??n    MOVEM	4,14735
011616  254000 021103    5@ ")#    +??"!    JRST	0,21103
011617  201200 000002    0*   "     (???    MOVEI	4,2
011620  254000 023655    5@ ">M    +??'V    JRST	0,23655
011621  620100 000006    R!   &    d????    TRZ	2,6
011622  403200 000005    @:   %    @h???    SETZB	4,5
011623  263040 000000    68@       ,b???    POPJ	1,0
011624  201200 000015    0*   -     (???    MOVEI	4,15
011625  606000 020000    PP "      a@? ?    TRNN	0,20000
011626  260040 000610    6 @ &(    ,???D    PUSHJ	1,610
011627  260040 016666    6 @!VV    ,???[    PUSHJ	1,16666
011630  332000 000012    ;0   *    6@???    SKIPE	0,12
011631  202500 014765    05 !GU     T??z    MOVEM	12,14765
011632  200400 025035    0$ "H=     ??*?    MOVE	10,25035
011633  375000 015026    ?H !H6    ? ???    SOSGE	0,15026
011634  254000 023702    5@ "?"    +??'a    JRST	0,23702
011635  134200 000010    +B   (    ?????    ILDB	4,10
011636  260040 000610    6 @ &(    ,???D    PUSHJ	1,610
011637  254000 023675    5@ ">]    +??'^    JRST	0,23675
011640  306200 000012    8R   *    1H???    CAIN	4,12
011641  254000 021103    5@ ")#    +??"!    JRST	0,21103
011642  260040 016145    6 @!QE    ,???2    PUSHJ	1,16145
011643  260040 000610    6 @ &(    ,???D    PUSHJ	1,610
011644  254000 023702    5@ "?"    +??'a    JRST	0,23702
011645  515200 000001    IJ   !    S(???    HRLZI	4,1
011646  272200 014736    72 !G>    .H??o    ADDM	4,14736
011647  254000 021103    5@ ")#    +??"!    JRST	0,21103
011650  205440 400000    0L@@      !2???    MOVSI	11,400000
011651  515400 714020    IL Y@0    S0???    HRLZI	10,714020
011652  332250 073110    ;2H'9(    6J@v$    SKIPE	5,73110(10)
011653  616240 025124    QR@"I4    cJ?**    TDNN	5,25124
011654  254000 023731    5@ "?9    +??'l    JRST	0,23731
011655  550740 000010    M'@  (    Z????    HRRZ	17,10
011656  241740 777776    4/@__^    (>???    ROT	17,777776
011657  510257 243050    I"O48H    R?zF?    HLLZ	5,243050(17)
011660  335000 000017    ;H   /    7 ???    SKIPGE	0,17
011661  514257 243050    IBO48H    S?zF?    HRLZ	5,243050(17)
011662  621240 777700    R*@__     d*??`    TLZ	5,777700
011663  306240 000077    8R@  _    1J???    CAIN	5,77
011664  254000 023731    5@ "?9    +??'l    JRST	0,23731
011665  316240 014736    9R@!G>    3J??o    CAMN	5,14736
011666  202450 073110    04H'9(     R@v$    MOVEM	11,73110(10)
011667  350000 000010    =    (    :????    AOS	0,10
011670  253400 023714    5< "?,    *p?'f    AOBJN	10,23714
011671  515200 777777    IJ ___    S(???    HRLZI	4,777777
011672  272200 014736    72 !G>    .H??o    ADDM	4,14736
011673  254000 021103    5@ ")#    +??"!    JRST	0,21103
011674  510200 000005    I"   %    R????    HLLZ	4,5
011675  336000 014716    ;P !G.    7@??g    SKIPN	0,14716
011676  660100 000400    V!  $     l????    TRO	2,400
011677  201240 000000    0*@        *???    MOVEI	5,0
011700  263040 000000    68@       ,b???    POPJ	1,0
011701  620100 001000    R!  (     d????    TRZ	2,1000
011702  402000 014704    @0 !G$    @@??b    SETZM	0,14704
011703  402000 014705    @0 !G%    @@??b    SETZM	0,14705
011704  402000 014711    @0 !G)    @@??d    SETZM	0,14711
011705  200400 014735    0$ !G=     ???n    MOVE	10,14735
011706  201200 066024    0* &P4     (?l?    MOVEI	4,66024
011707  202200 014727    02 !G7     H??k    MOVEM	4,14727
011710  205140 714020    0I@Y@0    !&???    MOVSI	3,714020
011711  402000 014723    @0 !G3    @@??i    SETZM	0,14723
011712  402000 066023    @0 &P3    @@?l?    SETZM	0,66023
011713  326400 023761    :T "?Q    5P?'x    JUMPN	10,23761
011714  201240 000010    0*@  (     *???    MOVEI	5,10
011715  137240 025061    +Z@"HQ    ?j?*?    DPB	5,25061
011716  202240 014737    02@!G?     J??o    MOVEM	5,14737
011717  332243 073110    ;2C'9(    6J?v$    SKIPE	5,73110(3)
011720  616240 025124    QR@"I4    cJ?**    TDNN	5,25124
011721  254000 024024    5@ "@4    +??(?    JRST	0,24024
011722  201300 000000    0+         ,???    MOVEI	6,0
011723  245240 000004    4J@  $    )*???    ROTC	5,4
011724  200343 073111    0#C'9)     ??v$    MOVE	7,73111(3)
011725  550740 000003    M'@  #    Z????    HRRZ	17,3
011726  241740 777776    4/@__^    (>???    ROT	17,777776
011727  510657 243050    I&O48H    R?zF?    HLLZ	15,243050(17)
011730  335000 000017    ;H   /    7 ???    SKIPGE	0,17
011731  514657 243050    IFO48H    S?zF?    HRLZ	15,243050(17)
011732  254006 023775    5@&"?]    +?0'~    JRST	0,23775(6)
011733  254000 024024    5@ "@4    +??(?    JRST	0,24024
011734  254000 024024    5@ "@4    +??(?    JRST	0,24024
011735  254000 024047    5@ "@G    +??(?    JRST	0,24047
011736  475371 416146    GKYAQF    O/L?3    SETOI	7,@416146(11)
011737  777502 024000    _]""@     ?t?(?    BLKO	774,24000(2)
011740  254000 024024    5@ "@4    +??(?    JRST	0,24024
011741  254000 024010    5@ "@(    +??(?    JRST	0,24010
011742  254000 024024    5@ "@4    +??(?    JRST	0,24024
011743  254000 024007    5@ "@'    +??(?    JRST	0,24007
011744  254000 024024    5@ "@4    +??(?    JRST	0,24024
011745  254000 024032    5@ "@:    +??(?    JRST	0,24032
011746  254000 024024    5@ "@4    +??(?    JRST	0,24024
011747  322400 024024    :4 "@4    4P?(?    JUMPE	10,24024
011750  553000 000007    M8   '    Z`???    HRRZS	0,7
011751  603640 004000    P>@ @     `z???    TLNE	15,4000
011752  254000 024024    5@ "@4    +??(?    JRST	0,24024
011753  241240 777774    4*@__\    (*??~    ROT	5,777774
011754  322400 024034    :4 "@<    4P?(?    JUMPE	10,24034
011755  661240 040000    V*@$      l*?@?    TLO	5,40000
011756  603640 010000    P>@!      `z???    TLNE	15,10000
011757  661240 400000    V*@@      l*???    TLO	5,400000
011760  202240 014710    02@!G(     J??d    MOVEM	5,14710
011761  260040 022526    6 @"56    ,??%+    PUSHJ	1,22526
011762  202340 014710    03@!G(     N??d    MOVEM	7,14710
011763  260040 022526    6 @"56    ,??%+    PUSHJ	1,22526
011764  350000 000003    =    #    :????    AOS	0,3
011765  253140 023761    59@"?Q    *f?'x    AOBJN	3,23761
011766  260040 022443    6 @"4C    ,??%?    PUSHJ	1,22443
011767  322400 024100    :4 "A     4P?(     JUMPE	10,24100
011770  205200 254000    0J 5@     !(?X?    MOVSI	4,254000
011771  254000 025010    5@ "H(    +??*?    JRST	0,25010
011772  326400 024011    :T "@)    5P?(?    JUMPN	10,24011
011773  254000 024024    5@ "@4    +??(?    JRST	0,24024
011774  603640 400000    P>@@      `z???    TLNE	15,400000
011775  661240 200000    V*@0      l*???    TLO	5,200000
011776  603640 200000    P>@0      `z???    TLNE	15,200000
011777  661240 100000    V*@(      l*???    TLO	5,100000
012000  603640 010000    P>@!      `z???    TLNE	15,10000
012001  661240 400000    V*@@      l*???    TLO	5,400000
012002  200200 000005    0"   %     ????    MOVE	4,5
012003  260040 022424    6 @"44    ,??%?    PUSHJ	1,22424
012004  200200 000007    0"   '     ????    MOVE	4,7
012005  260040 022424    6 @"44    ,??%?    PUSHJ	1,22424
012006  254000 024024    5@ "@4    +??(?    JRST	0,24024
012007  607640 000077    P^@  _    az???    TLNN	15,77
012010  254000 024024    5@ "@4    +??(?    JRST	0,24024
012011  254000 024011    5@ "@)    +??(?    JRST	0,24011
012012  211340 000001    1+@  !    ".???    MOVNI	7,1
012013  201440 327351    0,@:[I     2?.t    MOVEI	11,327351
012014  311440 014746    9,@!GF    22??s    CAML	11,14746
012015  263040 000000    68@       ,b???    POPJ	1,0
012016  550251 000001    M"I  !    Z?H??    HRRZ	5,1(11)
012017  554211 000001    MB)  !    [?H??    HLRZ	4,1(11)
012020  316200 000005    9R   %    3H???    CAMN	4,5
012021  254000 024076    5@ "@^    +??(?    JRST	0,24076
012022  356000 000007    =P   '    ;@???    AOSN	0,7
012023  077000 025125    'X "I5    ?`?**    UUO77	0,25125
012024  135240 025135    +J@"I=    ?*?*.    LDB	5,25135
012025  332000 000005    ;0   %    6@???    SKIPE	0,5
012026  077000 025136    'X "I>    ?`?*/    UUO77	0,25136
012027  550251 000001    M"I  !    Z?H??    HRRZ	5,1(11)
012030  260040 023574    6 @"=\    ,??'>    PUSHJ	1,23574
012031  260040 000607    6 @ &'    ,???C    PUSHJ	1,607
012032  554251 000001    MBI  !    [?H??    HLRZ	5,1(11)
012033  370000 000005    ?    %    >????    SOS	0,5
012034  260040 023574    6 @"=\    ,??'>    PUSHJ	1,23574
012035  260040 023631    6 @">9    ,??'L    PUSHJ	1,23631
012036  271440 000003    7,@  #    .2???    ADDI	11,3
012037  254000 024054    5@ "@L    +??(?    JRST	0,24054
012040  201200 000004    0*   $     (???    MOVEI	4,4
012041  137200 025061    +Z "HQ    ?h?*?    DPB	4,25061
012042  200200 014765    0" !GU     ???z    MOVE	4,14765
012043  661200 040000    V* $      l(?@?    TLO	4,40000
012044  260040 022424    6 @"44    ,??%?    PUSHJ	1,22424
012045  260040 022424    6 @"44    ,??%?    PUSHJ	1,22424
012046  254000 022443    5@ "4C    +??%?    JRST	0,22443
012047  260040 017237    6 @!Z?    ,???O    PUSHJ	1,17237
012050  001000 651620     ( U.0    ? ?SH    UUO01	0,651620
012051  261040 000004    6(@  $    ,"???    PUSH	1,4
012052  260040 017237    6 @!Z?    ,???O    PUSHJ	1,17237
012053  001000 651621     ( U.1    ? ?SH    UUO01	0,651621
012054  261040 000004    6(@  $    ,"???    PUSH	1,4
012055  260040 017237    6 @!Z?    ,???O    PUSHJ	1,17237
012056  001000 651622     ( U.2    ? ?SI    UUO01	0,651622
012057  262040 000005    60@  %    ,B???    POP	1,5
012060  250200 000005    5"   %    *????    EXCH	4,5
012061  262040 000010    60@  (    ,B???    POP	1,10
012062  616400 025140    QT "I@    cP?*0    TDNN	10,25140
012063  434400 025141    CD "IA    G??*0    IOR	10,25141
012064  256000 000010    5P   (    +@???    XCT	0,10
012065  254000 024254    5@ "BL    +??(V    JRST	0,24254
012066  634400 000010    SD   (    g????    TDZA	10,10
012067  201400 000001    0,   !     0???    MOVEI	10,1
012070  202400 024276    04 "B^     P?(_    MOVEM	10,24276
012071  200340 025142    0#@"IB     ??*1    MOVE	7,25142
012072  254000 024136    5@ "A>    +??(/    JRST	0,24136
012073  334340 025143    ;C@"IC    7??*1    SKIPA	7,25143
012074  200340 025142    0#@"IB     ??*1    MOVE	7,25142
012075  476000 024276    GP "B^    O@?(_    SETOM	0,24276
012076  201400 000000    0,         0???    MOVEI	10,0
012077  623100 004000    R9  @     dd???    TLZE	2,4000
012100  254000 024270    5@ "BX    +??(\    JRST	0,24270
012101  200200 014742    0" !GB     ???q    MOVE	4,14742
012102  306200 000040    8R   @    1H???    CAIN	4,40
012103  260040 016145    6 @!QE    ,???2    PUSHJ	1,16145
012104  202200 024300    02 "C      H?(`    MOVEM	4,24300
012105  260040 016145    6 @!QE    ,???2    PUSHJ	1,16145
012106  316200 024300    9R "C     3H?(`    CAMN	4,24300
012107  254000 024163    5@ "AS    +??(9    JRST	0,24163
012110  607340 760000    P[@^      an?`?    TLNN	7,760000
012111  254000 024245    5@ "BE    +??(R    JRST	0,24245
012112  603340 000100    P;@ !     `n??     TLNE	7,100
012113  254000 024170    5@ "AX    +??(<    JRST	0,24170
012114  275200 000040    7J   @    /(???    SUBI	4,40
012115  307200 000077    8Z   _    1h???    CAIG	4,77
012116  325200 024160    :J "AP    5(?(8    JUMPGE	4,24160
012117  002000 562642     0 N6B    ?@?eQ    UUO02	0,562642
012120  136200 000007    +R   '    ?H???    IDPB	4,7
012121  660100 000002    V!   "    l????    TRO	2,2
012122  254000 024145    5@ "AE    +??(2    JRST	0,24145
012123  607340 760000    P[@^      an?`?    TLNN	7,760000
012124  335000 024276    ;H "B^    7 ?(_    SKIPGE	0,24276
012125  254000 024261    5@ "BQ    +??(X    JRST	0,24261
012126  201640 000001    0.@  !     :???    MOVEI	15,1
012127  254000 024246    5@ "BF    +??(S    JRST	0,24246
012130  306200 000041    8R   A    1H???    CAIN	4,41
012131  337000 024276    ;X "B^    7`?(_    SKIPG	0,24276
012132  254000 024160    5@ "AP    +??(8    JRST	0,24160
012133  261040 000010    6(@  (    ,"???    PUSH	1,10
012134  261040 000007    6(@  '    ,"???    PUSH	1,7
012135  261040 000012    6(@  *    ,"???    PUSH	1,12
012136  200340 025144    0#@"ID     ??*2    MOVE	7,25144
012137  606000 020000    PP "      a@? ?    TRNN	0,20000
012140  606000 040000    PP $      a@?@?    TRNN	0,40000
012141  200340 025145    0#@"IE     ??*2    MOVE	7,25145
012142  202340 024205    03@"B%     N?(B    MOVEM	7,24205
012143  402000 024307    @0 "C'    @@?(c    SETZM	0,24307
012144  260040 017237    6 @!Z?    ,???O    PUSHJ	1,17237
012145  000000 024205       "B%    ???(B    UUO00	0,24205
012146  262040 000012    60@  *    ,B???    POP	1,12
012147  262040 000007    60@  '    ,B???    POP	1,7
012150  262040 000010    60@  (    ,B???    POP	1,10
012151  335000 024307    ;H "C'    7 ?(c    SKIPGE	0,24307
012152  211200 000001    1*   !    "(???    MOVNI	4,1
012153  200640 025146    0&@"IF     ??*3    MOVE	15,25146
012154  202640 024302    06@"C"     Z?(a    MOVEM	15,24302
012155  202640 024303    06@"C#     Z?(a    MOVEM	15,24303
012156  261040 025147    6(@"IG    ,"?*3    PUSH	1,25147
012157  200640 000004    0&@  $     ????    MOVE	15,4
012160  246640 777735    4V@__=    )Z??n    LSHC	15,777735
012161  242700 777777    47 ___    (\???    LSH	16,777777
012162  235640 000010    3N@  (    ':???    DIVI	15,10
012163  506701 000000    HW!       Q\???    HRLM	16,0(1)
012164  322640 024226    :6@"B6    4Z?(K    JUMPE	15,24226
012165  260040 024220    6 @"B0    ,??(H    PUSHJ	1,24220
012166  554201 000000    MB!       [????    HLRZ	4,0(1)
012167  271200 000060    7*   P    .(???    ADDI	4,60
012170  136200 024302    +R "C"    ?H?(a    IDPB	4,24302
012171  263040 000000    68@       ,b???    POPJ	1,0
012172  201200 000000    0*         (???    MOVEI	4,0
012173  136200 024302    +R "C"    ?H?(a    IDPB	4,24302
012174  607340 760000    P[@^      an?`?    TLNN	7,760000
012175  254000 024244    5@ "BD    +??(R    JRST	0,24244
012176  134200 024303    +B "C#    ???(a    ILDB	4,24303
012177  322200 024242    :2 "BB    4H?(Q    JUMPE	4,24242
012200  136200 000007    +R   '    ?H???    IDPB	4,7
012201  254000 024234    5@ "B<    +??(N    JRST	0,24234
012202  200200 014742    0" !GB     ???q    MOVE	4,14742
012203  254000 024146    5@ "AF    +??(3    JRST	0,24146
012204  634640 000015    SF@  -    g????    TDZA	15,15
012205  211640 000001    1.@  !    ":???    MOVNI	15,1
012206  202640 024277    06@"B_     Z?(_    MOVEM	15,24277
012207  402000 014702    @0 !G"    @@??a    SETZM	0,14702
012210  202200 024301    02 "C!     H?(`    MOVEM	4,24301
012211  661100 004000    V)  @     l$???    TLO	2,4000
012212  200200 000010    0"   (     ????    MOVE	4,10
012213  254000 023741    5@ "?A    +??'p    JRST	0,23741
012214  200400 000004    0$   $     ????    MOVE	10,4
012215  200240 014742    0"@!GB     ???q    MOVE	5,14742
012216  302240 000015    82@  -    0J???    CAIE	5,15
012217  306240 000012    8R@  *    1J???    CAIN	5,12
012220  254000 024266    5@ "BV    +??([    JRST	0,24266
012221  261040 000010    6(@  (    ,"???    PUSH	1,10
012222  260040 015410    6 @!L(    ,????    PUSHJ	1,15410
012223  602100 000002    P1   "    `D???    TRNE	2,2
012224  002000 565763     0 NOS    ?@?ky    UUO02	0,565763
012225  262040 000004    60@  $    ,B???    POP	1,4
012226  660100 000002    V!   "    l????    TRO	2,2
012227  254000 023741    5@ "?A    +??'p    JRST	0,23741
012230  200200 024301    0" "C!     ??(`    MOVE	4,24301
012231  660100 000001    V!   !    l????    TRO	2,1
012232  335240 024277    ;J@"B_    7*?(_    SKIPGE	5,24277
012233  254000 024152    5@ "AJ    +??(5    JRST	0,24152
012234  322240 024234    :2@"B<    4J?(N    JUMPE	5,24234
012235  254000 024261    5@ "BQ    +??(X    JRST	0,24261
012236  547612 633451    L^*S<I    YxV7?    HLRS	14,633451(12)
012237  777505 024310    _]%"C(    ?t((d    BLKO	774,24310(5)
012240  261040 000004    6(@  $    ,"???    PUSH	1,4
012241  260040 016145    6 @!QE    ,???2    PUSHJ	1,16145
012242  312200 024300    92 "C     2H?(`    CAME	4,24300
012243  254000 024311    5@ "C)    +??(d    JRST	0,24311
012244  621100 004000    R)  @     d$???    TLZ	2,4000
012245  262040 000004    60@  $    ,B???    POP	1,4
012246  263040 000000    68@       ,b???    POPJ	1,0
012247  260040 022147    6 @"1G    ,??$3    PUSHJ	1,22147
012250  202200 015553    02 !MK     H??5    MOVEM	4,15553
012251  254000 021103    5@ ")#    +??"!    JRST	0,21103
012252  260040 015410    6 @!L(    ,????    PUSHJ	1,15410
012253  260040 021750    6 @"/H    ,??#t    PUSHJ	1,21750
012254  202507 073110    05''9(     T8v$    MOVEM	12,73110(7)
012255  261040 014734    6(@!G<    ,"??n    PUSH	1,14734
012256  260040 015410    6 @!L(    ,????    PUSHJ	1,15410
012257  260040 021750    6 @"/H    ,??#t    PUSHJ	1,21750
012260  005000 514561     H IEQ    ? ??8    UUO05	0,514561
012261  262040 000010    60@  (    ,B???    POP	1,10
012262  137200 025150    +Z "IH    ?h?*4    DPB	4,25150
012263  202250 073111    02H'9)     J@v$    MOVEM	5,73111(10)
012264  550740 000010    M'@  (    Z????    HRRZ	17,10
012265  241740 777776    4/@__^    (>???    ROT	17,777776
012266  510257 243050    I"O48H    R?zF?    HLLZ	5,243050(17)
012267  335000 000017    ;H   /    7 ???    SKIPGE	0,17
012270  514257 243050    IBO48H    S?zF?    HRLZ	5,243050(17)
012271  603240 000400    P:@ $     `j???    TLNE	5,400
012272  661300 000400    V+  $     l,???    TLO	6,400
012273  550740 000010    M'@  (    Z????    HRRZ	17,10
012274  241740 777776    4/@__^    (>???    ROT	17,777776
012275  335000 000017    ;H   /    7 ???    SKIPGE	0,17
012276  546317 243050    LS/48H    YLzF?    HLRM	6,243050(17)
012277  331000 000017    ;(   /    6 ???    SKIPL	0,17
012300  502317 243050    H3/48H    PLzF?    HLLM	6,243050(17)
012301  254000 021103    5@ ")#    +??"!    JRST	0,21103
012302  260040 022443    6 @"4C    ,??%?    PUSHJ	1,22443
012303  260040 022147    6 @"1G    ,??$3    PUSHJ	1,22147
012304  260040 025010    6 @"H(    ,??*?    PUSHJ	1,25010
012305  254000 021103    5@ ")#    +??"!    JRST	0,21103
012306  661000 400000    V( @      l ???    TLO	0,400000
012307  620000 040000    R  $      d??@?    TRZ	0,40000
012310  402000 014723    @0 !G3    @@??i    SETZM	0,14723
012311  201200 000001    0*   !     (???    MOVEI	4,1
012312  202200 014724    02 !G4     H??j    MOVEM	4,14724
012313  402000 014735    @0 !G=    @@??n    SETZM	0,14735
012314  254000 023413    5@ "<+    +??'?    JRST	0,23413
012315  660100 004010    V!  @(    l????    TRO	2,4010
012316  200200 025151    0" "II     ??*4    MOVE	4,25151
012317  202200 021701    02 "/!     H?#`    MOVEM	4,21701
012320  260040 022147    6 @"1G    ,??$3    PUSHJ	1,22147
012321  606100 000010    PQ   (    aD???    TRNN	2,10
012322  254000 023346    5@ ";F    +??&s    JRST	0,23346
012323  202200 014725    02 !G5     H??j    MOVEM	4,14725
012324  202240 014726    02@!G6     J??k    MOVEM	5,14726
012325  254000 021103    5@ ")#    +??"!    JRST	0,21103
012326  200200 014742    0" !GB     ???q    MOVE	4,14742
012327  306200 000040    8R   @    1H???    CAIN	4,40
012330  260040 016145    6 @!QE    ,???2    PUSHJ	1,16145
012331  200400 000004    0$   $     ????    MOVE	10,4
012332  260040 016145    6 @!QE    ,???2    PUSHJ	1,16145
012333  306200 000041    8R   A    1H???    CAIN	4,41
012334  325240 024402    :J@"D"    5*?)?    JUMPGE	5,24402
012335  316200 000010    9R   (    3H???    CAMN	4,10
012336  254000 021103    5@ ")#    +??"!    JRST	0,21103
012337  260040 000610    6 @ &(    ,???D    PUSHJ	1,610
012340  254000 024402    5@ "D"    +??)?    JRST	0,24402
012341  710600 000060    Y&   P    r????    CONO	104,60
012342  265600 000030    6N   8    -8???    JSP	14,30
012343  710440 000016    Y$@  .    r????    DATAI	104,16
012344  200640 000016    0&@  .     ????    MOVE	15,16
012345  325700 000016    :O   .    5<???    JUMPGE	16,16
012346  265600 000030    6N   8    -8???    JSP	14,30
012347  710456 000000    Y$N       r?p??    DATAI	104,0(16)
012350  241640 000001    4.@  !    (:???    ROT	15,1
012351  270656 000000    7&N       .?p??    ADD	15,0(16)
012352  253700 000005    5?   %    *|???    AOBJN	16,5
012353  201600 000033    0.   ;     8???    MOVEI	14,33
012354  254000 000030    5@   8    +????    JRST	0,30
012355  710740 000010    Y'@  (    r????    CONSO	104,10
012356  254000 000030    5@   8    +????    JRST	0,30
012357  254014 000000    5@,       +?`??    JRST	0,0(14)
012360  710440 000016    Y$@  .    r????    DATAI	104,16
012361  316640 000016    9V@  .    3Z???    CAMN	15,16
012362  324000 000001    :@   !    5????    JUMPA	0,1
012363  254200 000000    5B        +????    JRST	4,0
012364  260040 017237    6 @!Z?    ,???O    PUSHJ	1,17237
012365  002000 656363     0 USS    ?@?\y    UUO02	0,656363
012366  242200 000036    42   >    (H???    LSH	4,36
012367  261040 000004    6(@  $    ,"???    PUSH	1,4
012370  260040 015410    6 @!L(    ,????    PUSHJ	1,15410
012371  621500 740000    R- \      d4?@?    TLZ	12,740000
012372  262040 000004    60@  $    ,B???    POP	1,4
012373  270200 000012    7"   *    .????    ADD	4,12
012374  661100 002000    V)  0     l$???    TLO	2,2000
012375  254000 024254    5@ "BL    +??(V    JRST	0,24254
012376  332000 014735    ;0 !G=    6@??n    SKIPE	0,14735
012377  005000 515457     H ILO    ? ???    UUO05	0,515457
012400  260040 022443    6 @"4C    ,??%?    PUSHJ	1,22443
012401  260040 015132    6 @!I:    ,???-    PUSHJ	1,15132
012402  202200 014710    02 !G(     H??d    MOVEM	4,14710
012403  202240 014711    02@!G)     J??d    MOVEM	5,14711
012404  260040 022525    6 @"55    ,??%*    PUSHJ	1,22525
012405  201200 066067    0* &PW     (?l?    MOVEI	4,66067
012406  202200 014704    02 !G$     H??b    MOVEM	4,14704
012407  202200 014705    02 !G%     H??b    MOVEM	4,14705
012410  260040 015132    6 @!I:    ,???-    PUSHJ	1,15132
012411  202200 014710    02 !G(     H??d    MOVEM	4,14710
012412  202240 014711    02@!G)     J??d    MOVEM	5,14711
012413  260040 022525    6 @"55    ,??%*    PUSHJ	1,22525
012414  201200 066067    0* &PW     (?l?    MOVEI	4,66067
012415  202200 014704    02 !G$     H??b    MOVEM	4,14704
012416  202200 014705    02 !G%     H??b    MOVEM	4,14705
012417  260040 015132    6 @!I:    ,???-    PUSHJ	1,15132
012420  202200 014710    02 !G(     H??d    MOVEM	4,14710
012421  202240 014711    02@!G)     J??d    MOVEM	5,14711
012422  201200 000007    0*   '     (???    MOVEI	4,7
012423  260040 023167    6 @"9W    ,??&;    PUSHJ	1,23167
012424  254000 021103    5@ ")#    +??"!    JRST	0,21103
012425  512240 014776    I2@!G^    RJ???    HLLZM	5,14776
012426  254000 021103    5@ ")#    +??"!    JRST	0,21103
012427  260040 015410    6 @!L(    ,????    PUSHJ	1,15410
012430  606100 000002    PQ   "    aD???    TRNN	2,2
012431  254000 021103    5@ ")#    +??"!    JRST	0,21103
012432  260040 021364    6 @"+T    ,??"z    PUSHJ	1,21364
012433  201200 000003    0*   #     (???    MOVEI	4,3
012434  260040 022411    6 @"4)    ,??%?    PUSHJ	1,22411
012435  661500 040000    V- $      l4?@?    TLO	12,40000
012436  260040 022422    6 @"42    ,??%?    PUSHJ	1,22422
012437  254000 024477    5@ "D_    +??)?    JRST	0,24477
012440  201200 066067    0* &PW     (?l?    MOVEI	4,66067
012441  202200 014704    02 !G$     H??b    MOVEM	4,14704
012442  476000 014716    GP !G.    O@??g    SETOM	0,14716
012443  260040 015410    6 @!L(    ,????    PUSHJ	1,15410
012444  606100 000002    PQ   "    aD???    TRNN	2,2
012445  254000 021103    5@ ")#    +??"!    JRST	0,21103
012446  661100 000001    V)   !    l$???    TLO	2,1
012447  260040 021457    6 @",O    ,??#?    PUSHJ	1,21457
012450  254000 024510    5@ "E(    +??)$    JRST	0,24510
012451  260040 017237    6 @!Z?    ,???O    PUSHJ	1,17237
012452  001000 656347     ( USG    ? ?\s    UUO01	0,656347
012453  202200 015025    02 !H5     H???    MOVEM	4,15025
012454  254000 021103    5@ ")#    +??"!    JRST	0,21103
012455  260040 015410    6 @!L(    ,????    PUSHJ	1,15410
012456  260040 021750    6 @"/H    ,??#t    PUSHJ	1,21750
012457  201200 000017    0*   /     (???    MOVEI	4,17
012460  254000 024254    5@ "BL    +??(V    JRST	0,24254
012461  260040 024615    6 @"F-    ,??)F    PUSHJ	1,24615
012462  202700 024604    07 "F$     \?)B    MOVEM	16,24604
012463  134240 024604    +B@"F$    ???)B    ILDB	5,24604
012464  301240 000300    8*@ #     0*??`    CAIL	5,300
012465  263040 000000    68@       ,b???    POPJ	1,0
012466  302240 000056    82@  N    0J???    CAIE	5,56
012467  254000 024533    5@ "E;    +??)-    JRST	0,24533
012470  260040 016663    6 @!VS    ,???Y    PUSHJ	1,16663
012471  321400 023742    :, "?B    40?'q    JUMPL	10,23742
012472  312500 025152    95 "IJ    2T?*5    CAME	12,25152
012473  254000 024533    5@ "E;    +??)-    JRST	0,24533
012474  260040 016663    6 @!VS    ,???Y    PUSHJ	1,16663
012475  321400 023742    :, "?B    40?'q    JUMPL	10,23742
012476  312500 024603    95 "F#    2T?)A    CAME	12,24603
012477  254000 024533    5@ "E;    +??)-    JRST	0,24533
012500  200700 024604    0' "F$     ??)B    MOVE	16,24604
012501  260040 024605    6 @"F%    ,??)B    PUSHJ	1,24605
012502  254000 022030    5@ "08    +??$?    JRST	0,22030
012503  246200 777776    4R __^    )H???    LSHC	4,777776
012504  135640 025153    +N@"IK    ?:?*5    LDB	15,25153
012505  200244 026023    0"D"P3     ? ,?    MOVE	5,26023(4)
012506  221640 777776    2.@__^    $:???    IMULI	15,777776
012507  430240 025154    C"@"IL    F??*6    XOR	5,25154
012510  254015 024571    5@-"EY    +?h)<    JRST	0,24571(15)
012511  200244 026023    0"D"P3     ? ,?    MOVE	5,26023(4)
012512  430240 025154    C"@"IL    F??*6    XOR	5,25154
012513  606240 006000    PR@ P     aJ???    TRNN	5,6000
012514  265640 024574    6N@"E\    -:?)>    JSP	15,24574
012515  607240 000003    PZ@  #    aj???    TLNN	5,3
012516  265640 024574    6N@"E\    -:?)>    JSP	15,24574
012517  607240 001400    PZ@ ,     aj???    TLNN	5,1400
012520  265640 024574    6N@"E\    -:?)>    JSP	15,24574
012521  607240 600000    PZ@P      aj???    TLNN	5,600000
012522  265640 024574    6N@"E\    -:?)>    JSP	15,24574
012523  364200 024561    >B "EQ    =??)8    SOJA	4,24561
012524  211655 000000    1.M       ":h??    MOVNI	15,0(15)
012525  271640 024573    7.@"E[    .:?)=    ADDI	15,24573
012526  242640 777777    46@___    (Z???    LSH	15,777777
012527  242200 000002    42   "    (H???    LSH	4,2
012530  271215 000000    7*-       .(h??    ADDI	4,0(15)
012531  553000 000004    M8   $    Z`???    HRRZS	0,4
012532  263040 000000    68@       ,b???    POPJ	1,0
012533  101346 271175    (+F7)]    ?.2r>    XX101	7,271175(6)
012534  777607 024605    _^'"F%    ?x8)B    CONO	774,24605(7)
012535  634200 000004    SB   $    g????    TDZA	4,4
012536  133000 000016    +8   .    ?`???    IBP	0,16
012537  603700 700000    P? X      `|???    TLNE	16,700000
012540  364200 024606    >B "F&    =??)C    SOJA	4,24606
012541  275700 026023    7O "P3    /<?,?    SUBI	16,26023
012542  242700 000002    47   "    (\???    LSH	16,2
012543  271216 000004    7*.  $    .(p??    ADDI	4,4(16)
012544  263040 000000    68@       ,b???    POPJ	1,0
012545  332640 000004    ;6@  $    6Z???    SKIPE	15,4
012546  370000 000015    ?    -    >????    SOS	0,15
012547  231640 000004    3.@  $    &:???    IDIVI	15,4
012550  200716 015012    0'.!H*     ?p??    MOVE	16,15012(16)
012551  270700 000015    7'   -    .????    ADD	16,15
012552  621700 000017    R/   /    d<???    TLZ	16,17
012553  263040 000000    68@       ,b???    POPJ	1,0
012554  260040 016666    6 @!VV    ,???[    PUSHJ	1,16666
012555  254000 021103    5@ ")#    +??"!    JRST	0,21103
012556  260040 016666    6 @!VV    ,???[    PUSHJ	1,16666
012557  202500 024603    05 "F#     T?)A    MOVEM	12,24603
012560  606000 010000    PP !      a@???    TRNN	0,10000
012561  254000 021103    5@ ")#    +??"!    JRST	0,21103
012562  200200 015044    0" !HD     ????    MOVE	4,15044
012563  260040 024553    6 @"EK    ,??)5    PUSHJ	1,24553
012564  260040 016232    6 @!R:    ,???M    PUSHJ	1,16232
012565  306240 000374    8R@ #\    1J??~    CAIN	5,374
012566  271200 000002    7*   "    .(???    ADDI	4,2
012567  260040 024531    6 @"E9    ,??),    PUSHJ	1,24531
012570  254000 024644    5@ "FD    +??)R    JRST	0,24644
012571  202200 015044    02 !HD     H???    MOVEM	4,15044
012572  476000 015030    GP !H8    O@???    SETOM	0,15030
012573  254000 021103    5@ ")#    +??"!    JRST	0,21103
012574  260040 024646    6 @"FF    ,??)S    PUSHJ	1,24646
012575  254000 024630    5@ "F8    +??)L    JRST	0,24630
012576  200240 015023    0"@!H3     ????    MOVE	5,15023
012577  550205 000000    M"%       Z?(??    HRRZ	4,0(5)
012600  274240 025036    7B@"H>    /??*?    SUB	5,25036
012601  306200 017470    8R !\X    1H???    CAIN	4,17470
012602  254000 024662    5@ "FR    +??)Y    JRST	0,24662
012603  306200 017171    8R !YY    1H??<    CAIN	4,17171
012604  254000 024661    5@ "FQ    +??)X    JRST	0,24661
012605  302200 016204    82 !R$    0H??B    CAIE	4,16204
012606  306200 016222    8R !R2    1H??I    CAIN	4,16222
012607  254000 024662    5@ "FR    +??)Y    JRST	0,24662
012610  000000 654360       UCP    ???Xx    UUO00	0,654360
012611  553005 777776    M8%__^    Z`/??    HRRZS	0,777776(5)
012612  660000 000200    V   "     l???@    TRO	0,200
012613  254004 000000    5@$       +? ??    JRST	0,0(4)
012614  402000 015006    @0 !H&    @@???    SETZM	0,15006
012615  402000 015003    @0 !H#    @@???    SETZM	0,15003
012616  200200 025155    0" "IM     ??*6    MOVE	4,25155
012617  202200 015002    02 !H"     H???    MOVEM	4,15002
012620  260040 017237    6 @!Z?    ,???O    PUSHJ	1,17237
012621  001000 654263     ( UBS    ? ?XY    UUO01	0,654263
012622  200300 015007    0# !H'     ????    MOVE	6,15007
012623  606300 000001    PS   !    aL???    TRNN	6,1
012624  254000 024702    5@ "G"    +??)a    JRST	0,24702
012625  214240 000004    1B@  $    #????    MOVM	5,4
012626  335000 000004    ;H   $    7 ???    SKIPGE	0,4
012627  660240 000100    V"@ !     l???     TRO	5,100
012630  136240 015002    +R@!H"    ?J???    IDPB	5,15002
012631  350000 015003    =  !H#    :????    AOS	0,15003
012632  302640 000015    86@  -    0Z???    CAIE	15,15
012633  306640 000012    8V@  *    1Z???    CAIN	15,12
012634  254000 024706    5@ "G&    +??)c    JRST	0,24706
012635  254000 024670    5@ "FX    +??)\    JRST	0,24670
012636  336000 015003    ;P !H#    7@???    SKIPN	0,15003
012637  254000 024724    5@ "G4    +??)j    JRST	0,24724
012640  476000 015000    GP !H     O@???    SETOM	0,15000
012641  260040 024714    6 @"G,    ,??)f    PUSHJ	1,24714
012642  402000 015005    @0 !H%    @@???    SETZM	0,15005
012643  254000 021103    5@ ")#    +??"!    JRST	0,21103
012644  402000 015001    @0 !H!    @@???    SETZM	0,15001
012645  200200 025155    0" "IM     ??*6    MOVE	4,25155
012646  202200 015002    02 !H"     H???    MOVEM	4,15002
012647  134200 015002    +B !H"    ?????    ILDB	4,15002
012650  350000 015001    =  !H!    :????    AOS	0,15001
012651  660200 004400    V"  D     l????    TRO	4,4400
012652  137200 025156    +Z "IN    ?h?*7    DPB	4,25156
012653  263040 000000    68@       ,b???    POPJ	1,0
012654  402000 015000    @0 !H     @@???    SETZM	0,15000
012655  135200 025157    +J "IO    ?(?*7    LDB	4,25157
012656  306200 000044    8R   D    1H???    CAIN	4,44
012657  254000 021103    5@ ")#    +??"!    JRST	0,21103
012660  260040 024714    6 @"G,    ,??)f    PUSHJ	1,24714
012661  402000 014712    @0 !G*    @@??e    SETZM	0,14712
012662  254000 024750    5@ "GH    +??)t    JRST	0,24750
012663  402000 015001    @0 !H!    @@???    SETZM	0,15001
012664  200200 025155    0" "IM     ??*6    MOVE	4,25155
012665  202200 015002    02 !H"     H???    MOVEM	4,15002
012666  350200 015001    =" !H!    :????    AOS	4,15001
012667  313200 015003    9: !H#    2h???    CAMLE	4,15003
012670  254000 024733    5@ "G;    +??)m    JRST	0,24733
012671  134200 015002    +B !H"    ?????    ILDB	4,15002
012672  137200 025160    +Z "IP    ?h?*8    DPB	4,25160
012673  202200 014712    02 !G*     H??e    MOVEM	4,14712
012674  510200 015004    I" !H$    R????    HLLZ	4,15004
012675  133000 000004    +8   $    ?`???    IBP	0,4
012676  606200 777777    PR ___    aH???    TRNN	4,777777
012677  254000 024757    5@ "GO    +??)w    JRST	0,24757
012700  200200 015005    0" !H%     ????    MOVE	4,15005
012701  202200 014710    02 !G(     H??d    MOVEM	4,14710
012702  402000 015005    @0 !H%    @@???    SETZM	0,15005
012703  201200 000044    0*   D     (???    MOVEI	4,44
012704  137200 025157    +Z "IO    ?h?*7    DPB	4,25157
012705  260040 022526    6 @"56    ,??%+    PUSHJ	1,22526
012706  350000 014723    =  !G3    :???i    AOS	0,14723
012707  200200 014712    0" !G*     ???e    MOVE	4,14712
012710  606200 000100    PR  !     aH??     TRNN	4,100
012711  254000 021103    5@ ")#    +??"!    JRST	0,21103
012712  201200 000000    0*         (???    MOVEI	4,0
012713  254000 024766    5@ "GV    +??){    JRST	0,24766
012714  350000 015006    =  !H&    :????    AOS	0,15006
012715  200200 014710    0" !G(     ???d    MOVE	4,14710
012716  136200 015004    +R !H$    ?H???    IDPB	4,15004
012717  325000 024736    :H "G>    5 ?)o    JUMPGE	0,24736
012720  332000 014711    ;0 !G)    6@??d    SKIPE	0,14711
012721  001000 625142     ( RIB    ? ?*1    UUO01	0,625142
012722  200200 014704    0" !G$     ???b    MOVE	4,14704
012723  312200 014705    92 !G%    2H??b    CAME	4,14705
012724  001000 475142     ( GIB    ? ?z1    UUO01	0,475142
012725  254000 024736    5@ "G>    +??)o    JRST	0,24736
012726  575005 137246    OH%+ZF    _ )>S    HLREI	0,137246(5)
012727  777621 025003    _^1"H#    ?y?*?    CONO	774,@25003(1)
012730  200200 015006    0" !H&     ????    MOVE	4,15006
012731  254000 023741    5@ "?A    +??'p    JRST	0,23741
012732  334240 025161    ;B@"IQ    7??*8    SKIPA	5,25161
012733  201240 000005    0*@  %     *???    MOVEI	5,5
012734  254000 000420    5@  $0    +????    JRST	0,420
012735  325000 023742    :H "?B    5 ?'q    JUMPGE	0,23742
012736  254000 000460    5@  $P    +????    JRST	0,460
012737  000004 000004      $  $    ?? ??    UUO00	0,4(4)
012740  000002 000002      "  "    ?????    UUO00	0,2(2)
012741  000001 000000      !       ?????    UUO00	0,0(1)
012742  221207 000001    2*'  !    $(8??    IMULI	4,1(7)
012743  000000 015421       !L1    ?????    UUO00	0,15421
012744  001030 000100     (8 !     ?!@?     UUO01	0,@100(10)
012745  000010 000100      ( !     ??@?     UUO00	0,100(10)
012746  015542 015543    !MB!MC    ?6??1    UUO15	13,15543(2)
012747  000047 000006      G  &    ??8??    UUO00	1,6(7)
012750  034165 100000    #AU(      ??)??    UUO34	3,@100000(5)
012751  200000 015352    0  !KJ     ???u    MOVE	0,15352
012752  777377 777777    _[____    ?o???    CONSO	770,@777777(17)
012753  254000 016155    5@ !QM    +???6    JRST	0,16155
012754  260040 000250    6 @ "H    ,???T    PUSHJ	1,250
012755  000002 345571      "<MY    ???K<    UUO00	0,345571(2)
012756  141000 026023    ,( "P3    ? ?,?    FADL	0,26023
012757  400404 073110    @$$'9(    @? v$    SETZ	10,73110(4)
012760  000014 000014      ,  ,    ??`??    UUO00	0,14(14)
012761  000000 016271       !RY    ????\    UUO00	0,16271
012762  440700 335751    D' ;OI    H??;t    ANDCB	16,335751
012763  000001 000001      !  !    ?????    UUO00	0,1(1)
012764  777775 777776    __]__^    ??o??    CONSO	774,@777776(15)
012765  220605 000000    2&%       $?(??    IMUL	14,0(5)
012766  000077 000000      _       ??x??    UUO00	1,@0(17)
012767  221200 000010    2*   (    $(???    IMULI	4,10
012770  420201 777777    B"!___    D????    ANDCM	4,777777(1)
012771  400407 073110    @$''9(    @?8v$    SETZ	10,73110(7)
012772  000000 666244       VRD    ???lR    UUO00	0,666244
012773  420105 000002    B!%  "    D?(??    ANDCM	2,2(5)
012774  370500 000006    ?%   &    >????    SOS	12,6
012775  717777 777777    Y_____    s????    CONSO	174,@777777(17)
012776  775000 342571    _H <5Y    ? ?E<    BLKI	750,342571
012777  034530 424200    #E8BB     ??D(@    UUO34	12,@424200(10)
013000  440300 014717    D# !G/    H???g    ANDCB	6,14717
013001  034773 600001    #G[P !    ??^??    UUO34	17,@600001(13)
013002  022065 022112    "0U"1*    ?C($%    UUO22	1,@22112(5)
013003  773000 066107    _8 &Q'    ~`?l#    BLKI	730,66107
013004  001000 656360     ( USP    ? ?\x    UUO01	0,656360
013005  773777 777777    _?____    ~????    CONSO	734,@777777(17)
013006  310700 066023    9' &P3    2??l?    CAM	16,66023
013007  240000 000000    4         (????    ASH	0,0
013010  420100 000006    B!   &    D????    ANDCM	2,6
013011  000400 000400     $  $     ?????    UUO00	10,400
013012  050100 014706    %! !G&    ????c    UUO50	2,14706
013013  301400 014706    8, !G&    00??c    CAIL	10,14706
013014  002200 000006     2   &    ?H???    UUO02	4,6
013015  220700 066023    2' &P3    $??l?    IMUL	16,66023
013016  344440 022502    <D@"5"    9??%!    AOJA	11,22502
013017  400411 000000    @$)       @?H??    SETZ	10,0(11)
013020  410100 000004    A!   $    B????    ANDCA	2,4
013021  370100 000005    ?!   %    >????    SOS	2,5
013022  221200 000005    2*   %    $(???    IMULI	4,5
013023  010100 000004    !!   $    ?????    UUO10	2,4
013024  430100 000010    C!   (    F????    XOR	2,10
013025  420100 000010    B!   (    D????    ANDCM	2,10
013026  000000 000011         )    ?????    UUO00	0,11
013027  001000 655443     ( ULC    ? ?[?    UUO01	0,655443
013030  400300 066023    @# &P3    @??l?    SETZ	6,66023
013031  400000 020000    @  "      @?? ?    SETZ	0,20000
013032  400400 000012    @$   *    @????    SETZ	10,12
013033  710440 000013    Y$@  +    r????    DATAI	104,13
013034  254000 000001    5@   !    +????    JRST	0,1
013035  001000 656345     ( USE    ? ?\r    UUO01	0,656345
013036  254000 000000    5@        +????    JRST	0,0
013037  001000 656354     ( USL    ? ?\v    UUO01	0,656354
013040  777777 777776    _____^    ?????    CONSO	774,@777776(17)
013041  016753 606120    !WKPQ0    ?^^?(    UUO16	17,606120(13)
013042  001000 656342     ( USB    ? ?\q    UUO01	0,656342
013043  331100 000040    ;)   @    6$???    SKIPL	2,40
013044  436311 741202    CS)\*"    GLOBA    IORM	6,741202(11)
013045  461264 100000    F*T(      L+!??    SETCMI	5,@100000(4)
013046  777777 777777    ______    ?????    CONSO	774,@777777(17)
013047  400017 025121    @ /"I1    @?x*(    SETZ	0,25121(17)
013050  000000 000010         (    ?????    UUO00	0,10
013051  037777 777777    #_____    ?????    UUO37	17,@777777(17)
013052  416371 651650    ASYU.H    CONST    SETMM	7,@651650(11)
013053  406352 451500    @SJE-     ANTS     ANDM	7,451500(12)
013054  406450 540500    @THL%     AREA     ANDM	11,540500(10)
013055  446350 346252    DSH<RJ    INCLU    EQVM	7,346252(10)
013056  516232 642432    IR:T4:    SIVE?    HRLZM	4,@642432(12)
013057  052152 247632    %1J4^:    ?FROM    UUO52	3,247632(12)
013060  201004 052236    0($%2>       TO    MOVEI	0,52236(4)
013061  064244 100000    &BD(      ??!??    UUO64	5,100000(4)
013062  410111 000002    A!)  "    B?H??    ANDCA	2,2(11)
013063  436311 741202    CS)\*"    GLOBA    IORM	6,741202(11)
013064  461264 100000    F*T(      L+!??    SETCMI	5,@100000(4)
013065  000757 777777     'O___    ?????    UUO00	17,777777(17)
013066  000200 000005     "   %    ?????    UUO00	4,5
013067  440700 000010    D'   (    H????    ANDCB	16,10
013070  440600 000010    D&   (    H????    ANDCB	14,10
013071  476000 024307    GP "C'    O@?(c    SETOM	0,24307
013072  002000 656341     0 USA    ?@?\p    UUO02	0,656341
013073  440700 024304    D' "C$    H??(b    ANDCB	16,24304
013074  000000 024232       "B:    ???(M    UUO00	0,24232
013075  400410 073110    @$('9(    @?@v$    SETZ	10,73110(10)
013076  001000 656357     ( USO    ? ?\w    UUO01	0,656357
013077  027066 245000    "XV4H     ?c2J?    UUO27	1,@245000(6)
013100  420200 000005    B"   %    D????    ANDCM	4,5
013101  601403 006000    P,# P     `0???    TLN	10,6000(3)
013102  440700 024776    D' "G^    H??)?    ANDCB	16,24776
013103  301400 015004    8, !H$    00???    CAIL	10,15004
013104  360600 015004    >& !H$    <????    SOJ	14,15004
013105  300600 015004    8& !H$    0????    CAI	14,15004
013106  000000 000040         @    ?????    UUO00	0,40
013107  222063 232664    20S36T    $C?5Z    IMULM	1,@232664(3)
013110  777202 025202    _Z""J"    ?h?*A    CONO	770,25202(2)
013111  263040 000076    68@  ^    ,b???    POPJ	1,76
013112  263040 000076    68@  ^    ,b???    POPJ	1,76
013113  263040 000076    68@  ^    ,b???    POPJ	1,76
013114  254000 015506    5@ !M&    +???#    JRST	0,15506
013115  263040 000076    68@  ^    ,b???    POPJ	1,76
013116  263040 000076    68@  ^    ,b???    POPJ	1,76
013117  263040 000076    68@  ^    ,b???    POPJ	1,76
013120  263040 000076    68@  ^    ,b???    POPJ	1,76
013121  263040 000076    68@  ^    ,b???    POPJ	1,76
013122  263040 000075    68@  ]    ,b???    POPJ	1,75
013123  263040 000074    68@  \    ,b???    POPJ	1,74
013124  263040 000076    68@  ^    ,b???    POPJ	1,76
013125  263040 000076    68@  ^    ,b???    POPJ	1,76
013126  263040 000074    68@  \    ,b???    POPJ	1,74
013127  263040 000076    68@  ^    ,b???    POPJ	1,76
013130  263040 000076    68@  ^    ,b???    POPJ	1,76
013131  263040 000076    68@  ^    ,b???    POPJ	1,76
013132  263040 000076    68@  ^    ,b???    POPJ	1,76
013133  263040 000076    68@  ^    ,b???    POPJ	1,76
013134  263040 000076    68@  ^    ,b???    POPJ	1,76
013135  263040 000076    68@  ^    ,b???    POPJ	1,76
013136  263040 000076    68@  ^    ,b???    POPJ	1,76
013137  263040 000076    68@  ^    ,b???    POPJ	1,76
013140  263040 000076    68@  ^    ,b???    POPJ	1,76
013141  263040 000076    68@  ^    ,b???    POPJ	1,76
013142  263040 000076    68@  ^    ,b???    POPJ	1,76
013143  263040 000076    68@  ^    ,b???    POPJ	1,76
013144  263040 000076    68@  ^    ,b???    POPJ	1,76
013145  263040 000076    68@  ^    ,b???    POPJ	1,76
013146  263040 000076    68@  ^    ,b???    POPJ	1,76
013147  263040 000076    68@  ^    ,b???    POPJ	1,76
013150  263040 000076    68@  ^    ,b???    POPJ	1,76
013151  263040 000040    68@  @    ,b???    POPJ	1,40
013152  263040 000041    68@  A    ,b???    POPJ	1,41
013153  263040 000042    68@  B    ,b???    POPJ	1,42
013154  263040 000043    68@  C    ,b???    POPJ	1,43
013155  270507 025776    7%'"O^    .?8+?    ADD	12,25776(7)
013156  270507 026005    7%'"P%    .?8,?    ADD	12,26005(7)
013157  263040 000046    68@  F    ,b???    POPJ	1,46
013160  263040 000047    68@  G    ,b???    POPJ	1,47
013161  263040 000050    68@  H    ,b???    POPJ	1,50
013162  263040 000051    68@  I    ,b???    POPJ	1,51
013163  263040 000052    68@  J    ,b???    POPJ	1,52
013164  263040 000053    68@  K    ,b???    POPJ	1,53
013165  263040 000054    68@  L    ,b???    POPJ	1,54
013166  263040 000055    68@  M    ,b???    POPJ	1,55
013167  263040 000056    68@  N    ,b???    POPJ	1,56
013170  263040 000057    68@  O    ,b???    POPJ	1,57
013171  265700 016016    6O !P.    -<???    JSP	16,16016
013172  265700 016016    6O !P.    -<???    JSP	16,16016
013173  265700 016016    6O !P.    -<???    JSP	16,16016
013174  265700 016016    6O !P.    -<???    JSP	16,16016
013175  265700 016016    6O !P.    -<???    JSP	16,16016
013176  265700 016016    6O !P.    -<???    JSP	16,16016
013177  265700 016016    6O !P.    -<???    JSP	16,16016
013200  265700 016016    6O !P.    -<???    JSP	16,16016
013201  265700 016016    6O !P.    -<???    JSP	16,16016
013202  265700 016016    6O !P.    -<???    JSP	16,16016
013203  263040 000060    68@  P    ,b???    POPJ	1,60
013204  263040 000061    68@  Q    ,b???    POPJ	1,61
013205  263040 000062    68@  R    ,b???    POPJ	1,62
013206  263040 000063    68@  S    ,b???    POPJ	1,63
013207  263040 000064    68@  T    ,b???    POPJ	1,64
013210  263040 000065    68@  U    ,b???    POPJ	1,65
013211  263040 000066    68@  V    ,b???    POPJ	1,66
013212  270507 025402    7%'"L"    .?8+?    ADD	12,25402(7)
013213  270507 025411    7%'"L)    .?8+?    ADD	12,25411(7)
013214  270507 025420    7%'"L0    .?8+?    ADD	12,25420(7)
013215  270507 025427    7%'"L7    .?8+?    ADD	12,25427(7)
013216  270507 025436    7%'"L>    .?8+?    ADD	12,25436(7)
013217  270507 025445    7%'"LE    .?8+?    ADD	12,25445(7)
013220  270507 025454    7%'"LL    .?8+?    ADD	12,25454(7)
013221  270507 025463    7%'"LS    .?8+?    ADD	12,25463(7)
013222  270507 025472    7%'"LZ    .?8+?    ADD	12,25472(7)
013223  270507 025501    7%'"M!    .?8+     ADD	12,25501(7)
013224  270507 025510    7%'"M(    .?8+$    ADD	12,25510(7)
013225  270507 025517    7%'"M/    .?8+'    ADD	12,25517(7)
013226  270507 025526    7%'"M6    .?8++    ADD	12,25526(7)
013227  270507 025535    7%'"M=    .?8+.    ADD	12,25535(7)
013230  270507 025544    7%'"MD    .?8+2    ADD	12,25544(7)
013231  270507 025553    7%'"MK    .?8+5    ADD	12,25553(7)
013232  270507 025562    7%'"MR    .?8+9    ADD	12,25562(7)
013233  270507 025571    7%'"MY    .?8+<    ADD	12,25571(7)
013234  270507 025600    7%'"N     .?8+@    ADD	12,25600(7)
013235  270507 025607    7%'"N'    .?8+C    ADD	12,25607(7)
013236  270507 025616    7%'"N.    .?8+G    ADD	12,25616(7)
013237  270507 025625    7%'"N5    .?8+J    ADD	12,25625(7)
013240  270507 025634    7%'"N<    .?8+N    ADD	12,25634(7)
013241  270507 025643    7%'"NC    .?8+Q    ADD	12,25643(7)
013242  270507 025652    7%'"NJ    .?8+U    ADD	12,25652(7)
013243  270507 025661    7%'"NQ    .?8+X    ADD	12,25661(7)
013244  263040 000067    68@  W    ,b???    POPJ	1,67
013245  263040 000070    68@  X    ,b???    POPJ	1,70
013246  263040 000071    68@  Y    ,b???    POPJ	1,71
013247  263040 000072    68@  Z    ,b???    POPJ	1,72
013250  263040 000073    68@  [    ,b???    POPJ	1,73
013251  263040 000076    68@  ^    ,b???    POPJ	1,76
013252  254000 015506    5@ !M&    +???#    JRST	0,15506
013253  263040 000076    68@  ^    ,b???    POPJ	1,76
013254  263040 000076    68@  ^    ,b???    POPJ	1,76
013255  263040 000076    68@  ^    ,b???    POPJ	1,76
013256  263040 000076    68@  ^    ,b???    POPJ	1,76
013257  263040 000076    68@  ^    ,b???    POPJ	1,76
013260  263040 000076    68@  ^    ,b???    POPJ	1,76
013261  263040 000076    68@  ^    ,b???    POPJ	1,76
013262  263040 000076    68@  ^    ,b???    POPJ	1,76
013263  263040 000076    68@  ^    ,b???    POPJ	1,76
013264  263040 000076    68@  ^    ,b???    POPJ	1,76
013265  263040 000076    68@  ^    ,b???    POPJ	1,76
013266  263040 000076    68@  ^    ,b???    POPJ	1,76
013267  263040 000076    68@  ^    ,b???    POPJ	1,76
013270  263040 000076    68@  ^    ,b???    POPJ	1,76
013271  263040 000076    68@  ^    ,b???    POPJ	1,76
013272  263040 000076    68@  ^    ,b???    POPJ	1,76
013273  263040 000076    68@  ^    ,b???    POPJ	1,76
013274  263040 000076    68@  ^    ,b???    POPJ	1,76
013275  263040 000076    68@  ^    ,b???    POPJ	1,76
013276  263040 000076    68@  ^    ,b???    POPJ	1,76
013277  263040 000076    68@  ^    ,b???    POPJ	1,76
013300  263040 000076    68@  ^    ,b???    POPJ	1,76
013301  263040 000076    68@  ^    ,b???    POPJ	1,76
013302  263040 000076    68@  ^    ,b???    POPJ	1,76
013303  263040 000076    68@  ^    ,b???    POPJ	1,76
013304  263040 000076    68@  ^    ,b???    POPJ	1,76
013305  263040 000076    68@  ^    ,b???    POPJ	1,76
013306  263040 000076    68@  ^    ,b???    POPJ	1,76
013307  263040 000076    68@  ^    ,b???    POPJ	1,76
013310  263040 000076    68@  ^    ,b???    POPJ	1,76
013311  000000 000000              ?????    UUO00	0,0
013312  000000 000013         +    ?????    UUO00	0,13
013313  000000 000670        &X    ????\    UUO00	0,670
013314  000000 042300       $3     ???D`    UUO00	0,42300
013315  000002 537000      "KX     ???>?    UUO00	0,537000(2)
013316  000153 330000     !K;      ??[0?    UUO00	3,330000(13)
013317  010310 700000    !#(X      ??G??    UUO10	6,700000(10)
013320  000000 000000              ?????    UUO00	0,0
013321  000000 000014         ,    ?????    UUO00	0,14
013322  000000 000740        '@    ????p    UUO00	0,740
013323  000000 045400       $L     ???K?    UUO00	0,45400
013324  000002 734000      "[@     ???8?    UUO00	0,734000(2)
013325  000165 140000     !U,      ??)@?    UUO00	3,@140000(5)
013326  011117 400000    !)/@      ?$|??    UUO11	2,400000(17)
013327  000000 000000              ?????    UUO00	0,0
013330  000000 000015         -    ?????    UUO00	0,15
013331  000000 001010        ((    ?????    UUO00	0,1010
013332  000000 050500       %%     ???Q     UUO00	0,50500
013333  000003 131000      #+(     ???2?    UUO00	0,131000(3)
013334  000176 750000     !^]      ??wP?    UUO00	3,@750000(16)
013335  011726 100000    !/6(      ?=1??    UUO11	16,@100000(6)
013336  000000 000000              ?????    UUO00	0,0
013337  000000 000016         .    ?????    UUO00	0,16
013340  000000 001060        (P    ?????    UUO00	0,1060
013341  000000 053600       %>     ???W@    UUO00	0,53600
013342  000003 326000      #:P     ???,?    UUO00	0,326000(3)
013343  000210 560000     "(N      ??E`?    UUO00	4,560000(10)
013344  012534 600000    !5<P      ?Uf??    UUO12	12,@600000(14)
013345  000000 000000              ?????    UUO00	0,0
013346  000000 000017         /    ?????    UUO00	0,17
013347  000000 001130        )8    ????,    UUO00	0,1130
013350  000000 056700       %W     ???]`    UUO00	0,56700
013351  000003 523000      #J8     ???&?    UUO00	0,523000(3)
013352  000222 370000     "2?      ???p?    UUO00	4,@370000(2)
013353  013343 300000    !;C8      ?n???    UUO13	7,300000(3)
013354  000000 000000              ?????    UUO00	0,0
013355  000000 000020         0    ?????    UUO00	0,20
013356  000000 001200        *     ????@    UUO00	0,1200
013357  000000 062000       &0     ???d?    UUO00	0,62000
013360  000003 720000      #Z      ??? ?    UUO00	0,720000(3)
013361  000234 200000     "<0      ??b??    UUO00	4,@200000(14)
013362  014152 000000    !AJ       ??P??    UUO14	3,0(12)
013363  000000 000000              ?????    UUO00	0,0
013364  000000 000021         1    ?????    UUO00	0,21
013365  000000 001250        *H    ????T    UUO00	0,1250
013366  000000 065100       &I     ???j     UUO00	0,65100
013367  000004 115000      $)H     ??!??    UUO00	0,115000(4)
013370  000246 010000     "F!      ??0??    UUO00	5,10000(6)
013371  014760 500000    !GPH      ?????    UUO14	17,@500000
013372  000000 000000              ?????    UUO00	0,0
013373  000000 000022         2    ?????    UUO00	0,22
013374  000000 001320        +0    ????h    UUO00	0,1320
013375  000000 070200       '"     ???p@    UUO00	0,70200
013376  000004 312000      $90     ??#??    UUO00	0,312000(4)
013377  000257 620000     "OR      ??~ ?    UUO00	5,620000(17)
013400  015567 200000    !MW0      ?7:??    UUO15	13,@200000(7)
013401  000000 000000              ?????    UUO00	0,0
013402  000000 000023         3    ?????    UUO00	0,23
013403  000000 001370        +X    ????|    UUO00	0,1370
013404  000000 073300       ';     ???v`    UUO00	0,73300
013405  000004 507000      $HX     ??%??    UUO00	0,507000(4)
013406  000271 430000     "YC      ??L0?    UUO00	5,@430000(11)
013407  016375 700000    !S]X      ?Oo??    UUO16	7,@700000(15)
013410  000000 000000              ?????    UUO00	0,0
013411  000000 000024         4    ?????    UUO00	0,24
013412  000000 001440        ,@    ?????    UUO00	0,1440
013413  000000 076400       'T     ???}?    UUO00	0,76400
013414  000004 704000      $X@     ??'??    UUO00	0,704000(4)
013415  000303 240000     ##4      ???@?    UUO00	6,240000(3)
013416  017204 400000    !Z$@      ?h$??    UUO17	4,400000(4)
013417  000000 000000              ?????    UUO00	0,0
013420  000000 000025         5    ?????    UUO00	0,25
013421  000000 001510        -(    ????$    UUO00	0,1510
013422  000000 101500       (-     ????     UUO00	0,101500
013423  000005 101000      %((     ??)??    UUO00	0,101000(5)
013424  000315 050000     #-%      ??hP?    UUO00	6,50000(15)
013425  020013 100000    " +(      ??Y??    UUO20	0,100000(13)
013426  000000 000000              ?????    UUO00	0,0
013427  000000 000026         6    ?????    UUO00	0,26
013430  000000 001560        -P    ????8    UUO00	0,1560
013431  000000 104600       (F     ????@    UUO00	0,104600
013432  000005 276000      %7P     ??*|?    UUO00	0,276000(5)
013433  000326 660000     #6V      ??6`?    UUO00	6,@660000(6)
013434  020621 600000    "&1P      ?????    UUO20	14,@600000(1)
013435  000000 000000              ?????    UUO00	0,0
013436  000000 000027         7    ?????    UUO00	0,27
013437  000000 001630        .8    ????L    UUO00	0,1630
013440  000000 107700       (_     ????`    UUO00	0,107700
013441  000005 473000      %G8     ??,v?    UUO00	0,473000(5)
013442  000340 470000     #@G      ???p?    UUO00	7,470000
013443  021430 300000    ",88      ?1C??    UUO21	10,@300000(10)
013444  000000 000000              ?????    UUO00	0,0
013445  000000 000030         8    ?????    UUO00	0,30
013446  000000 001700        /     ????`    UUO00	0,1700
013447  000000 113000       )8     ?????    UUO00	0,113000
013450  000005 670000      %W      ??.p?    UUO00	0,670000(5)
013451  000352 300000     #J8      ??S??    UUO00	7,300000(12)
013452  022237 000000    "2?       ?Ix??    UUO22	4,@0(17)
013453  000000 000000              ?????    UUO00	0,0
013454  000000 000031         9    ?????    UUO00	0,31
013455  000000 001750        /H    ????t    UUO00	0,1750
013456  000000 116100       )Q     ????     UUO00	0,116100
013457  000006 065000      &&H     ??0j?    UUO00	0,65000(6)
013460  000364 110000     #T)      ??!??    UUO00	7,@110000(4)
013461  023045 500000    "8EH      ?b-??    UUO23	1,500000(5)
013462  000000 000000              ?????    UUO00	0,0
013463  000000 000032         :    ?????    UUO00	0,32
013464  000000 002020        00    ?????    UUO00	0,2020
013465  000000 121200       **     ???"@    UUO00	0,121200
013466  000006 262000      &60     ??2d?    UUO00	0,262000(6)
013467  000375 720000     #]Z      ??o ?    UUO00	7,@720000(15)
013470  023654 200000    ">L0      ?zb??    UUO23	15,200000(14)
013471  000000 000000              ?????    UUO00	0,0
013472  000000 000033         ;    ?????    UUO00	0,33
013473  000000 002070        0X    ?????    UUO00	0,2070
013474  000000 124300       *C     ???(`    UUO00	0,124300
013475  000006 457000      &EX     ??4^?    UUO00	0,457000(6)
013476  000407 530000     $'K      ??=0?    UUO00	10,530000(7)
013477  024462 700000    "DRX      ?????    UUO24	11,@700000(2)
013500  000000 000000              ?????    UUO00	0,0
013501  000000 000034         <    ?????    UUO00	0,34
013502  000000 002140        1@    ????0    UUO00	0,2140
013503  000000 127400       *\     ???/?    UUO00	0,127400
013504  000006 654000      &U@     ??6X?    UUO00	0,654000(6)
013505  000421 340000     $1<      ???@?    UUO00	10,@340000(1)
013506  025271 400000    "JY@      ?+L??    UUO25	5,@400000(11)
013507  000000 000000              ?????    UUO00	0,0
013510  000000 000035         =    ?????    UUO00	0,35
013511  000000 002210        2(    ????D    UUO00	0,2210
013512  000000 132500       +5     ???5     UUO00	0,132500
013513  000007 051000      '%(     ??8R?    UUO00	0,51000(7)
013514  000433 150000     $;-      ??YP?    UUO00	10,@150000(13)
013515  026100 100000    "Q (      ?D???    UUO26	2,100000
013516  000000 000000              ?????    UUO00	0,0
013517  000000 000036         >    ?????    UUO00	0,36
013520  000000 002260        2P    ????X    UUO00	0,2260
013521  000000 135600       +N     ???;@    UUO00	0,135600
013522  000007 246000      '4P     ??:L?    UUO00	0,246000(7)
013523  000444 760000     $D^      ??'`?    UUO00	11,760000(4)
013524  026706 600000    "W&P      ?\6??    UUO26	16,600000(6)
013525  000000 000000              ?????    UUO00	0,0
013526  000000 000037         ?    ?????    UUO00	0,37
013527  000000 002330        38    ????l    UUO00	0,2330
013530  000000 140700       ,'     ???A`    UUO00	0,140700
013531  000007 443000      'D8     ??<F?    UUO00	0,443000(7)
013532  000456 570000     $NO      ??up?    UUO00	11,570000(16)
013533  027515 300000    "]-8      ?tk??    UUO27	12,300000(15)
013534  000000 000000              ?????    UUO00	0,0
013535  000000 000040         @    ?????    UUO00	0,40
013536  000000 002400        4     ?????    UUO00	0,2400
013537  000000 144000       ,@     ???H?    UUO00	0,144000
013540  000007 640000      'T      ??>@?    UUO00	0,640000(7)
013541  000470 400000     $X@      ??D??    UUO00	11,@400000(10)
013542  030324 000000    ##4       ?? ??    UUO30	6,@0(4)
013543  000000 000000              ?????    UUO00	0,0
013544  000000 000041         A    ?????    UUO00	0,41
013545  000000 002450        4H    ?????    UUO00	0,2450
013546  000000 147100       ,Y     ???N     UUO00	0,147100
013547  000010 035000      (#H     ??@:?    UUO00	0,35000(10)
013550  000502 210000     %"1      ?????    UUO00	12,210000(2)
013551  031132 500000    #):H      ?%U??    UUO31	2,@500000(12)
013552  000000 000000              ?????    UUO00	0,0
013553  000000 000042         B    ?????    UUO00	0,42
013554  000000 002520        50    ????(    UUO00	0,2520
013555  000000 152200       -2     ???T@    UUO00	0,152200
013556  000010 232000      (30     ??B4?    UUO00	0,232000(10)
013557  000514 020000     %,"      ??` ?    UUO00	12,20000(14)
013560  031741 200000    #/A0      ?>???    UUO31	17,200000(1)
013561  000000 000000              ?????    UUO00	0,0
013562  000000 000043         C    ?????    UUO00	0,43
013563  000000 002570        5X    ????<    UUO00	0,2570
013564  000000 155300       -K     ???Z`    UUO00	0,155300
013565  000010 427000      (BX     ??D.?    UUO00	0,427000(10)
013566  000525 630000     %5S      ??.0?    UUO00	12,@630000(5)
013567  032547 700000    #5GX      ?V???    UUO32	13,700000(7)
013570  000000 000000              ?????    UUO00	0,0
013571  000000 000044         D    ?????    UUO00	0,44
013572  000000 002640        6@    ????P    UUO00	0,2640
013573  000000 160400       .$     ???a?    UUO00	0,160400
013574  000010 624000      (R@     ??F(?    UUO00	0,624000(10)
013575  000537 440000     %?D      ??|@?    UUO00	12,@440000(17)
013576  033356 400000    #;N@      ?nt??    UUO33	7,400000(16)
013577  000000 000000              ?????    UUO00	0,0
013600  000000 000002         "    ?????    UUO00	0,2
013601  000000 000120        !0    ????(    UUO00	0,120
013602  000000 006200        R     ????@    UUO00	0,6200
013603  000000 372000       ?0     ???t?    UUO00	0,372000
013604  000023 420000      3B      ??? ?    UUO00	0,@420000(3)
013605  001415 200000     ,-0      ?0j??    UUO01	10,200000(15)
013606  000000 000000              ?????    UUO00	0,0
013607  000000 000003         #    ?????    UUO00	0,3
013610  000000 000170        !X    ????<    UUO00	0,170
013611  000000 011300       !+     ????`    UUO00	0,11300
013612  000000 567000       NX     ???n?    UUO00	0,567000
013613  000035 230000      =3      ??j0?    UUO00	0,@230000(15)
013614  002223 700000     23X      ?I???    UUO02	4,@700000(3)
013615  000000 000000              ?????    UUO00	0,0
013616  000000 000004         $    ?????    UUO00	0,4
013617  000000 000240        "@    ????P    UUO00	0,240
013620  000000 014400       !D     ?????    UUO00	0,14400
013621  000000 764000       ^@     ???h?    UUO00	0,764000
013622  000047 040000      G$      ??8@?    UUO00	1,40000(7)
013623  003032 400000     8:@      ?aT??    UUO03	0,@400000(12)
013624  000000 000000              ?????    UUO00	0,0
013625  000000 000005         %    ?????    UUO00	0,5
013626  000000 000310        #(    ????d    UUO00	0,310
013627  000000 017500       !]     ????     UUO00	0,17500
013630  000001 161000      !.(     ???b?    UUO00	0,161000(1)
013631  000060 650000      PU      ???P?    UUO00	1,@650000
013632  003641 100000     >A(      ?z???    UUO03	15,100000(1)
013633  000000 000000              ?????    UUO00	0,0
013634  000000 000006         &    ?????    UUO00	0,6
013635  000000 000360        #P    ????x    UUO00	0,360
013636  000000 022600       "6     ???%@    UUO00	0,22600
013637  000001 356000      !=P     ???\?    UUO00	0,356000(1)
013640  000072 460000      ZF      ??T`?    UUO00	1,@460000(12)
013641  004447 600000     DGP      ??>??    UUO04	11,600000(7)
013642  000000 000000              ?????    UUO00	0,0
013643  000000 000007         '    ?????    UUO00	0,7
013644  000000 000430        $8    ?????    UUO00	0,430
013645  000000 025700       "O     ???+`    UUO00	0,25700
013646  000001 553000      !M8     ???V?    UUO00	0,553000(1)
013647  000104 270000     !$7      ??"p?    UUO00	2,270000(4)
013650  005256 300000     JN8      ?*s??    UUO05	5,300000(16)
013651  000000 000000              ?????    UUO00	0,0
013652  000000 000010         (    ?????    UUO00	0,10
013653  000000 000500        %     ????     UUO00	0,500
013654  000000 031000       #(     ???2?    UUO00	0,31000
013655  000001 750000      !]      ???P?    UUO00	0,750000(1)
013656  000116 100000     !.(      ??q??    UUO00	2,100000(16)
013657  006065 000000     PU       ?C(??    UUO06	1,@0(5)
013660  000000 000000              ?????    UUO00	0,0
013661  000000 000011         )    ?????    UUO00	0,11
013662  000000 000550        %H    ????4    UUO00	0,550
013663  000000 034100       #A     ???8     UUO00	0,34100
013664  000002 145000      ",H     ???J?    UUO00	0,145000(2)
013665  000127 710000     !7Y      ?????    UUO00	2,@710000(7)
013666  006673 500000     V[H      ?[]??    UUO06	15,@500000(13)
013667  000000 000000              ?????    UUO00	0,0
013670  000000 000012         *    ?????    UUO00	0,12
013671  000000 000620        &0    ????H    UUO00	0,620
013672  000000 037200       #Z     ???>@    UUO00	0,37200
013673  000002 342000      "<0     ???D?    UUO00	0,342000(2)
013674  000141 520000     !AJ      ??? ?    UUO00	3,520000(1)
013675  007502 200000     ]"0      ?t???    UUO07	12,200000(2)
013676  000000 000000              ?????    UUO00	0,0
013677  000000 000001         !    ?????    UUO00	0,1
013700  000000 000050         H    ?????    UUO00	0,50
013701  000000 003100        9     ????     UUO00	0,3100
013702  000000 175000       /H     ???z?    UUO00	0,175000
013703  000011 610000      )Q      ??N??    UUO00	0,610000(11)
013704  000606 500000     &&H      ??5??    UUO00	14,500000(6)
013705  000000 000000              ?????    UUO00	0,0
013706  000000 000046         F    ?????    UUO00	0,46
013707  305260 233131    8JP399    1+?6,    CAIGE	5,@233131
013710  776575 026000    _U]"P     ?Wh,?    DATAO	764,@26000(15)
013711  000000 002760        7P    ????x    UUO00	0,2760
013712  000000 166600       .V     ???m@    UUO00	0,166600
013713  000011 216000      )1P     ??J??    UUO00	0,216000(11)
013714  000563 060000     %S&      ???`?    UUO00	13,@60000(3)
013715  034773 600000    #G[P      ??^??    UUO34	17,@600000(13)
013716  000000 000000              ?????    UUO00	0,0
013717  000000 000047         G    ?????    UUO00	0,47
013720  000000 003030        88    ?????    UUO00	0,3030
013721  000000 171700       //     ???s`    UUO00	0,171700
013722  000011 413000      )A8     ??L??    UUO00	0,413000(11)
013723  000574 670000     %\W      ??fp?    UUO00	13,@670000(14)
013724  035602 300000    #N"8      ?8???    UUO35	14,300000(2)
013725  000000 000000              ?????    UUO00	0,0
013726  000000 000045         E    ?????    UUO00	0,45
013727  000000 002710        7(    ????d    UUO00	0,2710
013730  000000 163500       .=     ???g     UUO00	0,163500
013731  000011 021000      )"(     ??H"?    UUO00	0,21000(11)
013732  000551 250000     %I5      ??JP?    UUO00	13,250000(11)
013733  034165 100000    #AU(      ??)??    UUO34	3,@100000(5)
013734  773767 750000    _?W]      ~??P?    CONSO	734,@750000(7)
013735  515200 535241    IJ KJA    S(?:P    HRLZI	4,535241
013736  402004 073110    @0$'9(    @@ v$    SETZM	0,73110(4)
013737  253200 026025    5: "P5    *h?,?    AOBJN	4,26025
013740  201140 026063    0)@"PS     &?,?    MOVEI	3,26063
013741  201600 132000    0. +0      8?4?    MOVEI	14,132000
013742  301140 026631    8)@"V9    0&?-L    CAIL	3,26631
013743  254000 026044    5@ "PD    +??,?    JRST	0,26044
013744  200503 000000    0%#        ????    MOVE	12,0(3)
013745  322500 026042    :5 "PB    4T?,?    JUMPE	12,26042
013746  260040 021750    6 @"/H    ,??#t    PUSHJ	1,21750
013747  515400 100000    IL (      S0???    HRLZI	10,100000
013750  514240 000014    IB@  ,    S????    HRLZ	5,14
013751  205300 040000    0K $      !,?@?    MOVSI	6,40000
013752  260040 022042    6 @"0B    ,??$?    PUSHJ	1,22042
013753  271600 001000    7.  (     .8???    ADDI	14,1000
013754  344140 026031    <A@"P9    9??,?    AOJA	3,26031
013755  301140 027203    8)@"Z#    0&?.A    CAIL	3,27203
013756  254000 021005    5@ "(%    +??"?    JRST	0,21005
013757  200503 000000    0%#        ????    MOVE	12,0(3)
013760  135400 026061    +L "PQ    ?0?,?    LDB	10,26061
013761  241400 777774    4, __\    (0??~    ROT	10,777774
013762  260040 021750    6 @"/H    ,??#t    PUSHJ	1,21750
013763  200243 000001    0"C  !     ????    MOVE	5,1(3)
013764  205300 040000    0K $      !,?@?    MOVSI	6,40000
013765  316400 026062    9T "PR    3P?,?    CAMN	10,26062
013766  661300 004000    V+  @     l,???    TLO	6,4000
013767  260040 022042    6 @"0B    ,??$?    PUSHJ	1,22042
013770  350000 000003    =    #    :????    AOS	0,3
013771  344140 026044    <A@"PD    9??,?    AOJA	3,26044
013772  400400 000012    @$   *    @????    SETZ	10,12
013773  440000 000000    D         H????    ANDCB	0,0
013774  114610 301000    )F(8(     ??C??    XX114	14,301000(10)
013775  116571 322000    )UY:0     ?WK$?    XX116	13,@322000(11)
013776  116730 153400    )W8-<     ?]AW?    XX116	16,@153400(10)
013777  121035 314000    *(=9@     ?!k??    XX121	0,@314000(15)
014000  116615 007400    )V- \     ?Xh??    XX116	14,7400(15)
014001  113135 454000    )9=E@     ?elX?    XX113	2,@454000(15)
014002  114330 656000    )C8UP     ??F\?    XX114	6,@656000(10)
014003  114330 762600    )C8^6     ??Ge@    XX114	6,@762600(10)
014004  114330 765700    )C8^O     ??Gk`    XX114	6,@765700(10)
014005  114330 723400    )C8Z<     ??G'?    XX114	6,@723400(10)
014006  114331 005400    )C9 L     ??H??    XX114	6,@5400(11)
014007  114331 007160    )C9 YP    ??H?8    XX114	6,@7160(11)
014010  114331 007230    )C9 Z8    ??H?L    XX114	6,@7230(11)
014011  114331 006340    )C9 S@    ??H?p    XX114	6,@6340(11)
014012  114610 104000    )F((@     ??A??    XX114	14,104000(10)
014013  114610 210600    )F(1&     ??B?@    XX114	14,210600(10)
014014  114610 213700    )F(1?     ??B?`    XX114	14,213700(10)
014015  114610 151400    )F(-,     ??AS?    XX114	14,151400(10)
014016  114610 233400    )F(3<     ??B7?    XX114	14,233400(10)
014017  114610 235160    )F(3IP    ??B:8    XX114	14,235160(10)
014020  114610 235230    )F(3J8    ??B:L    XX114	14,235230(10)
014021  114610 234340    )F(3C@    ??B8p    XX114	14,234340(10)
014022  114520 752000    )E0]0     ???T?    XX114	12,@752000
014023  114521 056600    )E1%V     ???]@    XX114	12,@56600(1)
014024  114521 061700    )E1&/     ???c`    XX114	12,@61700(1)
014025  114521 017400    )E1!\     ?????    XX114	12,@17400(1)
014026  114521 101400    )E1(,     ?????    XX114	12,@101400(1)
014027  114521 103160    )E1(9P    ????8    XX114	12,@103160(1)
014030  114521 103230    )E1(:8    ????L    XX114	12,@103230(1)
014031  114521 102340    )E1(3@    ????p    XX114	12,@102340(1)
014032  114372 420000    )CZB      ??T ?    XX114	7,@420000(12)
014033  114372 524600    )CZJF     ??U)@    XX114	7,@524600(12)
014034  114372 527700    )CZJ_     ??U/`    XX114	7,@527700(12)
014035  114372 465400    )CZFL     ??Tk?    XX114	7,@465400(12)
014036  114372 547400    )CZL\     ??UO?    XX114	7,@547400(12)
014037  114372 551160    )CZM)P    ??UR8    XX114	7,@551160(12)
014040  114372 551230    )CZM*8    ??URL    XX114	7,@551230(12)
014041  114372 550340    )CZM#@    ??UPp    XX114	7,@550340(12)
014042  122024 326700    *04:W     ?A#-`    XX122	0,@326700(4)
014043  122024 330270    *04;"X    ?A#0\    XX122	0,@330270(4)
014044  122024 330530    *04;%8    ?A#1,    XX122	0,@330530(4)
014045  122024 331110    *04;)(    ?A#2$    XX122	0,@331110(4)
014046  122024 402500    *04@5     ?A$?     XX122	0,@402500(4)
014047  122024 404070    *04@@X    ?A$??    XX122	0,@404070(4)
014050  122024 404330    *04@C8    ?A$?l    XX122	0,@404330(4)
014051  122024 404710    *04@G(    ?A$?d    XX122	0,@404710(4)
014052  122024 363000    *04>8     ?A#f?    XX122	0,@363000(4)
014053  122024 364370    *04>CX    ?A#h|    XX122	0,@364370(4)
014054  122024 364630    *04>F8    ?A#iL    XX122	0,@364630(4)
014055  122024 365210    *04>J(    ?A#jD    XX122	0,@365210(4)
014056  122024 357700    *04=_     ?A#_`    XX122	0,@357700(4)
014057  122024 361270    *04>*X    ?A#b\    XX122	0,@361270(4)
014060  122024 361530    *04>-8    ?A#c,    XX122	0,@361530(4)
014061  122024 362110    *04>1(    ?A#d$    XX122	0,@362110(4)
014062  116746 137600    )WF+^     ?^1?@    XX116	17,137600(6)
014063  116746 141170    )WF,)X    ?^1B<    XX116	17,141170(6)
014064  116746 141430    )WF,,8    ?^1C?    XX116	17,141430(6)
014065  116746 140540    )WF,%@    ?^1A0    XX116	17,140540(6)
014066  122114 366000    *1,>P     ?Dcl?    XX122	2,366000(14)
014067  122114 461300    *1,F+     ?Ddb`    XX122	2,461300(14)
014070  122114 475700    *1,GO     ?Dd{`    XX122	2,475700(14)
014071  122114 433400    *1,C<     ?Dd7?    XX122	2,433400(14)
014072  116613 333000    )V+;8     ?X[6?    XX116	14,333000(13)
014073  116613 334370    )V+;CX    ?X[8|    XX116	14,334370(13)
014074  116613 334630    )V+;F8    ?X[9L    XX116	14,334630(13)
014075  116613 333740    )V+;?@    ?X[7p    XX116	14,333740(13)
014076  113036 070000    )8>'      ?app?    XX113	0,@70000(16)
014077  113036 163300    )8>.;     ?aqf`    XX113	0,@163300(16)
014100  113036 177700    )8>/_     ?aq?`    XX113	0,@177700(16)
014101  113036 135400    )8>+L     ?aq;?    XX113	0,@135400(16)
014102  110750 362000    )'H>0     ??Cd?    XX110	17,362000(10)
014103  125664 756000    *NT]P     ?;'\?    XX125	15,@756000(4)
014104  121261 262000    **Q60     ?+?d?    XX121	5,@262000(1)
014105  000000 000000              ?????    UUO00	0,0
014106  110750 432500    )'HC5     ??D5     XX110	17,432500(10)
014107  125665 026500    *NU"U     ?;(-     XX125	15,@26500(5)
014110  121261 332500    **Q;5     ?+?5     XX121	5,@332500(1)
014111  000000 000000              ?????    UUO00	0,0
014112  114062 541200    )@RL*     ???B@    XX114	1,@541200(2)
014113  111455 526000    ),MJP     ?2m,?    XX111	11,526000(15)
014114  110700 044420    )' $D0    ???I?    XX110	16,44420
014115  110700 044300    )' $C     ???H`    XX110	16,44300
014116  117635 146600    )^=,V     ?yiM@    XX117	14,@146600(15)
014117  117444 035600    )\D#N     ?r ;@    XX117	11,35600(4)
014120  132147 416000    +1GAP     ?F<??    FSC	3,416000(7)
014121  000000 000000              ?????    UUO00	0,0
014122  124342 132640    *CB+6@    ???5P    XX124	7,132640(2)
014123  124342 131200    *CB+*     ???2@    XX124	7,131200(2)
014124  124246 572000    *BFO0     ??5t?    XX124	5,572000(6)
014125  124246 670400    *BFW$     ??6q?    XX124	5,670400(6)
014126  117646 424000    )^FB@     ?z4(?    XX117	15,424000(6)
014127  117646 032000    )^F#0     ?z04?    XX117	15,32000(6)
014130  117642 307000    )^B8X     ?z???    XX117	15,307000(2)
014131  117630 477000    )^8GX     ?yD~?    XX117	14,@477000(10)
014132  110525 006000    )%5 P     ??(??    XX110	12,@6000(5)
014133  110525 101300    )%5(+     ??)?`    XX110	12,@101300(5)
014134  110525 115700    )%5)O     ??)?`    XX110	12,@115700(5)
014135  110525 053400    )%5%<     ??(W?    XX110	12,@53400(5)
014136  126561 624000    *UQR@     ?W?(?    XX126	13,@624000(1)
014137  126561 717300    *UQY[     ?W??`    XX126	13,@717300(1)
014140  126561 733700    *UQ[?     ?W?7`    XX126	13,@733700(1)
014141  126561 671400    *UQW,     ?W?s?    XX126	13,@671400(1)
014142  112106 137000    )1&+X     ?D1>?    XX112	2,137000(6)
014143  112106 243600    )1&4>     ?D2G@    XX112	2,243600(6)
014144  112106 215700    )1&1O     ?D2?`    XX112	2,215700(6)
014145  112106 244730    )1&4G8    ?D2Il    XX112	2,244730(6)
014146  112106 201300    )1&0+     ?D2?`    XX112	2,201300(6)
014147  112106 225230    )1&2J8    ?D2*L    XX112	2,225230(6)
014150  112106 252000    )1&50     ?D2T?    XX112	2,252000(6)
014151  112106 224100    )1&2A     ?D2(     XX112	2,224100(6)
014152  112107 123000    )1'*8     ?D9&?    XX112	2,123000(7)
014153  112107 227600    )1'2^     ?D:/@    XX112	2,227600(7)
014154  112107 201700    )1'0/     ?D:?`    XX112	2,201700(7)
014155  112107 230730    )1'3'8    ?D:1l    XX112	2,230730(7)
014156  112107 165300    )1'.K     ?D9j`    XX112	2,165300(7)
014157  112107 211230    )1'1*8    ?D:?L    XX112	2,211230(7)
014160  112107 236000    )1'3P     ?D:<?    XX112	2,236000(7)
014161  112107 210100    )1'1!     ?D:?     XX112	2,210100(7)
014162  117671 004200    )^Y B     ?{H?@    XX117	15,@4200(11)
014163  117671 005760    )^Y OP    ?{H?x    XX117	15,@5760(11)
014164  117671 005330    )^Y K8    ?{H?l    XX117	15,@5330(11)
014165  117671 005777    )^Y O_    ?{H??    XX117	15,@5777(11)
014166  117671 005070    )^Y HX    ?{H??    XX117	15,@5070(11)
014167  117671 005467    )^Y LW    ?{H??    XX117	15,@5467(11)
014170  117671 006100    )^Y Q     ?{H?     XX117	15,@6100(11)
014171  117671 005450    )^Y LH    ?{H??    XX117	15,@5450(11)
014172  126422 000200    *T2 "     ?Q??@    XX126	10,@200(2)
014173  126422 001760    *T2 /P    ?Q??x    XX126	10,@1760(2)
014174  126422 001330    *T2 +8    ?Q??l    XX126	10,@1330(2)
014175  126422 001777    *T2 /_    ?Q???    XX126	10,@1777(2)
014176  126422 001070    *T2 (X    ?Q???    XX126	10,@1070(2)
014177  126422 001467    *T2 ,W    ?Q???    XX126	10,@1467(2)
014200  126422 002100    *T2 1     ?Q??     XX126	10,@2100(2)
014201  126422 001450    *T2 ,H    ?Q???    XX126	10,@1450(2)
014202  110701 714000    )'!Y@     ?????    XX110	16,714000(1)
014203  110702 020600    )'""&     ???!@    XX110	16,20600(2)
014204  110701 772700    )'!_7     ???u`    XX110	16,772700(1)
014205  110702 021730    )'""/8    ???#l    XX110	16,21730(2)
014206  110701 756300    )'!]S     ???\`    XX110	16,756300(1)
014207  110702 002230    )'" 28    ????L    XX110	16,2230(2)
014210  110702 027000    )'""X     ???.?    XX110	16,27000(2)
014211  110702 001100    )'" )     ????     XX110	16,1100(2)
014212  110704 061000    )'$&(     ?? b?    XX110	16,61000(4)
014213  110704 165600    )'$.N     ??!k@    XX110	16,165600(4)
014214  110704 137700    )'$+_     ??!?`    XX110	16,137700(4)
014215  110704 166730    )'$.W8    ??!ml    XX110	16,166730(4)
014216  110704 123300    )'$*;     ??!&`    XX110	16,123300(4)
014217  110704 147230    )'$,Z8    ??!NL    XX110	16,147230(4)
014220  110704 174000    )'$/@     ??!x?    XX110	16,174000(4)
014221  110704 146100    )'$,Q     ??!L     XX110	16,146100(4)
014222  126471 114000    *TY)@     ?SI??    XX126	11,@114000(11)
014223  126471 220600    *TY2&     ?SJ!@    XX126	11,@220600(11)
014224  126471 172700    *TY/7     ?SIu`    XX126	11,@172700(11)
014225  126471 221730    *TY2/8    ?SJ#l    XX126	11,@221730(11)
014226  126471 156300    *TY-S     ?SI\`    XX126	11,@156300(11)
014227  126471 202230    *TY028    ?SJ?L    XX126	11,@202230(11)
014230  126471 227000    *TY2X     ?SJ.?    XX126	11,@227000(11)
014231  126471 201100    *TY0)     ?SJ?     XX126	11,@201100(11)
014232  126473 261000    *T[6(     ?SZb?    XX126	11,@261000(13)
014233  126473 365600    *T[>N     ?S[k@    XX126	11,@365600(13)
014234  126473 337700    *T[;_     ?S[?`    XX126	11,@337700(13)
014235  126473 366730    *T[>W8    ?S[ml    XX126	11,@366730(13)
014236  126473 323300    *T[:;     ?S[&`    XX126	11,@323300(13)
014237  126473 347230    *T[<Z8    ?S[NL    XX126	11,@347230(13)
014240  126473 374000    *T[?@     ?S[x?    XX126	11,@374000(13)
014241  126473 346100    *T[<Q     ?S[L     XX126	11,@346100(13)
014242  126332 116400    *S:)T     ?MQ??    XX126	6,@116400(12)
014243  126332 117770    *S:)_X    ?MQ?|    XX126	6,@117770(12)
014244  126332 120230    *S:*"8    ?MQ L    XX126	6,@120230(12)
014245  126332 117340    *S:)[@    ?MQ?p    XX126	6,@117340(12)
014246  110666 526000    )&VJP     ??5,?    XX110	15,@526000(6)
014247  110666 621300    )&VR+     ??6"`    XX110	15,@621300(6)
014250  110666 635700    )&VSO     ??6;`    XX110	15,@635700(6)
014251  110666 573400    )&VO<     ??5w?    XX110	15,@573400(6)
014252  110666 577370    )&VO[X    ??5~|    XX110	15,@577370(6)
014253  110666 577413    )&VO\+    ??5??    XX110	15,@577413(6)
014254  110666 577417    )&VO\/    ??5??    XX110	15,@577417(6)
014255  110666 577404    )&VO\$    ??5??    XX110	15,@577404(6)
014256  126332 045700    *S:$O     ?MPK`    XX126	6,@45700(12)
014257  126332 047270    *S:$ZX    ?MPN\    XX126	6,@47270(12)
014260  126332 047530    *S:$]8    ?MPO,    XX126	6,@47530(12)
014261  126332 046640    *S:$V@    ?MPMP    XX126	6,@46640(12)
014262  110666 600330    )&VP#8    ??6?l    XX110	15,@600330(6)
014263  110666 600353    )&VP#K    ??6?u    XX110	15,@600353(6)
014264  110666 600357    )&VP#O    ??6?w    XX110	15,@600357(6)
014265  110666 600344    )&VP#D    ??6?r    XX110	15,@600344(6)
014266  126332 000300    *S: #     ?MP?`    XX126	6,@300(12)
014267  126332 001670    *S: .X    ?MP?\    XX126	6,@1670(12)
014270  126332 002130    *S: 18    ?MP?,    XX126	6,@2130(12)
014271  126332 001240    *S: *@    ?MP?P    XX126	6,@1240(12)
014272  132334 164000    +3<.@     ?Mah?    FSC	6,@164000(14)
014273  132334 257300    +3<5[     ?Mb^`    FSC	6,@257300(14)
014274  132334 273700    +3<7?     ?Mbw`    FSC	6,@273700(14)
014275  132334 231400    +3<3,     ?Mb3?    FSC	6,@231400(14)
014276  116770 664000    )WXV@     ?_Fh?    XX116	17,@664000(10)
014277  116770 757300    )WX][     ?_G^`    XX116	17,@757300(10)
014300  116770 773700    )WX_?     ?_Gw`    XX116	17,@773700(10)
014301  116770 731400    )WX[,     ?_G3?    XX116	17,@731400(10)
014302  110666 577440    )&VO\@    ??5??    XX110	15,@577440(6)
014303  110666 577463    )&VO\S    ??5??    XX110	15,@577463(6)
014304  110666 577467    )&VO\W    ??5??    XX110	15,@577467(6)
014305  110666 577454    )&VO\L    ??5??    XX110	15,@577454(6)
014306  113762 670000    )?RW      ???p?    XX113	17,@670000(2)
014307  113762 763300    )?R^;     ???f`    XX113	17,@763300(2)
014310  113762 777700    )?R__     ????`    XX113	17,@777700(2)
014311  113762 735400    )?R[L     ???;?    XX113	17,@735400(2)
014312  126332 007370    *S: [X    ?MP?|    XX126	6,@7370(12)
014313  126332 007413    *S: \+    ?MP??    XX126	6,@7413(12)
014314  126332 007417    *S: \/    ?MP??    XX126	6,@7417(12)
014315  126332 007404    *S: \$    ?MP??    XX126	6,@7404(12)
014316  123472 233300    *<Z3;     ?sR6`    XX123	11,@233300(12)
014317  123472 234670    *<Z3FX    ?sR9\    XX123	11,@234670(12)
014320  123472 235130    *<Z3I8    ?sR:,    XX123	11,@235130(12)
014321  123472 234240    *<Z3B@    ?sR8P    XX123	11,@234240(12)
014322  126332 010330    *S:!#8    ?MP?l    XX126	6,@10330(12)
014323  126332 010353    *S:!#K    ?MP?u    XX126	6,@10353(12)
014324  126332 010357    *S:!#O    ?MP?w    XX126	6,@10357(12)
014325  126332 010344    *S:!#D    ?MP?r    XX126	6,@10344(12)
014326  123472 300700    *<Z8'     ?sS?`    XX123	11,@300700(12)
014327  123472 302270    *<Z82X    ?sS?\    XX123	11,@302270(12)
014330  123472 302530    *<Z858    ?sS?,    XX123	11,@302530(12)
014331  123472 301640    *<Z8.@    ?sS?P    XX123	11,@301640(12)
014332  123472 236400    *<Z3T     ?sR=?    XX123	11,@236400(12)
014333  123472 237770    *<Z3_X    ?sR?|    XX123	11,@237770(12)
014334  123472 240230    *<Z4"8    ?sR@L    XX123	11,@240230(12)
014335  123472 237340    *<Z3[@    ?sR>p    XX123	11,@237340(12)
014336  126332 054100    *S:%A     ?MPX     XX126	6,@54100(12)
014337  126332 055470    *S:%LX    ?MP[?    XX126	6,@55470(12)
014340  126332 055730    *S:%O8    ?MP[l    XX126	6,@55730(12)
014341  126332 055040    *S:%H@    ?MPZ?    XX126	6,@55040(12)
014342  116123 356000    )Q3=P     ?E?\?    XX116	2,@356000(3)
014343  116123 451300    )Q3E+     ?E?R`    XX116	2,@451300(3)
014344  116123 465700    )Q3FO     ?E?k`    XX116	2,@465700(3)
014345  116123 510500    )Q3I%     ?E??     XX116	2,@510500(3)
014346  116216 036000    )R.#P     ?Hp<?    XX116	4,36000(16)
014347  116216 131300    )R.++     ?Hq2`    XX116	4,131300(16)
014350  116216 145700    )R.,O     ?HqK`    XX116	4,145700(16)
014351  116216 170500    )R./%     ?Hqq     XX116	4,170500(16)
014352  116123 536400    )Q3KT     ?E?=?    XX116	2,@536400(3)
014353  116123 537770    )Q3K_X    ?E??|    XX116	2,@537770(3)
014354  116123 540230    )Q3L"8    ?E?@L    XX116	2,@540230(3)
014355  116123 540610    )Q3L&(    ?E?AD    XX116	2,@540610(3)
014356  116216 216400    )R.1T     ?Hr??    XX116	4,216400(16)
014357  116216 217770    )R.1_X    ?Hr?|    XX116	4,217770(16)
014360  116216 220230    )R.2"8    ?Hr L    XX116	4,220230(16)
014361  116216 220610    )R.2&(    ?Hr!D    XX116	4,220610(16)
014362  116123 474100    )Q3GA     ?E?x     XX116	2,@474100(3)
014363  116123 475470    )Q3GLX    ?E?{?    XX116	2,@475470(3)
014364  116123 475730    )Q3GO8    ?E?{l    XX116	2,@475730(3)
014365  116123 476310    )Q3GS(    ?E?|d    XX116	2,@476310(3)
014366  116216 154100    )R.-A     ?HqX     XX116	4,154100(16)
014367  116216 155470    )R.-LX    ?Hq[?    XX116	4,155470(16)
014370  116216 155730    )R.-O8    ?Hq[l    XX116	4,155730(16)
014371  116216 156310    )R.-S(    ?Hq\d    XX116	4,156310(16)
014372  116123 434700    )Q3CG     ?E?9`    XX116	2,@434700(3)
014373  116123 436270    )Q3CRX    ?E?<\    XX116	2,@436270(3)
014374  116123 436530    )Q3CU8    ?E?=,    XX116	2,@436530(3)
014375  116123 437110    )Q3CY(    ?E?>$    XX116	2,@437110(3)
014376  116216 114700    )R.)G     ?Hq?`    XX116	4,114700(16)
014377  116216 116270    )R.)RX    ?Hq?\    XX116	4,116270(16)
014400  116216 116530    )R.)U8    ?Hq?,    XX116	4,116530(16)
014401  116216 117110    )R.)Y(    ?Hq?$    XX116	4,117110(16)
014402  116217 414000    )R/A@     ?H|??    XX116	4,414000(17)
014403  116217 507300    )R/H[     ?H}?`    XX116	4,507300(17)
014404  116217 523700    )R/J?     ?H}'`    XX116	4,523700(17)
014405  116217 546500    )R/LU     ?H}M     XX116	4,546500(17)
014406  116124 734000    )Q4[@     ?E'8?    XX116	2,@734000(4)
014407  116125 027300    )Q5"[     ?E(.`    XX116	2,@27300(5)
014410  116125 043700    )Q5$?     ?E(G`    XX116	2,@43700(5)
014411  116125 066500    )Q5&U     ?E(m     XX116	2,@66500(5)
014412  116217 574400    )R/OD     ?H}y?    XX116	4,574400(17)
014413  116217 575770    )R/OOX    ?H}{|    XX116	4,575770(17)
014414  116217 576230    )R/OR8    ?H}|L    XX116	4,576230(17)
014415  116217 576610    )R/OV(    ?H}}D    XX116	4,576610(17)
014416  116125 114400    )Q5)D     ?E)??    XX116	2,@114400(5)
014417  116125 115770    )Q5)OX    ?E)?|    XX116	2,@115770(5)
014420  116125 116230    )Q5)R8    ?E)?L    XX116	2,@116230(5)
014421  116125 116610    )Q5)V(    ?E)?D    XX116	2,@116610(5)
014422  116217 532100    )R/K1     ?H}4     XX116	4,532100(17)
014423  116217 533470    )R/K<X    ?H}7?    XX116	4,533470(17)
014424  116217 533730    )R/K?8    ?H}7l    XX116	4,533730(17)
014425  116217 534310    )R/KC(    ?H}8d    XX116	4,534310(17)
014426  116125 052100    )Q5%1     ?E(T     XX116	2,@52100(5)
014427  116125 053470    )Q5%<X    ?E(W?    XX116	2,@53470(5)
014430  116125 053730    )Q5%?8    ?E(Wl    XX116	2,@53730(5)
014431  116125 054310    )Q5%C(    ?E(Xd    XX116	2,@54310(5)
014432  116217 472700    )R/G7     ?H|u`    XX116	4,472700(17)
014433  116217 474270    )R/GBX    ?H|x\    XX116	4,474270(17)
014434  116217 474530    )R/GE8    ?H|y,    XX116	4,474530(17)
014435  116217 475110    )R/GI(    ?H|z$    XX116	4,475110(17)
014436  116125 012700    )Q5!7     ?E(?`    XX116	2,@12700(5)
014437  116125 014270    )Q5!BX    ?E(?\    XX116	2,@14270(5)
014440  116125 014530    )Q5!E8    ?E(?,    XX116	2,@14530(5)
014441  116125 015110    )Q5!I(    ?E(?$    XX116	2,@15110(5)
014442  127336 030000    *[>#      ?mp0?    XX127	6,@30000(16)
014443  127243 350000    *ZC=      ?j?P?    XX127	5,350000(3)
014444  127336 106700    *[>(W     ?mq?`    XX127	6,@106700(16)
014445  127243 426700    *ZCBW     ?j?-`    XX127	5,426700(3)
014446  127336 072300    *[>'3     ?mpt`    XX127	6,@72300(16)
014447  127243 412300    *ZCA3     ?j??`    XX127	5,412300(3)
014450  127336 143000    *[>,8     ?mqF?    XX127	6,@143000(16)
014451  127243 463000    *ZCF8     ?j?f?    XX127	5,463000(3)
014452  127125 250000    *Y55      ?e*P?    XX127	2,@250000(5)
014453  127347 640000    *[GT      ?n>@?    XX127	7,640000(7)
014454  127125 326700    *Y5:W     ?e+-`    XX127	2,@326700(5)
014455  127347 716700    *[GYW     ?n??`    XX127	7,716700(7)
014456  127125 312300    *Y593     ?e+?`    XX127	2,@312300(5)
014457  127347 702300    *[GX3     ?n??`    XX127	7,702300(7)
014460  127125 363000    *Y5>8     ?e+f?    XX127	2,@363000(5)
014461  127347 753000    *[G]8     ?n?V?    XX127	7,753000(7)
014462  127340 764000    *[@^@     ?n?h?    XX127	7,764000
014463  127246 304000    *ZF8@     ?j3??    XX127	5,304000(6)
014464  127341 042700    *[A$7     ?n?E`    XX127	7,42700(1)
014465  127246 362700    *ZF>7     ?j3e`    XX127	5,362700(6)
014466  127341 026300    *[A"S     ?n?,`    XX127	7,26300(1)
014467  127246 346300    *ZF<S     ?j3L`    XX127	5,346300(6)
014470  127341 077000    *[A'X     ?n?~?    XX127	7,77000(1)
014471  127246 417000    *ZFAX     ?j4??    XX127	5,417000(6)
014472  127130 204000    *Y80@     ?eB??    XX127	2,@204000(10)
014473  127352 574000    *[JO@     ?nUx?    XX127	7,574000(12)
014474  127130 262700    *Y867     ?eBe`    XX127	2,@262700(10)
014475  127352 652700    *[JU7     ?nVU`    XX127	7,652700(12)
014476  127130 246300    *Y84S     ?eBL`    XX127	2,@246300(10)
014477  127352 636300    *[JSS     ?nV<`    XX127	7,636300(12)
014500  127130 317000    *Y89X     ?eC??    XX127	2,@317000(10)
014501  127352 707000    *[JXX     ?nW??    XX127	7,707000(12)
014502  127333 271000    *[;7(     ?mZr?    XX127	6,@271000(13)
014503  127240 611000    *Z@Q(     ?j???    XX127	5,611000
014504  127333 347700    *[;<_     ?m[O`    XX127	6,@347700(13)
014505  127240 667700    *Z@V_     ?j?o`    XX127	5,667700
014506  127333 333300    *[;;;     ?m[6`    XX127	6,@333300(13)
014507  127240 653300    *Z@U;     ?j?V`    XX127	5,653300
014510  127333 404000    *[;@@     ?m\??    XX127	6,@404000(13)
014511  127240 724000    *Z@Z@     ?j?(?    XX127	5,724000
014512  127122 511000    *Y2I(     ?e???    XX127	2,@511000(2)
014513  127345 101000    *[E((     ?n)??    XX127	7,101000(5)
014514  127122 567700    *Y2N_     ?e?o`    XX127	2,@567700(2)
014515  127345 157700    *[E-_     ?n)_`    XX127	7,157700(5)
014516  127122 553300    *Y2M;     ?e?V`    XX127	2,@553300(2)
014517  127345 143300    *[E,;     ?n)F`    XX127	7,143300(5)
014520  127122 624000    *Y2R@     ?e?(?    XX127	2,@624000(2)
014521  127345 214000    *[E1@     ?n*??    XX127	7,214000(5)
014522  127336 225000    *[>2H     ?mr*?    XX127	6,@225000(16)
014523  127243 545000    *ZCLH     ?j?J?    XX127	5,545000(3)
014524  127336 303700    *[>8?     ?ms?`    XX127	6,@303700(16)
014525  127243 623700    *ZCR?     ?j?'`    XX127	5,623700(3)
014526  127336 267300    *[>6[     ?mrn`    XX127	6,@267300(16)
014527  127243 607300    *ZCP[     ?j??`    XX127	5,607300(3)
014530  127336 340000    *[><      ?ms@?    XX127	6,@340000(16)
014531  127243 660000    *ZCV      ?j?`?    XX127	5,660000(3)
014532  127125 445000    *Y5DH     ?e,J?    XX127	2,@445000(5)
014533  127350 035000    *[H#H     ?n@:?    XX127	7,35000(10)
014534  127125 523700    *Y5J?     ?e-'`    XX127	2,@523700(5)
014535  127350 113700    *[H)?     ?nA?`    XX127	7,113700(10)
014536  127125 507300    *Y5H[     ?e-?`    XX127	2,@507300(5)
014537  127350 077300    *[H'[     ?n@~`    XX127	7,77300(10)
014540  127125 560000    *Y5N      ?e-`?    XX127	2,@560000(5)
014541  127350 150000    *[H-      ?nAP?    XX127	7,150000(10)
014542  051453 454300    %,KEC     ?2\X`    UUO51	11,454300(13)
014543  700000 023736    X  "?>    p??'o    BLKI	0,23736
014544  052717 441670    %7/D.X    ?\|C\    UUO52	16,441670(17)
014545  700040 023736    X @"?>    p??'o    DATAI	0,23736
014546  051453 477100    %,KGY     ?2\~     UUO51	11,477100(13)
014547  700100 023736    X! "?>    p??'o    BLKO	0,23736
014550  052717 442250    %7/D2H    ?\|DT    UUO52	16,442250(17)
014551  700140 023736    X!@"?>    p??'o    DATAO	0,23736
014552  052320 216100    %301Q     ?M??     UUO52	6,@216100
014553  700200 023736    X" "?>    p??'o    CONO	0,23736
014554  052320 173300    %30/;     ?M?v`    UUO52	6,@173300
014555  700240 023736    X"@"?>    p??'o    CONI	0,23736
014556  052320 235340    %303K@    ?M?:p    UUO52	6,@235340
014557  700300 023736    X# "?>    p??'o    CONSZ	0,23736
014560  052320 234450    %303DH    ?M?9?    UUO52	6,@234450
014561  700340 023736    X#@"?>    p??'o    CONSO	0,23736
014562  110715 474000    )'-G@     ??lx?    XX110	16,474000(15)
014563  000000 000000              ?????    UUO00	0,0
014564  124145 630000    *AES      ??.0?    XX124	3,630000(5)
014565  000000 000004         $    ?????    UUO00	0,4
014566  124327 442000    *C7D0     ??<D?    XX124	6,@442000(7)
014567  000000 000100        !     ????     UUO00	0,100
014570  124330 034000    *C8#@     ??@8?    XX124	6,@34000(10)
014571  000000 000104        !$    ????"    UUO00	0,104
014572  127364 207000    *[T0X     ?o"??    XX127	7,@207000(4)
014573  000000 000120        !0    ????(    UUO00	0,120
014574  121226 766000    **6^P     ?)7l?    XX121	4,@766000(6)
014575  000000 000124        !4    ????*    UUO00	0,124
014576  113035 301000    )8=8(     ?ak??    XX113	0,@301000(15)
014577  000000 000130        !8    ????,    UUO00	0,130
014600  112733 550000    )7;M      ?]]P?    XX112	16,@550000(13)
014601  000000 000200        "     ????@    UUO00	0,200
014602  130165 411000    +!UA(     ??,??    XX130	3,@411000(5)
014603  000000 000210        "(    ????D    UUO00	0,210
014604  130171 331000    +!Y;(     ??K2?    XX130	3,@331000(11)
014605  000000 000214        ",    ????F    UUO00	0,214
014606  112742 663300    )7BV;     ?^?f`    XX112	17,663300(2)
014607  000000 000300        #     ????`    UUO00	0,300
014610  112742 666400    )7BVT     ?^?m?    XX112	17,666400(2)
014611  000000 000304        #$    ????b    UUO00	0,304
014612  121035 407300    *(=@[     ?!l?`    XX121	0,@407300(15)
014613  134000 000000    +@        ?????    ILDB	0,0
014614  113135 547300    )9=L[     ?emN`    XX113	2,@547300(15)
014615  136000 000000    +P        ?@???    IDPB	0,0
014616  112260 547440    )2PL\@    ?K?O?    XX112	5,@547440
014617  400000 000000    @         @????    SETZ	0,0
014620  112260 547463    )2PL\S    ?K?O?    XX112	5,@547463
014621  401000 000000    @(        @ ???    SETZI	0,0
014622  112260 547467    )2PL\W    ?K?O?    XX112	5,@547467
014623  402000 000000    @0        @@???    SETZM	0,0
014624  112260 547454    )2PL\L    ?K?O?    XX112	5,@547454
014625  403000 000000    @8        @`???    SETZB	0,0
014626  053721 126000    %?1*P     ?}?,?    UUO53	16,@126000(1)
014627  000000 023121       "91    ???&(    UUO00	0,23121
014630  061211 041000    &*)$(     ?(HB?    UUO61	4,41000(11)
014631  000000 023307       ";'    ???&c    UUO00	0,23307
014632  072451 625460    '4IRLP    ?RN+?    UUO72	11,625460(11)
014633  000000 023356       ";N    ???&w    UUO00	0,23356
014634  065570 531200    &MXK*     ?7E2@    UUO65	13,@531200(10)
014635  000000 023654       ">L    ???'V    UUO00	0,23654
014636  066272 637500    &RZS]     ?KV?     UUO66	5,@637500(12)
014637  000000 023653       ">K    ???'U    UUO00	0,23653
014640  065570 523000    &MXJ8     ?7E&?    UUO65	13,@523000(10)
014641  000000 023661       ">Q    ???'X    UUO00	0,23661
014642  067207 603730    &Z'P?8    ?h>?l    UUO67	4,603730(7)
014643  000000 023666       ">V    ???'[    UUO00	0,23666
014644  066517 413757    &U/A?O    ?T|?w    UUO66	12,413757(17)
014645  000000 024434       "D<    ???)?    UUO00	0,24434
014646  054065 602000    %@UP0     ??.??    UUO54	1,@602000(5)
014647  000000 023663       ">S    ???'Y    UUO00	0,23663
014650  072446 736000    '4F[P     ?R7<?    UUO72	11,736000(6)
014651  000000 023356       ";N    ???&w    UUO00	0,23356
014652  074356 051520    'CN%-0    ??pS(    UUO74	7,51520(16)
014653  000000 023707       "?'    ???'c    UUO00	0,23707
014654  065522 331626    &M2;.6    ?5?3K    UUO65	12,@331626(2)
014655  000000 017132       !Y:    ????-    UUO00	0,17132
014656  074415 433600    'D-C>     ??l7@    UUO74	10,433600(15)
014657  000000 023712       "?*    ???'e    UUO00	0,23712
014660  063253 716000    &:KYP     ?j_??    UUO63	5,716000(13)
014661  000000 023663       ">S    ???'Y    UUO00	0,23663
014662  052320 234773    %303G[    ?M?9}    UUO52	6,@234773
014663  000000 020004       " $    ??? ?    UUO00	0,20004
014664  066402 031026    &T"#(6    ?P?2?    UUO66	10,31026(2)
014665  000000 024133       "A;    ???(-    UUO00	0,24133
014666  050747 275670    %'G7NX    ??:{\    UUO50	17,275670(7)
014667  000000 024134       "A<    ???(.    UUO00	0,24134
014670  065450 354020    &LH=@0    ?2CX?    UUO65	11,354020(10)
014671  000000 024317       "C/    ???(g    UUO00	0,24317
014672  051454 417210    %,LAZ(    ?2d?D    UUO51	11,417210(14)
014673  000000 023436       "<>    ???'?    UUO00	0,23436
014674  062632 340165    &6:<!U    ?YS@:    UUO62	14,@340165(12)
014675  000000 023456       "<N    ???'?    UUO00	0,23456
014676  054065 744621    %@U\F1    ??/IH    UUO54	1,@744621(5)
014677  000000 023460       "<P    ???'?    UUO00	0,23460
014700  062723 172600    &73/6     ?]?u@    UUO62	16,@172600(3)
014701  000000 017277       !Z_    ????_    UUO00	0,17277
014702  053762 537115    %?RKY-    ???>&    UUO53	17,@537115(2)
014703  000000 024322       "C2    ???(i    UUO00	0,24322
014704  052763 205217    %7S0J/    ?_??G    UUO52	17,@205217(3)
014705  000000 016757       !WO    ????w    UUO00	0,16757
014706  057025 522000    %X5J0     ?a-$?    UUO57	0,@522000(5)
014707  000000 017400       !\     ?????    UUO00	0,17400
014710  057025 572500    %X5O5     ?a-u     UUO57	0,@572500(5)
014711  400000 017400    @  !\     @????    SETZ	0,17400
014712  057025 654500    %X5UE     ?a.Y     UUO57	0,@654500(5)
014713  200000 017400    0  !\      ????    MOVE	0,17400
014714  067140 155320    &Y@-K0    ?f?Zh    UUO67	3,155320
014715  000000 021324       "+4    ???"j    UUO00	0,21324
014716  074604 413377    'F$A;_    ??$??    UUO74	14,413377(4)
014717  000000 021103       ")#    ???"!    UUO00	0,21103
014720  071525 537600    '-5K^     ?5-?@    UUO71	12,@537600(5)
014721  000000 024352       "CJ    ???(u    UUO00	0,24352
014722  065521 405123    &M1@I3    ?5??)    UUO65	12,@405123(1)
014723  000000 024360       "CP    ???(x    UUO00	0,24360
014724  042016 013710    $0.!?(    ?@p?d    UUO42	0,13710(16)
014725  000000 024356       "CN    ???(w    UUO00	0,24356
014726  063305 753666    &;%]>V    ?l/W[    UUO63	6,753666(5)
014727  000000 024365       "CU    ???(z    UUO00	0,24365
014730  056636 215000    %V>1H     ?Yr??    UUO56	14,@215000(16)
014731  327200 017266    :Z !ZV    5h??[    JUMPG	4,17266
014732  056636 273700    %V>7?     ?Yrw`    UUO56	14,@273700(16)
014733  325200 017266    :J !ZV    5(??[    JUMPGE	4,17266
014734  056635 623000    %V=R8     ?Yn&?    UUO56	14,@623000(15)
014735  322200 017266    :2 !ZV    4H??[    JUMPE	4,17266
014736  056637 454700    %V?EG     ?Y|Y`    UUO56	14,@454700(17)
014737  323200 017266    :: !ZV    4h??[    JUMPLE	4,17266
014740  056637 770000    %V?_      ?Y?p?    UUO56	14,@770000(17)
014741  326200 017266    :R !ZV    5H??[    JUMPN	4,17266
014742  056641 227700    %VA2_     ?Z?/`    UUO56	15,227700(1)
014743  336000 017320    ;P ![0    7@??h    SKIPN	0,17320
014744  056641 264000    %VA6@     ?Z?h?    UUO56	15,264000(1)
014745  332000 017320    ;0 ![0    6@??h    SKIPE	0,17320
014746  056632 472000    %V:G0     ?YTt?    UUO56	14,@472000(12)
014747  602000 017314    P0 ![,    `@??f    TRNE	0,17314
014750  056632 667000    %V:VX     ?YVn?    UUO56	14,@667000(12)
014751  606000 017314    PP ![,    a@??f    TRNN	0,17314
014752  056637 376000    %V??P     ?Y{|?    UUO56	14,@376000(17)
014753  321200 017266    :* !ZV    4(??[    JUMPL	4,17266
014754  064302 364322    &C">C2    ???hi    UUO64	6,364322(2)
014755  000000 024376       "C^    ???(?    UUO00	0,24376
014756  064302 364275    &C">B]    ???h^    UUO64	6,364275(2)
014757  400000 024376    @  "C^    @??(?    SETZ	0,24376
014760  070506 300204    '%&8"$    ??3?B    UUO70	12,300204(6)
014761  000000 020372       "#Z    ??? }    UUO00	0,20372
014762  074520 536553    'E0KUK    ???=5    UUO74	12,@536553
014763  000000 023032       "8:    ???&?    UUO00	0,23032
014764  074517 617306    'E/Q[&    ??~?c    UUO74	12,617306(17)
014765  000000 023423       "<3    ???'?    UUO00	0,23423
014766  074520 553210    'E0M:(    ???VD    UUO74	12,@553210
014767  000000 023031       "89    ???&?    UUO00	0,23031
014770  074415 042610    'D-$6(    ??hED    UUO74	10,42610(15)
014771  000000 023072       "8Z    ???&?    UUO00	0,23072
014772  074520 552130    'E0M18    ???T,    UUO74	12,@552130
014773  322000 023102    :0 "9"    4@?&!    JUMPE	0,23102
014774  074520 552700    'E0M7     ???U`    UUO74	12,@552700
014775  326000 023102    :P "9"    5@?&!    JUMPN	0,23102
014776  074520 552250    'E0M2H    ???TT    UUO74	12,@552250
014777  327000 023102    :X "9"    5`?&!    JUMPG	0,23102
015000  074520 552577    'E0M5_    ???U?    UUO74	12,@552577
015001  323000 023102    :8 "9"    4`?&!    JUMPLE	0,23102
015002  074520 552267    'E0M2W    ???T[    UUO74	12,@552267
015003  325000 023102    :H "9"    5 ?&!    JUMPGE	0,23102
015004  074520 552560    'E0M5P    ???U8    UUO74	12,@552560
015005  321000 023102    :( "9"    4 ?&!    JUMPL	0,23102
015006  074625 623740    'F5R?@    ??.'p    UUO74	14,@623740(5)
015007  000000 023221       ":1    ???&H    UUO00	0,23221
015010  074557 472000    'EOG0     ??|t?    UUO74	13,472000(17)
015011  000000 024107       "A'    ???(#    UUO00	0,24107
015012  074427 516243    'D7IRC    ??=?Q    UUO74	10,@516243(7)
015013  000000 022137       "1?    ???$/    UUO00	0,22137
015014  074627 636120    'F7SQ0    ??><(    UUO74	14,@636120(7)
015015  400000 017212    @  !Z*    @???E    SETZ	0,17212
015016  074465 740602    'DU\&"    ??/AA    UUO74	11,@740602(5)
015017  000000 017212       !Z*    ????E    UUO00	0,17212
015020  074614 774436    'F,_D>    ??gy?    UUO74	14,774436(14)
015021  000000 017167       !YW    ????;    UUO00	0,17167
015022  074165 100000    'AU(      ??)??    UUO74	3,@100000(5)
015023  000000 021624       ".4    ???#J    UUO00	0,21624
015024  074522 166200    'E2.R     ???l@    UUO74	12,@166200(2)
015025  000000 024446       "DF    ???)?    UUO00	0,24446
015026  475545 050000    GME%      O6(P?    SETOI	13,50000(5)
015027  000000 000000              ?????    UUO00	0,0
015030  475426 161000    GL6.(     O11b?    SETOI	10,@161000(6)
015031  000000 000000              ?????    UUO00	0,0
015032  474523 664062    GE3V@R    O??h?    SETO	12,@664062(3)
015033  000000 000000              ?????    UUO00	0,0
015034  474523 664063    GE3V@S    O??h?    SETO	12,@664063(3)
015035  000000 000000              ?????    UUO00	0,0
015036  074521 753506    'E1]=&    ???W#    UUO74	12,@753506(1)
015037  000000 023243       ":C    ???&Q    UUO00	0,23243
015040  074546 610111    'EFQ!)    ??6?$    UUO74	13,610111(6)
015041  000001 024475      !"D]    ???)?    UUO00	0,24475(1)
015042  074722 140111    'G2,!)    ???@$    UUO74	16,@140111(2)
015043  000000 024475       "D]    ???)?    UUO00	0,24475
015044  074442 314666    'DB9FV    ????[    UUO74	11,314666(2)
015045  000000 024521       "E1    ???)(    UUO00	0,24521
015046  074642 631330    'FBS+8    ???2l    UUO74	15,631330(2)
015047  000000 024525       "E5    ???)*    UUO00	0,24525
015050  074520 536573    'E0KU[    ???==    UUO74	12,@536573
015051  000000 024477       "D_    ???)?    UUO00	0,24477
015052  074440 525053    'D@JHK    ???*?    UUO74	11,525053
015053  000000 024510       "E(    ???)$    UUO00	0,24510
015054  074441 175000    'DA/H     ???z?    UUO74	11,175000(1)
015055  000000 024626       "F6    ???)K    UUO00	0,24626
015056  074634 704100    'F<XA     ??g?     UUO74	14,@704100(14)
015057  000000 024624       "F4    ???)J    UUO00	0,24624
015060  074347 553113    'CGM9+    ??=V%    UUO74	7,553113(7)
015061  000000 024127       "A7    ???(+    UUO00	0,24127
015062  050747 277140    %'G7Y@    ??:~0    UUO50	17,277140(7)
015063  000000 024126       "A6    ???(+    UUO00	0,24126
015064  074363 025610    'CS"N(    ???+D    UUO74	7,@25610(3)
015065  000000 025003       "H#    ???*?    UUO00	0,25003
015066  074363 025730    'CS"O8    ???+l    UUO74	7,@25730(3)
015067  000000 024664       "FT    ???)Z    UUO00	0,24664
015070  074672 155100    'FZ-I     ??QZ     UUO74	15,@155100(12)
015071  000000 024725       "G5    ???)j    UUO00	0,24725
015072  074465 526240    'DUJR@    ??-,P    UUO74	11,@526240(5)
015073  000000 017166       !YV    ????;    UUO00	0,17166
015074  134646 522300    +FFJ3     ??5$`    ILDB	15,522300(6)
015075  000000 000000              ?????    UUO00	0,0
015076  134646 545100    +FFLI     ??5J     ILDB	15,545100(6)
015077  000000 000001         !    ?????    UUO00	0,1
015100  134650 472300    +FHG3     ??Dt`    ILDB	15,472300(10)
015101  000000 000004         $    ?????    UUO00	0,4
015102  134650 515100    +FHII     ??E?     ILDB	15,515100(10)
015103  000000 000005         %    ?????    UUO00	0,5
015104  134355 072300    +CM'3     ??ht`    ILDB	7,72300(15)
015105  000000 000002         "    ?????    UUO00	0,2
015106  134355 115100    +CM)I     ??i?     ILDB	7,115100(15)
015107  000000 000003         #    ?????    UUO00	0,3
015110  134357 042300    +CO$3     ??xD`    ILDB	7,42300(17)
015111  000000 000006         &    ?????    UUO00	0,6
015112  134357 065100    +CO&I     ??xj     ILDB	7,65100(17)
015113  000000 000007         '    ?????    UUO00	0,7
015114  347672 103771    <^Z(?Y    9{Q?|    AOJG	15,@103771(12)
015115  777777 345607    ___<N'    ??{KC    CONSO	774,@345607(17)
015116  777777 777777    ______    ?????    CONSO	774,@777777(17)
015117  777776 713416    __^Y<.    ??w??    CONSO	774,@713416(16)
015120  777430 763006    _\8^8&    ?qGf?    BLKI	774,@763006(10)
015121  353535 353535    ======    :ukW.    AOSLE	12,@353535(15)
015122  343367 676760    <;WWWP    8o>}x    AOJLE	7,@676760(7)
015123  666357 404040    VSO@@@    mN|??    TRON	7,404040(17)
015124  406162 676760    @QRWWP    AG?}x    ANDM	3,@676760(2)
015125  665454 646660    VLLTVP    m2fMX    TLOA	11,646660(14)
015126  616266 353535    QRV===    cK3W.    TDNN	5,@353535(6)
015127  353535 353535    ======    :ukW.    AOSLE	12,@353535(15)
015130  353535 353535    ======    :ukW.    AOSLE	12,@353535(15)
015131  353535 353535    ======    :ukW.    AOSLE	12,@353535(15)
015132  353535 353535    ======    :ukW.    AOSLE	12,@353535(15)
015133  353535 353535    ======    :ukW.    AOSLE	12,@353535(15)
015134  353535 353535    ======    :ukW.    AOSLE	12,@353535(15)
015135  343355 676164    <;MWQT    8nn|:    AOJLE	7,676164(15)
015136  574040 404040    O@@@@@    _????    HLRE	1,404040
015137  406760 616061    @WPQPQ    A_???    ANDM	17,@616061
015140  545462 666262    LLRVRR    Y3?lY    HLRI	11,@666262(2)
015141  606035 353535    PP====    aAkW.    TRNN	0,@353535(15)
015142  353535 353535    ======    :ukW.    AOSLE	12,@353535(15)
015143  353535 353535    ======    :ukW.    AOSLE	12,@353535(15)
015144  353535 353535    ======    :ukW.    AOSLE	12,@353535(15)
015145  353535 353535    ======    :ukW.    AOSLE	12,@353535(15)
015146  353535 353535    ======    :ukW.    AOSLE	12,@353535(15)
015147  353535 353535    ======    :ukW.    AOSLE	12,@353535(15)
015150  343355 676163    <;MWQS    8nn|9    AOJLE	7,676163(15)
015151  574040 404040    O@@@@@    _????    HLRE	1,404040
015152  401115 251411    @)-5,)    @$jS?    SETZI	2,251411(15)
015153  400354 616661    @#LQVQ    @?f?X    SETZ	7,616661(14)
015154  656262 501411    URRH,)    kK???    TDCN	5,@501411(2)
015155  161351 353535    .+I===    ?.KW.    FMPL	7,353535(11)
015156  353535 353535    ======    :ukW.    AOSLE	12,@353535(15)
015157  353535 353535    ======    :ukW.    AOSLE	12,@353535(15)
015160  353535 353535    ======    :ukW.    AOSLE	12,@353535(15)
015161  353535 353535    ======    :ukW.    AOSLE	12,@353535(15)
015162  353535 353535    ======    :ukW.    AOSLE	12,@353535(15)
015163  343367 676760    <;WWWP    8o>}x    AOJLE	7,@676760(7)
015164  666657 404040    VVO@@@    mZ|??    TRON	15,404040(17)
015165  406664 656163    @VTUQS    A[&\9    ANDM	15,@656163(4)
015166  545466 616360    LLVQSP    Y36?x    HLRI	11,@616360(6)
015167  633535 353535    S=====    fukW.    TSZE	12,@353535(15)
015170  353535 353535    ======    :ukW.    AOSLE	12,@353535(15)
015171  353535 353535    ======    :ukW.    AOSLE	12,@353535(15)
015172  353535 353535    ======    :ukW.    AOSLE	12,@353535(15)
015173  353535 353535    ======    :ukW.    AOSLE	12,@353535(15)
015174  353535 353535    ======    :ukW.    AOSLE	12,@353535(15)
015175  353535 353535    ======    :ukW.    AOSLE	12,@353535(15)
015176  343355 676161    <;MWQQ    8nn|8    AOJLE	7,676161(15)
015177  574040 404040    O@@@@@    _????    HLRE	1,404040
015200  402325 021540    @35"-@    @M(#0    SETZM	6,@21540(5)
015201  242003 101654    40#(.L    (@??V    LSH	0,101654(3)
015202  006763 616367     WSQSW    ?_??{    UUO06	17,@616367(3)
015203  645024 513535    TH4I==    i!%?.    TLCA	0,@513535(4)
015204  353535 353535    ======    :ukW.    AOSLE	12,@353535(15)
015205  353535 353535    ======    :ukW.    AOSLE	12,@353535(15)
015206  353535 353535    ======    :ukW.    AOSLE	12,@353535(15)
015207  353535 353535    ======    :ukW.    AOSLE	12,@353535(15)
015210  353535 353535    ======    :ukW.    AOSLE	12,@353535(15)
015211  343367 676760    <;WWWP    8o>}x    AOJLE	7,@676760(7)
015212  676057 404040    WPO@@@    oB|??    TDON	1,404040(17)
015213  401115 251411    @)-5,)    @$jS?    SETZI	2,251411(15)
015214  402204 031016    @2$#(.    @H 2?    SETZM	4,31016(4)
015215  546365 606162    LSUPQR    YO.?9    HLRM	7,@606162(5)
015216  665014 111613    VH,).+    m a?E    TLOA	0,111613(14)
015217  513535 353535    I=====    RukW.    HLLZS	12,@353535(15)
015220  353535 353535    ======    :ukW.    AOSLE	12,@353535(15)
015221  353535 353535    ======    :ukW.    AOSLE	12,@353535(15)
015222  353535 353535    ======    :ukW.    AOSLE	12,@353535(15)
015223  353535 353535    ======    :ukW.    AOSLE	12,@353535(15)
015224  343367 676760    <;WWWP    8o>}x    AOJLE	7,@676760(7)
015225  676157 404040    WQO@@@    oF|??    TDON	3,404040(17)
015226  400411 264006    @$)6@&    @?Jh?    SETZ	10,264006(11)
015227  546761 616260    LWQQRP    Y_??X    HLRM	17,@616260(1)
015230  645024 245135    TH44I=    i!"J.    TLCA	0,@245135(4)
015231  353535 353535    ======    :ukW.    AOSLE	12,@353535(15)
015232  353535 353535    ======    :ukW.    AOSLE	12,@353535(15)
015233  353535 353535    ======    :ukW.    AOSLE	12,@353535(15)
015234  353535 353535    ======    :ukW.    AOSLE	12,@353535(15)
015235  353535 353535    ======    :ukW.    AOSLE	12,@353535(15)
015236  353535 353535    ======    :ukW.    AOSLE	12,@353535(15)
015237  343367 676760    <;WWWP    8o>}x    AOJLE	7,@676760(7)
015240  676257 404040    WRO@@@    oJ|??    TDON	5,404040(17)
015241  406162 626261    @QRRRQ    AG?,X    ANDM	3,@626261(2)
015242  615454 626561    QLLRUQ    c2f-8    TSNA	11,626561(14)
015243  626665 353535    RVU===    e[+W.    TRZN	15,@353535(5)
015244  353535 353535    ======    :ukW.    AOSLE	12,@353535(15)
015245  353535 353535    ======    :ukW.    AOSLE	12,@353535(15)
015246  353535 353535    ======    :ukW.    AOSLE	12,@353535(15)
015247  353535 353535    ======    :ukW.    AOSLE	12,@353535(15)
015250  353535 353535    ======    :ukW.    AOSLE	12,@353535(15)
015251  353535 353535    ======    :ukW.    AOSLE	12,@353535(15)
015252  343355 676065    <;MWPU    8nn|?    AOJLE	7,676065(15)
015253  574040 404040    O@@@@@    _????    HLRE	1,404040
015254  400317 162332    @#/.3:    @?ydm    SETZ	6,162332(17)
015255  402424 315416    @449L.    @Q#??    SETZM	10,@315416(4)
015256  252702 250635    57"5&=    *\?QN    AOBJP	16,250635(2)
015257  353535 353535    ======    :ukW.    AOSLE	12,@353535(15)
015260  353535 353535    ======    :ukW.    AOSLE	12,@353535(15)
015261  353535 353535    ======    :ukW.    AOSLE	12,@353535(15)
015262  353535 353535    ======    :ukW.    AOSLE	12,@353535(15)
015263  353535 353535    ======    :ukW.    AOSLE	12,@353535(15)
015264  353535 353535    ======    :ukW.    AOSLE	12,@353535(15)
015265  343367 676760    <;WWWP    8o>}x    AOJLE	7,@676760(7)
015266  676457 404040    WTO@@@    oR|??    TDON	11,404040(17)
015267  402025 231012    @053(*    @A*2?    SETZM	0,@231012(5)
015270  402054 676763    @0LWWS    @Bf}y    SETZM	1,676763(14)
015271  616767 353535    QWW===    c_;W.    TDNN	17,@353535(7)
015272  353535 353535    ======    :ukW.    AOSLE	12,@353535(15)
015273  353535 353535    ======    :ukW.    AOSLE	12,@353535(15)
015274  353535 353535    ======    :ukW.    AOSLE	12,@353535(15)
015275  353535 353535    ======    :ukW.    AOSLE	12,@353535(15)
015276  353535 353535    ======    :ukW.    AOSLE	12,@353535(15)
015277  353535 353535    ======    :ukW.    AOSLE	12,@353535(15)
015300  343333 676767    <;;WWW    8m^}{    AOJLE	6,@676767(13)
015301  606765 574040    PWUO@@    a_-x?    TRNN	17,@574040(5)
015302  404012 222324    @@*234    A?R$j    AND	0,222324(12)
015303  405561 606035    @MQPP=    A7???    ANDI	13,@606035(1)
015304  353535 353535    ======    :ukW.    AOSLE	12,@353535(15)
015305  353535 353535    ======    :ukW.    AOSLE	12,@353535(15)
015306  353535 353535    ======    :ukW.    AOSLE	12,@353535(15)
015307  353535 353535    ======    :ukW.    AOSLE	12,@353535(15)
015310  353535 353535    ======    :ukW.    AOSLE	12,@353535(15)
015311  353535 353535    ======    :ukW.    AOSLE	12,@353535(15)
015312  353535 353535    ======    :ukW.    AOSLE	12,@353535(15)
015313  343333 676767    <;;WWW    8m^}{    AOJLE	6,@676767(13)
015314  606766 574040    PWVO@@    a_5x?    TRNN	17,@574040(6)
015315  404023 131120    @@3+)0    A??2(    AND	0,@131120(3)
015316  140540 025467    ,%@"LW    ???+?    FAD	13,25467
015317  676367 676735    WSWWW=    oO>}n    TDON	7,@676735(7)
015320  353535 353535    ======    :ukW.    AOSLE	12,@353535(15)
015321  353535 353535    ======    :ukW.    AOSLE	12,@353535(15)
015322  353535 353535    ======    :ukW.    AOSLE	12,@353535(15)
015323  353535 353535    ======    :ukW.    AOSLE	12,@353535(15)
015324  353535 353535    ======    :ukW.    AOSLE	12,@353535(15)
015325  353535 353535    ======    :ukW.    AOSLE	12,@353535(15)
015326  343367 676760    <;WWWP    8o>}x    AOJLE	7,@676760(7)
015327  676757 404040    WWO@@@    o^|??    TDON	17,404040(17)
015330  401222 232440    @*234@    @)?5?    SETZI	4,@232440(2)
015331  040424 353535    $$4===    ??#W.    UUO40	10,@353535(4)
015332  353535 353535    ======    :ukW.    AOSLE	12,@353535(15)
015333  353535 353535    ======    :ukW.    AOSLE	12,@353535(15)
015334  353535 353535    ======    :ukW.    AOSLE	12,@353535(15)
015335  353535 353535    ======    :ukW.    AOSLE	12,@353535(15)
015336  353535 353535    ======    :ukW.    AOSLE	12,@353535(15)
015337  353535 353535    ======    :ukW.    AOSLE	12,@353535(15)
015340  353535 353535    ======    :ukW.    AOSLE	12,@353535(15)
015341  343367 676761    <;WWWQ    8o>}x    AOJLE	7,@676761(7)
015342  606057 404040    PPO@@@    aB|??    TRNN	1,404040(17)
015343  401517 260540    @-/6%@    @4za0    SETZI	12,260540(17)
015344  242003 101654    40#(.L    (@??V    LSH	0,101654(3)
015345  605002 513535    PH"I==    a ??.    TLNA	0,513535(2)
015346  353535 353535    ======    :ukW.    AOSLE	12,@353535(15)
015347  353535 353535    ======    :ukW.    AOSLE	12,@353535(15)
015350  353535 353535    ======    :ukW.    AOSLE	12,@353535(15)
015351  353535 353535    ======    :ukW.    AOSLE	12,@353535(15)
015352  353535 353535    ======    :ukW.    AOSLE	12,@353535(15)
015353  353535 353535    ======    :ukW.    AOSLE	12,@353535(15)
015354  343367 676761    <;WWWQ    8o>}x    AOJLE	7,@676761(7)
015355  606157 404040    PQO@@@    aF|??    TRNN	3,404040(17)
015356  401225 152016    @*5-0.    @))T?    SETZI	4,@152016(5)
015357  400254 556667    @"LMVW    @?e][    SETZ	5,556667(14)
015360  633535 353535    S=====    fukW.    TSZE	12,@353535(15)
015361  353535 353535    ======    :ukW.    AOSLE	12,@353535(15)
015362  353535 353535    ======    :ukW.    AOSLE	12,@353535(15)
015363  353535 353535    ======    :ukW.    AOSLE	12,@353535(15)
015364  353535 353535    ======    :ukW.    AOSLE	12,@353535(15)
015365  353535 353535    ======    :ukW.    AOSLE	12,@353535(15)
015366  353535 353535    ======    :ukW.    AOSLE	12,@353535(15)
015367  343367 676761    <;WWWQ    8o>}x    AOJLE	7,@676761(7)
015370  606257 404040    PRO@@@    aJ|??    TRNN	5,404040(17)
015371  401517 260540    @-/6%@    @4za0    SETZI	12,260540(17)
015372  242003 101654    40#(.L    (@??V    LSH	0,101654(3)
015373  556162 666335    MQRVS=    [G?ln    HLRZM	3,@666335(2)
015374  353535 353535    ======    :ukW.    AOSLE	12,@353535(15)
015375  353535 353535    ======    :ukW.    AOSLE	12,@353535(15)
015376  353535 353535    ======    :ukW.    AOSLE	12,@353535(15)
015377  353535 353535    ======    :ukW.    AOSLE	12,@353535(15)
015400  353535 353535    ======    :ukW.    AOSLE	12,@353535(15)
015401  353535 353535    ======    :ukW.    AOSLE	12,@353535(15)
015402  343367 676761    <;WWWQ    8o>}x    AOJLE	7,@676761(7)
015403  606357 404040    PSO@@@    aN|??    TRNN	7,404040(17)
015404  401517 260515    @-/6%-    @4za&    SETZI	12,260515(17)
015405  402420 031016    @40#(.    @Q?2?    SETZM	10,@31016
015406  546767 636767    LWWSWW    Y_>={    HLRM	17,@636767(7)
015407  663535 353535    V=====    lukW.    TLOE	12,@353535(15)
015410  353535 353535    ======    :ukW.    AOSLE	12,@353535(15)
015411  353535 353535    ======    :ukW.    AOSLE	12,@353535(15)
015412  353535 353535    ======    :ukW.    AOSLE	12,@353535(15)
015413  353535 353535    ======    :ukW.    AOSLE	12,@353535(15)
015414  353535 353535    ======    :ukW.    AOSLE	12,@353535(15)
015415  343367 676761    <;WWWQ    8o>}x    AOJLE	7,@676761(7)
015416  606457 404040    PTO@@@    aR|??    TRNN	11,404040(17)
015417  401517 260511    @-/6%)    @4za$    SETZI	12,260511(17)
015420  400254 676763    @"LWWS    @?f}y    SETZ	5,676763(14)
015421  676766 353535    WWV===    o_3W.    TDON	17,@353535(6)
015422  353535 353535    ======    :ukW.    AOSLE	12,@353535(15)
015423  353535 353535    ======    :ukW.    AOSLE	12,@353535(15)
015424  353535 353535    ======    :ukW.    AOSLE	12,@353535(15)
015425  353535 353535    ======    :ukW.    AOSLE	12,@353535(15)
015426  353535 353535    ======    :ukW.    AOSLE	12,@353535(15)
015427  353535 353535    ======    :ukW.    AOSLE	12,@353535(15)
015430  343367 676761    <;WWWQ    8o>}x    AOJLE	7,@676761(7)
015431  606557 404040    PUO@@@    aV|??    TRNN	13,404040(17)
015432  401022 223215    @(22:-    @!?&F    SETZI	0,@223215(2)
015433  400254 676763    @"LWWS    @?f}y    SETZ	5,676763(14)
015434  676767 353535    WWW===    o_;W.    TDON	17,@353535(7)
015435  353535 353535    ======    :ukW.    AOSLE	12,@353535(15)
015436  353535 353535    ======    :ukW.    AOSLE	12,@353535(15)
015437  353535 353535    ======    :ukW.    AOSLE	12,@353535(15)
015440  353535 353535    ======    :ukW.    AOSLE	12,@353535(15)
015441  353535 353535    ======    :ukW.    AOSLE	12,@353535(15)
015442  353535 353535    ======    :ukW.    AOSLE	12,@353535(15)
015443  343367 676761    <;WWWQ    8o>}x    AOJLE	7,@676761(7)
015444  606657 404040    PVO@@@    aZ|??    TRNN	15,404040(17)
015445  401022 223215    @(22:-    @!?&F    SETZI	0,@223215(2)
015446  402420 031016    @40#(.    @Q?2?    SETZM	10,@31016
015447  545561 626467    LMQRTW    Y7?-?    HLRI	13,@626467(1)
015450  353535 353535    ======    :ukW.    AOSLE	12,@353535(15)
015451  353535 353535    ======    :ukW.    AOSLE	12,@353535(15)
015452  353535 353535    ======    :ukW.    AOSLE	12,@353535(15)
015453  353535 353535    ======    :ukW.    AOSLE	12,@353535(15)
015454  353535 353535    ======    :ukW.    AOSLE	12,@353535(15)
015455  353535 353535    ======    :ukW.    AOSLE	12,@353535(15)
015456  343367 676761    <;WWWQ    8o>}x    AOJLE	7,@676761(7)
015457  606757 404040    PWO@@@    a^|??    TRNN	17,404040(17)
015460  402325 021140    @35")@    @M("0    SETZM	6,@21140(5)
015461  025420 112220    "L0)20    ?1??H    UUO25	10,@112220
015462  016335 353535    !S====    ?MkW.    UUO16	6,@353535(15)
015463  353535 353535    ======    :ukW.    AOSLE	12,@353535(15)
015464  353535 353535    ======    :ukW.    AOSLE	12,@353535(15)
015465  353535 353535    ======    :ukW.    AOSLE	12,@353535(15)
015466  353535 353535    ======    :ukW.    AOSLE	12,@353535(15)
015467  353535 353535    ======    :ukW.    AOSLE	12,@353535(15)
015470  353535 353535    ======    :ukW.    AOSLE	12,@353535(15)
015471  177501 370620    /]!?&0    ?t?qH    FDVBR	12,370620(1)
015472  777360 763360    _[P^;P    ?o?fx    CONSO	770,@763360
015473  063654 200000    &>L0      ?zb??    UUO63	15,200000(14)
015474  000000 000001         !    ?????    UUO00	0,1
015475  050310 700000    %#(X      ??G??    UUO50	6,700000(10)
015476  000000 000004         $    ?????    UUO00	0,4
015477  067070 455310    &XXEK(    ?cDZd    UUO67	1,@455310(10)
015500  000000 000004         $    ?????    UUO00	0,4
015501  062454 416400    &4LAT     ?Rd??    UUO62	11,416400(14)
015502  000000 000004         $    ?????    UUO00	0,4
015503  062725 674750    &75WGH    ?].yt    UUO62	16,@674750(5)
015504  000000 000020         0    ?????    UUO00	0,20
015505  062724 513750    &74I?H    ?]%?t    UUO62	16,@513750(4)
015506  000000 000020         0    ?????    UUO00	0,20
015507  051453 515535    %,KIM=    ?2]?.    UUO51	11,515535(13)
015510  000000 000006         &    ?????    UUO00	0,6
015511  053035 353050    %8==8H    ?akV?    UUO53	0,@353050(15)
015512  000000 000007         '    ?????    UUO00	0,7
015513  053173 173113    %9[/9+    ?gYv%    UUO53	3,@173113(13)
015514  000000 000001         !    ?????    UUO00	0,1
015515  050715 546050    %'-LPH    ??mL?    UUO50	16,546050(15)
015516  000000 000006         &    ?????    UUO00	0,6
015517  067307 743100    &['\9     ?l?F     UUO67	6,743100(7)
015520  000000 000002         "    ?????    UUO00	0,2
015521  067307 743113    &['\9+    ?l?F%    UUO67	6,743113(7)
015522  000000 000040         @    ?????    UUO00	0,40
015523  070165 463050    '!UF8H    ??,f?    UUO70	3,@463050(5)
015524  000000 000003         #    ?????    UUO00	0,3
015525  054505 047050    %E%$XH    ??(N?    UUO54	12,47050(5)
015526  000000 000003         #    ?????    UUO00	0,3
015527  054504 103113    %E$(9+    ??!?%    UUO54	12,103113(4)
015530  000000 000020         0    ?????    UUO00	0,20
015531  053035 377157    %8=?YO    ?ak~7    UUO53	0,@377157(15)
015532  000000 000400        $     ?????    UUO00	0,400
015533  055345 377000    %KE?X     ?.+~?    UUO55	7,377000(5)
015534  000000 000122        !2    ????)    UUO00	0,122
015535  065672 057000    &NZ%X     ?;P^?    UUO65	15,@57000(12)
015536  000000 000250        "H    ????T    UUO00	0,250
015537  056753 423344    %WKB;D    ?^\&r    UUO56	17,423344(13)
015540  000000 000253        "K    ????U    UUO00	0,253
015541  067146 602760    &YFP7P    ?f6?x    UUO67	3,602760(6)
015542  000000 000420        $0    ?????    UUO00	0,420
015543  067313 047400    &[+$\     ?lXO?    UUO67	6,47400(13)
015544  000000 000460        $P    ?????    UUO00	0,460
015545  067441 137000    &\A+X     ?r?>?    UUO67	11,137000(1)
015546  000000 000570        %X    ????<    UUO00	0,570
015547  067065 064000    &XU&@     ?c(h?    UUO67	1,@64000(5)
015550  000000 000607        &'    ????C    UUO00	0,607
015551  067442 515000    &\BIH     ?r???    UUO67	11,515000(2)
015552  000000 000610        &(    ????D    UUO00	0,610
015553  064246 722566    &BFZ5V    ??7%;    UUO64	5,722566(6)
015554  000000 001223        *3    ????I    UUO00	0,1223
015555  053141 766000    %9A^P     ?f?l?    UUO53	3,766000(1)
015556  000000 001361        +Q    ????x    UUO00	0,1361
015557  051453 501120    %,KH)0    ?2]?(    UUO51	11,501120(13)
015560  000000 001640        .@    ????P    UUO00	0,1640
015561  074612 236305    'F*3S%    ??R<b    UUO74	14,236305(12)
015562  000000 001631        .9    ????L    UUO00	0,1631
015563  052215 067140    %2-&Y@    ?Hhn0    UUO52	4,67140(15)
015564  000000 002242        2B    ????Q    UUO00	0,2242
015565  053035 424134    %8=BA<    ?al(.    UUO53	0,@424134(15)
015566  000000 002245        2E    ????R    UUO00	0,2245
015567  053035 376223    %8=?R3    ?ak|I    UUO53	0,@376223(15)
015570  000000 002246        2F    ????S    UUO00	0,2246
015571  053035 344360    %8=<CP    ?akHx    UUO53	0,@344360(15)
015572  000000 002277        2_    ????_    UUO00	0,2277
015573  053035 353301    %8==;!    ?akV`    UUO53	0,@353301(15)
015574  000000 002427        47    ?????    UUO00	0,2427
015575  070222 344560    '"2<EP    ???I8    UUO70	4,@344560(2)
015576  000000 002457        4O    ?????    UUO00	0,2457
015577  074735 521150    'G=J)H    ??m"4    UUO74	16,@521150(15)
015600  000000 000001         !    ?????    UUO00	0,1
015601  074735 473200    'G=G:     ??lv@    UUO74	16,@473200(15)
015602  254120 002467    5A0 4W    +????    JRST	2,@2467
015603  050715 543565    %'-L=U    ??mG:    UUO50	16,543565(15)
015604  000000 002467        4W    ?????    UUO00	0,2467
015605  070165 460565    '!UF%U    ??,a:    UUO70	3,@460565(5)
015606  000000 002631        69    ????L    UUO00	0,2631
015607  074652 623760    'FJR?P    ??V'x    UUO74	15,623760(12)
015610  000000 002713        7+    ????e    UUO00	0,2713
015611  074654 054400    'FL%D     ??`Y?    UUO74	15,54400(14)
015612  000000 002737        7?    ????o    UUO00	0,2737
015613  074611 553615    'F)M>-    ??MWF    UUO74	14,553615(11)
015614  000000 002762        7R    ????y    UUO00	0,2762
015615  074522 164610    'E2.F(    ???iD    UUO74	12,@164610(2)
015616  000000 003161        9Q    ????8    UUO00	0,3161
015617  063451 440460    &<ID$P    ?rLA?    UUO63	11,440460(11)
015620  000000 003201        :!    ????@    UUO00	0,3201
015621  074426 114744    'D6)GD    ??1?r    UUO74	10,@114744(6)
015622  000000 003241        :A    ????P    UUO00	0,3241
015623  054451 004700    %DI G     ??H?`    UUO54	11,4700(11)
015624  000000 003241        :A    ????P    UUO00	0,3241
015625  063451 461240    &<IF*@    ?rLbP    UUO63	11,461240(11)
015626  000000 003305        ;%    ????b    UUO00	0,3305
015627  067721 703012    &_1X8*    ?}???    UUO67	16,@703012(1)
015630  000000 003363        ;S    ????y    UUO00	0,3363
015631  067070 515116    &XXII.    ?cE?'    UUO67	1,@515116(10)
015632  000000 003433        <;    ?????    UUO00	0,3433
015633  054451 007146    %DI YF    ??H?3    UUO54	11,7146(11)
015634  000000 003444        <D    ?????    UUO00	0,3444
015635  067731 710730    &_9Y'8    ?}O?l    UUO67	16,@710730(11)
015636  000000 003521        =1    ????(    UUO00	0,3521
015637  070142 436600    '!BCV     ???=@    UUO70	3,436600(2)
015640  000000 003526        =6    ????+    UUO00	0,3526
015641  070142 441060    '!BD(P    ???B?    UUO70	3,441060(2)
015642  000000 003531        =9    ????,    UUO00	0,3531
015643  070226 364000    '"6>@     ??3h?    UUO70	4,@364000(6)
015644  000000 003564        =T    ????:    UUO00	0,3564
015645  070142 440620    '!BD&0    ???AH    UUO70	3,440620(2)
015646  000000 003617        >/    ????G    UUO00	0,3617
015647  067760 077314    &_P'[,    ???~f    UUO67	17,@77314
015650  000000 003621        >1    ????H    UUO00	0,3621
015651  054406 200000    %D&0      ??2??    UUO54	10,200000(6)
015652  000000 000000              ?????    UUO00	0,0
015653  064261 323500    &BQ:=     ???'     UUO64	5,@323500(1)
015654  000000 400000       @      ?????    UUO00	0,400000
015655  070717 356000    ''/=P     ??{\?    UUO70	16,356000(17)
015656  000000 040000       $      ???@?    UUO00	0,40000
015657  064316 421000    &C.B(     ??t"?    UUO64	6,421000(16)
015660  000000 020000       "      ??? ?    UUO00	0,20000
015661  062644 123500    &6D*=     ?Z!'     UUO62	15,123500(4)
015662  000000 040000       $      ???@?    UUO00	0,40000
015663  052320 237766    %303_V    ?M??{    UUO52	6,@237766
015664  000000 014735       !G=    ????n    UUO00	0,14735
015665  061223 152600    &*3-6     ?)?U@    UUO61	4,@152600(3)
015666  000000 005000        H     ?????    UUO00	0,5000
015667  065720 244200    &O04B     ?=?H@    UUO65	16,@244200
015670  000000 015461       !LQ    ?????    UUO00	0,15461
015671  065721 622200    &O1R2     ?=?$@    UUO65	16,@622200(1)
015672  000000 015471       !LY    ?????    UUO00	0,15471
015673  061607 111432    &.'),:    ?89??    UUO61	14,111432(7)
015674  000000 010000       !      ?????    UUO00	0,10000
015675  050735 461200    %'=F*     ??lb@    UUO50	16,@461200(15)
015676  000000 016145       !QE    ????2    UUO00	0,16145
015677  067442 765006    &\B^H&    ?r?j?    UUO67	11,765006(2)
015700  000000 016151       !QI    ????4    UUO00	0,16151
015701  056755 044600    %WM$F     ?^hI@    UUO56	17,44600(15)
015702  000000 020763       "'S    ???!y    UUO00	0,20763
015703  064320 111110    &C0))(    ????$    UUO64	6,@111110
015704  000000 021135       ")=    ???".    UUO00	0,21135
015705  064310 137000    &C(+X     ??A>?    UUO64	6,137000(10)
015706  000000 023141       "9A    ???&0    UUO00	0,23141
015707  064211 220600    &B)2&     ??J!@    UUO64	4,220600(11)
015710  000000 023175       "9]    ???&>    UUO00	0,23175
015711  064307 742000    &C'\0     ???D?    UUO64	6,742000(7)
015712  000000 023652       ">J    ???'U    UUO00	0,23652
015713  064072 256000    &@Z5P     ??R\?    UUO64	1,@256000(12)
015714  000000 066107       &Q'    ???l#    UUO00	0,66107
015715  021725 322510    "/5:5(    ?=+%$    UUO21	16,@322510(5)
015716  345610 014702    <N(!G"    98@?a    AOJGE	14,14702(10)
015717  121607 065600    *.'&N     ?88k@    XX121	14,65600(7)
015720  000000 040000       $      ???@?    UUO00	0,40000
015721  111654 645100    ).LTI     ?:fJ     XX111	15,645100(14)
015722  000000 015005       !H%    ?????    UUO00	0,15005
015723  126445 671000    *TEW(     ?R.r?    XX126	11,671000(5)
015724  000000 063760       &?P    ???gx    UUO00	0,63760
015725  124300 735060    *C [HP    ???:?    XX124	6,735060
015726  000000 015045       !HE    ?????    UUO00	0,15045
015727  115212 421063    )J*B(S    ?(T"?    XX115	4,421063(12)
015730  000000 015166       !IV    ????;    UUO00	0,15166
015731  115212 421064    )J*B(T    ?(T"?    XX115	4,421064(12)
015732  000000 015177       !I_    ?????    UUO00	0,15177
015733  124212 137200    *B*+Z     ??Q>@    XX124	4,137200(12)
015734  000000 015224       !J4    ????J    UUO00	0,15224
015735  122114 525622    *1,JN2    ?De+I    XX122	2,525622(14)
015736  000000 015241       !JA    ????P    UUO00	0,15241
015737  122114 525624    *1,JN4    ?De+J    XX122	2,525624(14)
015740  000000 015246       !JF    ????S    UUO00	0,15246
015741  122114 525625    *1,JN5    ?De+J    XX122	2,525625(14)
015742  000000 015265       !JU    ????Z    UUO00	0,15265
015743  115330 737720    )K8[_0    ?-G?h    XX115	6,@737720(10)
015744  000000 015271       !JY    ????\    UUO00	0,15271
015745  115330 737770    )K8[_X    ?-G?|    XX115	6,@737770(10)
015746  000000 015276       !J^    ????_    UUO00	0,15276
015747  115330 740160    )K8\!P    ?-G@8    XX115	6,@740160(10)
015750  000000 015312       !K*    ????e    UUO00	0,15312
015751  113036 164362    )8>.CR    ?aqhy    XX113	0,@164362(16)
015752  000000 015314       !K,    ????f    UUO00	0,15314
015753  132334 246120    +3<4Q0    ?MbL(    FSC	6,@246120(14)
015754  000000 015337       !K?    ????o    UUO00	0,15337
015755  116770 746120    )WX\Q0    ?_GL(    XX116	17,@746120(10)
015756  000000 015341       !KA    ????p    UUO00	0,15341
015757  110666 610120    )&VQ!0    ??6?(    XX110	15,@610120(6)
015760  000000 015343       !KC    ????q    UUO00	0,15343
015761  121212 121312    ****+*    ?(Q"e    XX121	4,121312(12)
015762  000000 015344       !KD    ????r    UUO00	0,15344
015763  121212 121313    ****++    ?(Q"e    XX121	4,121313(12)
015764  000000 015350       !KH    ????t    UUO00	0,15350
015765  112116 100620    )1.(&0    ?Dq?H    XX112	2,100620(16)
015766  000000 015355       !KM    ????v    UUO00	0,15355
015767  125722 411200    *O2A*     ?=??@    XX125	16,@411200(2)
015770  000000 015403       !L#    ?????    UUO00	0,15403
015771  115212 473316    )J*G;.    ?(Tvg    XX115	4,473316(12)
015772  000000 015410       !L(    ?????    UUO00	0,15410
015773  125720 247300    *O04[     ?=?N`    XX125	16,@247300
015774  000000 015420       !L0    ?????    UUO00	0,15420
015775  125713 335100    *O+;I     ?<[:     XX125	16,335100(13)
015776  000000 015427       !L7    ?????    UUO00	0,15427
015777  125715 302000    *O-80     ?<k??    XX125	16,302000(15)
016000  000000 015453       !LK    ?????    UUO00	0,15453
016001  125712 740000    *O*\      ?<W@?    XX125	16,740000(12)
016002  000000 015467       !LW    ?????    UUO00	0,15467
016003  125720 346210    *O0<R(    ?=?LD    XX125	16,@346210
016004  000000 015501       !M!    ????     UUO00	0,15501
016005  121611 045633    *.)$N;    ?8HKM    XX121	14,45633(11)
016006  000000 015535       !M=    ????.    UUO00	0,15535
016007  121611 045634    *.)$N<    ?8HKN    XX121	14,45634(11)
016010  000000 015537       !M?    ????/    UUO00	0,15537
016011  122723 421504    *73B-$    ?]?#"    XX122	16,@421504(3)
016012  000000 015542       !MB    ????1    UUO00	0,15542
016013  116065 037256    )PU#ZN    ?C(>W    XX116	1,@37256(5)
016014  000000 015545       !ME    ????2    UUO00	0,15545
016015  121216 070460    **.'$P    ?(pq?    XX121	4,70460(16)
016016  000000 015550       !MH    ????4    UUO00	0,15550
016017  110735 054232    )'=%B:    ??hXM    XX110	16,@54232(15)
016020  000000 015553       !MK    ????5    UUO00	0,15553
016021  122707 217000    *7'1X     ?\:??    XX122	16,217000(7)
016022  000000 015556       !MN    ????7    UUO00	0,15556
016023  122723 417260    *73AZP    ?]??X    XX122	16,@417260(3)
016024  000000 015557       !MO    ????7    UUO00	0,15557
016025  122723 417265    *73AZU    ?]??Z    XX122	16,@417265(3)
016026  000000 015606       !N&    ????C    UUO00	0,15606
016027  122723 417263    *73AZS    ?]??Y    XX122	16,@417263(3)
016030  000000 015610       !N(    ????D    UUO00	0,15610
016031  124321 552000    *C1M0     ???T?    XX124	6,@552000(1)
016032  000000 015615       !N-    ????F    UUO00	0,15615
016033  114453 662000    )DKV0     ??^d?    XX114	11,662000(13)
016034  000000 015620       !N0    ????H    UUO00	0,15620
016035  125512 545656    *M*LNN    ?4UKW    XX125	12,545656(12)
016036  000000 015626       !N6    ????K    UUO00	0,15626
016037  122723 417262    *73AZR    ?]??Y    XX122	16,@417262(3)
016040  000000 015641       !NA    ????P    UUO00	0,15641
016041  125714 710000    *O,Y      ?<g??    XX125	16,710000(14)
016042  000000 015676       !N^    ????_    UUO00	0,15676
016043  127671 614000    *^YQ@     ?{N??    XX127	15,@614000(11)
016044  000000 015701       !O!    ????`    UUO00	0,15701
016045  127677 512200    *^_I2     ?{}?@    XX127	15,@512200(17)
016046  000000 015724       !O4    ????j    UUO00	0,15724
016047  111300 037200    )+ #Z     ?,?>@    XX111	6,37200
016050  000000 015765       !OU    ????z    UUO00	0,15765
016051  130116 510755    +!.I'M    ??u?v    XX130	2,510755(16)
016052  000000 015774       !O\    ????~    UUO00	0,15774
016053  113144 764300    )9D^C     ?f'h`    XX113	3,764300(4)
016054  000000 015776       !O^    ?????    UUO00	0,15776
016055  125713 571300    *O+O+     ?<]r`    XX125	16,571300(13)
016056  000000 016024       !P4    ?????    UUO00	0,16024
016057  122700 765540    *7 ^M@    ?\?k0    XX122	16,765540
016060  000000 016026       !P6    ?????    UUO00	0,16026
016061  124246 700225    *BFX"5    ??7?J    XX124	5,700225(6)
016062  000000 016053       !PK    ?????    UUO00	0,16053
016063  124313 772020    *C+_00    ??_t?    XX124	6,772020(13)
016064  000000 016141       !QA    ????0    UUO00	0,16141
016065  125474 662000    *L\V0     ?3fd?    XX125	11,@662000(14)
016066  000000 016145       !QE    ????2    UUO00	0,16145
016067  115212 410054    )J*A L    ?(T??    XX115	4,410054(12)
016070  000000 016147       !QG    ????3    UUO00	0,16147
016071  125474 670200    *L\W"     ?3fp@    XX125	11,@670200(14)
016072  000000 016152       !QJ    ????5    UUO00	0,16152
016073  122055 061200    *0M&*     ?Bhb@    XX122	1,61200(15)
016074  000000 016155       !QM    ????6    UUO00	0,16155
016075  122055 061405    *0M&,%    ?Bhc?    XX122	1,61405(15)
016076  000000 016163       !QS    ????9    UUO00	0,16163
016077  122055 061320    *0M&+0    ?Bhbh    XX122	1,61320(15)
016100  000000 016202       !R"    ????A    UUO00	0,16202
016101  125475 017103    *L]!Y#    ?3h?!    XX125	11,@17103(15)
016102  000000 016221       !R1    ????H    UUO00	0,16221
016103  125475 015430    *L]!L8    ?3h??    XX125	11,@15430(15)
016104  000000 016222       !R2    ????I    UUO00	0,16222
016105  125512 344640    *M*<F@    ?4SIP    XX125	12,344640(12)
016106  000000 016246       !RF    ????S    UUO00	0,16246
016107  125512 344606    *M*<F&    ?4SIC    XX125	12,344606(12)
016110  000000 016260       !RP    ????X    UUO00	0,16260
016111  125512 344605    *M*<F%    ?4SIB    XX125	12,344605(12)
016112  000000 016265       !RU    ????Z    UUO00	0,16265
016113  137700 161345    +_ .+E    ?|?br    DPB	16,161345
016114  776000 764000    _P ^@     ?@?h?    BLKI	760,764000
016115  125512 344570    *M*<EX    ?4SI<    XX125	12,344570(12)
016116  000000 016266       !RV    ????[    UUO00	0,16266
016117  124342 366556    *CB>UN    ???m7    XX124	7,366556(2)
016120  000000 016275       !R]    ????^    UUO00	0,16275
016121  110525 145742    )%5,OB    ??)Kq    XX110	12,@145742(5)
016122  000000 016344       !SD    ????r    UUO00	0,16344
016123  125512 345030    *M*<H8    ?4SJ?    XX125	12,345030(12)
016124  000000 016353       !SK    ????u    UUO00	0,16353
016125  125512 344520    *M*<E0    ?4SI(    XX125	12,344520(12)
016126  000000 016374       !S\    ????~    UUO00	0,16374
016127  125511 557335    *M)M[=    ?4M^n    XX125	12,557335(11)
016130  000000 016413       !T+    ?????    UUO00	0,16413
016131  126633 534152    *V;KAJ    ?Y]85    XX126	14,@534152(13)
016132  000000 016422       !T2    ?????    UUO00	0,16422
016133  115163 307060    )IS8XP    ?'???    XX115	3,@307060(3)
016134  000000 016430       !T8    ?????    UUO00	0,16430
016135  122073 003270    *0[ :X    ?CX?\    XX122	1,@3270(13)
016136  000000 016431       !T9    ?????    UUO00	0,16431
016137  122073 003410    *0[ <(    ?CX??    XX122	1,@3410(13)
016140  000000 016451       !TI    ?????    UUO00	0,16451
016141  122073 003340    *0[ ;@    ?CX?p    XX122	1,@3340(13)
016142  000000 016453       !TK    ?????    UUO00	0,16453
016143  115163 307062    )IS8XR    ?'???    XX115	3,@307062(3)
016144  000000 016501       !U!    ????     UUO00	0,16501
016145  130161 210152    +!Q1!J    ????5    XX130	3,@210152(1)
016146  000000 016510       !U(    ????$    UUO00	0,16510
016147  122066 714000    *0VY@     ?C7??    XX122	1,@714000(6)
016150  000000 016513       !U+    ????%    UUO00	0,16513
016151  122066 714120    *0VYA0    ?C7?(    XX122	1,@714120(6)
016152  000000 016524       !U4    ????*    UUO00	0,16524
016153  121607 033260    *.'#:P    ?886X    XX121	14,33260(7)
016154  000000 016527       !U7    ????+    UUO00	0,16527
016155  121607 000500    *.' %     ?88?     XX121	14,500(7)
016156  000000 016565       !UU    ????:    UUO00	0,16565
016157  121606 770070    *.&_ X    ?87p?    XX121	14,770070(6)
016160  000000 016600       !V     ????@    UUO00	0,16600
016161  121606 773170    *.&_9X    ?87v<    XX121	14,773170(6)
016162  000000 016620       !V0    ????H    UUO00	0,16620
016163  121606 772300    *.&_3     ?87t`    XX121	14,772300(6)
016164  000000 016622       !V2    ????I    UUO00	0,16622
016165  121606 776270    *.&_RX    ?87|\    XX121	14,776270(6)
016166  000000 016626       !V6    ????K    UUO00	0,16626
016167  115211 115317    )J))K/    ?(I?g    XX115	4,115317(11)
016170  000000 016630       !V8    ????L    UUO00	0,16630
016171  113106 056770    )9&%WX    ?d0]|    XX113	2,56770(6)
016172  000000 016646       !VF    ????S    UUO00	0,16646
016173  113106 056742    )9&%WB    ?d0]q    XX113	2,56742(6)
016174  000000 016661       !VQ    ????X    UUO00	0,16661
016175  115424 403770    )L4@?X    ?1$?|    XX115	10,@403770(4)
016176  000000 016707       !W'    ????c    UUO00	0,16707
016177  115424 403734    )L4@?<    ?1$?n    XX115	10,@403734(4)
016200  000000 016716       !W.    ????g    UUO00	0,16716
016201  115424 403735    )L4@?=    ?1$?n    XX115	10,@403735(4)
016202  000000 016722       !W2    ????i    UUO00	0,16722
016203  115424 403733    )L4@?;    ?1$?m    XX115	10,@403733(4)
016204  000000 016724       !W4    ????j    UUO00	0,16724
016205  126554 073622    *UL'>2    ?V`wI    XX126	13,73622(14)
016206  000000 016735       !W=    ????n    UUO00	0,16735
016207  126554 073624    *UL'>4    ?V`wJ    XX126	13,73624(14)
016210  000000 016745       !WE    ????r    UUO00	0,16745
016211  112763 224130    )7S2A8    ?_?(,    XX112	17,@224130(3)
016212  000000 017004       !X$    ?????    UUO00	0,17004
016213  112763 223740    )7S2?@    ?_?'p    XX112	17,@223740(3)
016214  000000 017005       !X%    ?????    UUO00	0,17005
016215  112763 223670    )7S2>X    ?_?'\    XX112	17,@223670(3)
016216  000000 017012       !X*    ?????    UUO00	0,17012
016217  124070 565000    *@XNH     ??Ej?    XX124	1,@565000(10)
016220  000000 017036       !X>    ?????    UUO00	0,17036
016221  131562 637377    +-RS[_    ?7?>?    XX131	13,@637377(2)
016222  000000 017046       !XF    ?????    UUO00	0,17046
016223  131562 637365    +-RS[U    ?7?>z    XX131	13,@637365(2)
016224  000000 017060       !XP    ?????    UUO00	0,17060
016225  131562 637366    +-RS[V    ?7?>{    XX131	13,@637366(2)
016226  000000 017077       !X_    ?????    UUO00	0,17077
016227  131562 637363    +-RS[S    ?7?>y    XX131	13,@637363(2)
016230  000000 017106       !Y&    ????#    UUO00	0,17106
016231  131562 637362    +-RS[R    ?7?>y    XX131	13,@637362(2)
016232  000000 017117       !Y/    ????'    UUO00	0,17117
016233  111070 747362    )(X\[R    ?#GNy    XX111	1,@747362(10)
016234  000000 017121       !Y1    ????(    UUO00	0,17121
016235  125522 407720    *M2@_0    ?5??h    XX125	12,@407720(2)
016236  000000 017171       !YY    ????<    UUO00	0,17171
016237  111071 360622    )(Y>&2    ?#KaI    XX111	1,@360622(11)
016240  000000 017217       !Z/    ????G    UUO00	0,17217
016241  125522 412107    *M2A1'    ?5??#    XX125	12,@412107(2)
016242  000000 017222       !Z2    ????I    UUO00	0,17222
016243  125522 407770    *M2@_X    ?5??|    XX125	12,@407770(2)
016244  000000 017223       !Z3    ????I    UUO00	0,17223
016245  110562 572016    )%RO0.    ???t?    XX110	13,@572016(2)
016246  000000 017237       !Z?    ????O    UUO00	0,17237
016247  110566 241062    )%V4(R    ??2B?    XX110	13,@241062(6)
016250  000000 017260       !ZP    ????X    UUO00	0,17260
016251  112320 154040    )30-@@    ?M?X?    XX112	6,@154040
016252  000000 017304       ![$    ????b    UUO00	0,17304
016253  112320 153770    )30-?X    ?M?W|    XX112	6,@153770
016254  000000 017310       ![(    ????d    UUO00	0,17310
016255  110672 751362    )&Z]+R    ??WRy    XX110	15,@751362(12)
016256  000000 017312       ![*    ????e    UUO00	0,17312
016257  126305 251064    *S%5(T    ?L*R?    XX126	6,251064(5)
016260  000000 017352       ![J    ????u    UUO00	0,17352
016261  126305 251062    *S%5(R    ?L*R?    XX126	6,251062(5)
016262  000000 017364       ![T    ????z    UUO00	0,17364
016263  126305 251070    *S%5(X    ?L*R?    XX126	6,251070(5)
016264  000000 017367       ![W    ????{    UUO00	0,17367
016265  125474 734436    *L\[D>    ?3g9?    XX125	11,@734436(14)
016266  000000 017372       ![Z    ????}    UUO00	0,17372
016267  125121 316260    *I19RP    ?%??X    XX125	2,@316260(1)
016270  000000 017373       ![[    ????}    UUO00	0,17373
016271  110611 325200    )&):J     ??K*@    XX110	14,325200(11)
016272  000000 017400       !\     ?????    UUO00	0,17400
016273  110611 325370    )&):KX    ??K*|    XX110	14,325370(11)
016274  000000 017436       !\>    ?????    UUO00	0,17436
016275  110611 325510    )&):M(    ??K+$    XX110	14,325510(11)
016276  000000 017470       !\X    ?????    UUO00	0,17470
016277  110611 325713    )&):O+    ??K+e    XX110	14,325713(11)
016300  000000 017535       !]=    ????.    UUO00	0,17535
016301  110611 325714    )&):O,    ??K+f    XX110	14,325714(11)
016302  000000 017542       !]B    ????1    UUO00	0,17542
016303  110611 326020    )&):P0    ??K,?    XX110	14,326020(11)
016304  000000 017560       !]P    ????8    UUO00	0,17560
016305  110611 327413    )&):\+    ??K/?    XX110	14,327413(11)
016306  000000 017573       !][    ????=    UUO00	0,17573
016307  110611 327414    )&):\,    ??K/?    XX110	14,327414(11)
016310  000000 017601       !^!    ????@    UUO00	0,17601
016311  110611 325716    )&):O.    ??K+g    XX110	14,325716(11)
016312  000000 017620       !^0    ????H    UUO00	0,17620
016313  110611 325321    )&):K1    ??K*h    XX110	14,325321(11)
016314  000000 017623       !^3    ????I    UUO00	0,17623
016315  110611 325560    )&):MP    ??K+8    XX110	14,325560(11)
016316  000000 017624       !^4    ????J    UUO00	0,17624
016317  110471 070435    )$Y'$=    ??Hq?    XX110	11,@70435(11)
016320  000000 017626       !^6    ????K    UUO00	0,17626
016321  110611 326214    )&):R,    ??K,F    XX110	14,326214(11)
016322  000000 017653       !^K    ????U    UUO00	0,17653
016323  112317 626002    )3/RP"    ?L~,?    XX112	6,626002(17)
016324  000000 017720       !_0    ????h    UUO00	0,17720
016325  112317 626005    )3/RP%    ?L~,?    XX112	6,626005(17)
016326  000000 017734       !_<    ????n    UUO00	0,17734
016327  112317 526630    )3/JV8    ?L}-L    XX112	6,526630(17)
016330  000000 017741       !_A    ????p    UUO00	0,17741
016331  112317 626006    )3/RP&    ?L~,?    XX112	6,626006(17)
016332  000000 017743       !_C    ????q    UUO00	0,17743
016333  115165 641720    )IUT/0    ?'.Ch    XX115	3,@641720(5)
016334  000000 017746       !_F    ????s    UUO00	0,17746
016335  115165 642040    )IUT0@    ?'.D?    XX115	3,@642040(5)
016336  000000 017765       !_U    ????z    UUO00	0,17765
016337  115165 642110    )IUT1(    ?'.D$    XX115	3,@642110(5)
016340  000000 017767       !_W    ????{    UUO00	0,17767
016341  111754 413727    )/LA?7    ?>d?k    XX111	17,413727(14)
016342  000000 017776       !_^    ?????    UUO00	0,17776
016343  115165 641770    )IUT/X    ?'.C|    XX115	3,@641770(5)
016344  000000 017776       !_^    ?????    UUO00	0,17776
016345  112307 607540    )3'P]@    ?L>?0    XX112	6,607540(7)
016346  000000 020056       " N    ??? ?    UUO00	0,20056
016347  112307 606770    )3'PWX    ?L>?|    XX112	6,606770(7)
016350  000000 020064       " T    ??? ?    UUO00	0,20064
016351  112307 607470    )3'P\X    ?L>??    XX112	6,607470(7)
016352  000000 020106       "!&    ??? #    UUO00	0,20106
016353  112307 607673    )3'P^[    ?L>?]    XX112	6,607673(7)
016354  000000 020125       "!5    ??? *    UUO00	0,20125
016355  112307 607660    )3'P^P    ?L>?X    XX112	6,607660(7)
016356  000000 020127       "!7    ??? +    UUO00	0,20127
016357  112307 607040    )3'PX@    ?L>??    XX112	6,607040(7)
016360  000000 020146       "!F    ??? 3    UUO00	0,20146
016361  112320 146657    )30,VO    ?M?MW    XX112	6,@146657
016362  000000 020237       ""?    ??? O    UUO00	0,20237
016363  112320 146652    )30,VJ    ?M?MU    XX112	6,@146652
016364  000000 020240       ""@    ??? P    UUO00	0,20240
016365  112320 146655    )30,VM    ?M?MV    XX112	6,@146655
016366  000000 020254       ""L    ??? V    UUO00	0,20254
016367  112320 146654    )30,VL    ?M?MV    XX112	6,@146654
016370  000000 020255       ""M    ??? V    UUO00	0,20255
016371  112320 146661    )30,VQ    ?M?MX    XX112	6,@146661
016372  000000 020262       ""R    ??? Y    UUO00	0,20262
016373  121264 160120    **T.!0    ?+!`(    XX121	5,@160120(4)
016374  000000 020305       "#%    ??? b    UUO00	0,20305
016375  121264 160130    **T.!8    ?+!`,    XX121	5,@160130(4)
016376  000000 020345       "#E    ??? r    UUO00	0,20345
016377  121264 160127    **T.!7    ?+!`+    XX121	5,@160127(4)
016400  000000 020346       "#F    ??? s    UUO00	0,20346
016401  121264 160125    **T.!5    ?+!`*    XX121	5,@160125(4)
016402  000000 020361       "#Q    ??? x    UUO00	0,20361
016403  121264 160154    **T.!L    ?+!`6    XX121	5,@160154(4)
016404  000000 020367       "#W    ??? {    UUO00	0,20367
016405  111004 166640    )($.V@    ? !mP    XX111	0,166640(4)
016406  000000 020442       "$B    ???!?    UUO00	0,20442
016407  111004 166520    )($.U0    ? !m(    XX111	0,166520(4)
016410  000000 020470       "$X    ???!?    UUO00	0,20470
016411  111004 166710    )($.W(    ? !md    XX111	0,166710(4)
016412  000000 020502       "%"    ???!!    UUO00	0,20502
016413  111004 166653    )($.VK    ? !mU    XX111	0,166653(4)
016414  000000 020513       "%+    ???!%    UUO00	0,20513
016415  111004 166604    )($.V$    ? !mB    XX111	0,166604(4)
016416  000000 020517       "%/    ???!'    UUO00	0,20517
016417  111004 166723    )($.W3    ? !mi    XX111	0,166723(4)
016420  000000 020522       "%2    ???!)    UUO00	0,20522
016421  126305 250000    *S%5      ?L*P?    XX126	6,250000(5)
016422  000000 020603       "&#    ???!A    UUO00	0,20603
016423  126305 250240    *S%5"@    ?L*PP    XX126	6,250240(5)
016424  000000 020634       "&<    ???!N    UUO00	0,20634
016425  126305 250310    *S%5#(    ?L*Pd    XX126	6,250310(5)
016426  000000 020647       "&G    ???!S    UUO00	0,20647
016427  126305 250443    *S%5$C    ?L*Q?    XX126	6,250443(5)
016430  000000 020655       "&M    ???!V    UUO00	0,20655
016431  126305 250430    *S%5$8    ?L*Q?    XX126	6,250430(5)
016432  000000 020656       "&N    ???!W    UUO00	0,20656
016433  126305 245020    *S%4H0    ?L*J?    XX126	6,245020(5)
016434  000000 020675       "&]    ???!^    UUO00	0,20675
016435  122626 361000    *66>(     ?Y3b?    XX122	14,@361000(6)
016436  000000 020702       "'"    ???!a    UUO00	0,20702
016437  122626 361006    *66>(&    ?Y3b?    XX122	14,@361006(6)
016440  000000 020746       "'F    ???!s    UUO00	0,20746
016441  112333 377410    )3;?\(    ?M[??    XX112	6,@377410(13)
016442  000000 020752       "'J    ???!u    UUO00	0,20752
016443  116755 044770    )WM$GX    ?^hI|    XX116	17,44770(15)
016444  000000 021000       "(     ???"?    UUO00	0,21000
016445  112353 322500    )3K:5     ?N[%     XX112	7,322500(13)
016446  000000 021102       ")"    ???"!    UUO00	0,21102
016447  111070 747377    )(X\[_    ?#GN?    XX111	1,@747377(10)
016450  000000 021103       ")#    ???"!    UUO00	0,21103
016451  110753 201532    )'K0-:    ??Z?-    XX110	17,201532(13)
016452  000000 021103       ")#    ???"!    UUO00	0,21103
016453  110753 201533    )'K0-;    ??Z?-    XX110	17,201533(13)
016454  000000 021123       ")3    ???")    UUO00	0,21123
016455  125523 401070    *M3@(X    ?5???    XX125	12,@401070(3)
016456  000000 021141       ")A    ???"0    UUO00	0,21141
016457  110716 050132    )'.%!:    ??pP-    XX110	16,50132(16)
016460  000000 021142       ")B    ???"1    UUO00	0,21142
016461  113757 153200    )?O-:     ?~yV@    XX113	17,153200(17)
016462  000000 021201       "*!    ???"@    UUO00	0,21201
016463  113760 357000    )?P=X     ???^?    XX113	17,@357000
016464  000000 021217       "*/    ???"G    UUO00	0,21217
016465  115314 604134    )K,PA<    ?,f?.    XX115	6,604134(14)
016466  000000 021243       "*C    ???"Q    UUO00	0,21243
016467  121145 247171    *)E4YY    ?&*N<    XX121	3,247171(5)
016470  000000 021244       "*D    ???"R    UUO00	0,21244
016471  113760 337300    )?P;[     ???>`    XX113	17,@337300
016472  000000 021261       "*Q    ???"X    UUO00	0,21261
016473  112110 611033    )1(Q(;    ?DF??    XX112	2,611033(10)
016474  000000 021264       "*T    ???"Z    UUO00	0,21264
016475  121214 322270    **,:2X    ?(c$\    XX121	4,322270(14)
016476  000000 021265       "*U    ???"Z    UUO00	0,21265
016477  113760 334200    )?P;B     ???8@    XX113	17,@334200
016500  000000 021272       "*Z    ???"]    UUO00	0,21272
016501  113760 335330    )?P;K8    ???:l    XX113	17,@335330
016502  000000 021306       "+&    ???"c    UUO00	0,21306
016503  113760 335260    )?P;JP    ???:X    XX113	17,@335260
016504  000000 021307       "+'    ???"c    UUO00	0,21307
016505  110747 703033    )'GX8;    ?????    XX110	17,703033(7)
016506  000000 021322       "+2    ???"i    UUO00	0,21322
016507  110761 534253    )'QKBK    ???8U    XX110	17,@534253(1)
016510  000000 021324       "+4    ???"j    UUO00	0,21324
016511  123533 612733    *=;Q7;    ?u^?m    XX123	12,@612733(13)
016512  000000 021325       "+5    ???"j    UUO00	0,21325
016513  123533 612732    *=;Q7:    ?u^?m    XX123	12,@612732(13)
016514  000000 021326       "+6    ???"k    UUO00	0,21326
016515  113760 335210    )?P;J(    ???:D    XX113	17,@335210
016516  000000 021344       "+D    ???"r    UUO00	0,21344
016517  123772 475000    *?ZGH     ??Tz?    XX123	17,@475000(12)
016520  000000 021362       "+R    ???"y    UUO00	0,21362
016521  124046 207054    *@F0XL    ??2??    XX124	1,207054(6)
016522  000000 021363       "+S    ???"y    UUO00	0,21363
016523  124046 207020    *@F0X0    ??2??    XX124	1,207020(6)
016524  000000 021364       "+T    ???"z    UUO00	0,21364
016525  113760 335226    )?P;J6    ???:K    XX113	17,@335226
016526  000000 021366       "+V    ???"{    UUO00	0,21366
016527  113760 335223    )?P;J3    ???:I    XX113	17,@335223
016530  000000 021371       "+Y    ???"|    UUO00	0,21371
016531  113755 601170    )?MP)X    ?~n?<    XX113	17,601170(15)
016532  000000 021374       "+\    ???"~    UUO00	0,21374
016533  113760 335143    )?P;IC    ???:1    XX113	17,@335143
016534  000000 021400       ",     ???#?    UUO00	0,21400
016535  113760 335140    )?P;I@    ???:0    XX113	17,@335140
016536  000000 021401       ",!    ???#?    UUO00	0,21401
016537  112317 626003    )3/RP#    ?L~,?    XX112	6,626003(17)
016540  000000 021412       ",*    ???#?    UUO00	0,21412
016541  113760 335153    )?P;IK    ???:5    XX113	17,@335153
016542  000000 021413       ",+    ???#?    UUO00	0,21413
016543  113760 335154    )?P;IL    ???:6    XX113	17,@335154
016544  000000 021427       ",7    ???#?    UUO00	0,21427
016545  113760 336437    )?P;T?    ???=?    XX113	17,@336437
016546  000000 021434       ",<    ???#?    UUO00	0,21434
016547  113760 335070    )?P;HX    ???:?    XX113	17,@335070
016550  000000 021451       ",I    ???#?    UUO00	0,21451
016551  125474 765370    *L\^KX    ?3gj|    XX125	11,@765370(14)
016552  000000 021455       ",M    ???#?    UUO00	0,21455
016553  115212 502716    )J*H7.    ?(U?g    XX115	4,502716(12)
016554  000000 021457       ",O    ???#?    UUO00	0,21457
016555  115435 425662    )L=BNR    ?1l+Y    XX115	10,@425662(15)
016556  000000 021503       "-#    ???#!    UUO00	0,21503
016557  115435 424770    )L=BGX    ?1l)|    XX115	10,@424770(15)
016560  000000 021510       "-(    ???#$    UUO00	0,21510
016561  115435 425006    )L=BH&    ?1l*?    XX115	10,@425006(15)
016562  000000 021517       "-/    ???#'    UUO00	0,21517
016563  115435 425005    )L=BH%    ?1l*?    XX115	10,@425005(15)
016564  000000 021521       "-1    ???#(    UUO00	0,21521
016565  115435 425022    )L=BH2    ?1l*?    XX115	10,@425022(15)
016566  000000 021523       "-3    ???#)    UUO00	0,21523
016567  115435 443030    )L=D88    ?1lF?    XX115	10,@443030(15)
016570  000000 021527       "-7    ???#+    UUO00	0,21527
016571  115435 424720    )L=BG0    ?1l)h    XX115	10,@424720(15)
016572  000000 021532       "-:    ???#-    UUO00	0,21532
016573  115435 425040    )L=BH@    ?1l*?    XX115	10,@425040(15)
016574  000000 021535       "-=    ???#.    UUO00	0,21535
016575  115435 425300    )L=BK     ?1l*`    XX115	10,@425300(15)
016576  000000 021546       "-F    ???#3    UUO00	0,21546
016577  115435 425371    )L=BKY    ?1l*|    XX115	10,@425371(15)
016600  000000 021561       "-Q    ???#8    UUO00	0,21561
016601  115435 425243    )L=BJC    ?1l*Q    XX115	10,@425243(15)
016602  000000 021567       "-W    ???#;    UUO00	0,21567
016603  115435 425540    )L=BM@    ?1l+0    XX115	10,@425540(15)
016604  000000 021575       "-]    ???#>    UUO00	0,21575
016605  115435 365520    )L=>M0    ?1kk(    XX115	10,@365520(15)
016606  000000 021576       "-^    ???#?    UUO00	0,21576
016607  115435 425230    )L=BJ8    ?1l*L    XX115	10,@425230(15)
016610  000000 021603       ".#    ???#A    UUO00	0,21603
016611  115435 425160    )L=BIP    ?1l*8    XX115	10,@425160(15)
016612  000000 021610       ".(    ???#D    UUO00	0,21610
016613  115435 425314    )L=BK,    ?1l*f    XX115	10,@425314(15)
016614  000000 021617       "./    ???#G    UUO00	0,21617
016615  115435 426622    )L=BV2    ?1l-I    XX115	10,@426622(15)
016616  000000 021640       ".@    ???#P    UUO00	0,21640
016617  115435 426623    )L=BV3    ?1l-I    XX115	10,@426623(15)
016620  000000 021643       ".C    ???#Q    UUO00	0,21643
016621  135551 362000    +MI>0     ?6Kd?    LDB	13,362000(11)
016622  000000 021646       ".F    ???#S    UUO00	0,21646
016623  115435 425730    )L=BO8    ?1l+l    XX115	10,@425730(15)
016624  000000 021647       ".G    ???#S    UUO00	0,21647
016625  115435 425733    )L=BO;    ?1l+m    XX115	10,@425733(15)
016626  000000 021657       ".O    ???#W    UUO00	0,21657
016627  115435 425732    )L=BO:    ?1l+m    XX115	10,@425732(15)
016630  000000 021662       ".R    ???#Y    UUO00	0,21662
016631  115435 425735    )L=BO=    ?1l+n    XX115	10,@425735(15)
016632  000000 021664       ".T    ???#Z    UUO00	0,21664
016633  115212 504360    )J*HCP    ?(U?x    XX115	4,504360(12)
016634  000000 021666       ".V    ???#[    UUO00	0,21666
016635  115435 401040    )L=@(@    ?1l??    XX115	10,@401040(15)
016636  000000 021701       "/!    ???#`    UUO00	0,21701
016637  124211 233711    *B)3?)    ??J7d    XX124	4,233711(11)
016640  000000 021703       "/#    ???#a    UUO00	0,21703
016641  113200 503600    ): H>     ?h??@    XX113	4,503600
016642  000000 400000       @      ?????    UUO00	0,400000
016643  112776 351600    )7^=.     ?_sS@    XX112	17,@351600(16)
016644  000000 200000       0      ?????    UUO00	0,200000
016645  113204 514000    ):$I@     ?h%??    XX113	4,514000(4)
016646  000000 021711       "/)    ???#d    UUO00	0,21711
016647  113776 450000    )?^E      ??tP?    XX113	17,@450000(16)
016650  000000 021750       "/H    ???#t    UUO00	0,21750
016651  113777 434000    )?_C@     ??|8?    XX113	17,@434000(17)
016652  000000 022005       "0%    ???$?    UUO00	0,22005
016653  114000 026000    )@ "P     ???,?    XX114	0,26000
016654  000000 022010       "0(    ???$?    UUO00	0,22010
016655  113777 237000    )?_3X     ??z>?    XX113	17,@237000(17)
016656  000000 022020       "00    ???$?    UUO00	0,22020
016657  113777 301300    )?_8+     ??{?`    XX113	17,@301300(17)
016660  000000 022022       "02    ???$?    UUO00	0,22022
016661  124246 670520    *BFW%0    ??6q(    XX124	5,670520(6)
016662  000000 022030       "08    ???$?    UUO00	0,22030
016663  113777 501520    )?_H-0    ??}?(    XX113	17,@501520(17)
016664  000000 022032       "0:    ???$?    UUO00	0,22032
016665  114000 223000    )@ 28     ???&?    XX114	0,223000
016666  000000 022034       "0<    ???$?    UUO00	0,22034
016667  114000 265300    )@ 6K     ???j`    XX114	0,265300
016670  000000 022036       "0>    ???$?    UUO00	0,22036
016671  130764 656120    +'TUQ0    ??&\(    XX130	17,@656120(4)
016672  000000 022040       "0@    ???$?    UUO00	0,22040
016673  130764 656750    +'TUWH    ??&]t    XX130	17,@656750(4)
016674  000000 022041       "0A    ???$?    UUO00	0,22041
016675  130764 654300    +'TUC     ??&X`    XX130	17,@654300(4)
016676  000000 022042       "0B    ???$?    UUO00	0,22042
016677  130764 660270    +'TV"X    ??&`\    XX130	17,@660270(4)
016700  000000 022047       "0G    ???$?    UUO00	0,22047
016701  115751 671200    )OIW*     ?>Nr@    XX115	17,671200(11)
016702  000000 022056       "0N    ???$?    UUO00	0,22056
016703  116640 316674    )V@9V\    ?Z??^    XX116	15,316674
016704  000000 022065       "0U    ???$?    UUO00	0,22065
016705  114545 122504    )EE*5$    ??)%"    XX114	13,122504(5)
016706  000000 022112       "1*    ???$%    UUO00	0,22112
016707  114602 654530    )F"UE8    ???Y,    XX114	14,654530(2)
016710  000000 022136       "1>    ???$/    UUO00	0,22136
016711  115212 507256    )J*HZN    ?(U?W    XX115	4,507256(12)
016712  000000 022147       "1G    ???$3    UUO00	0,22147
016713  115435 571160    )L=O)P    ?1mr8    XX115	10,@571160(15)
016714  000000 022215       "2-    ???$F    UUO00	0,22215
016715  112320 013570    )30!=X    ?M??<    XX112	6,@13570
016716  000000 022224       "24    ???$J    UUO00	0,22224
016717  115212 506163    )J*HQS    ?(U?9    XX115	4,506163(12)
016720  000000 022245       "2E    ???$R    UUO00	0,22245
016721  112320 013572    )30!=Z    ?M??=    XX112	6,@13572
016722  000000 022255       "2M    ???$V    UUO00	0,22255
016723  126500 630630    *U S&8    ?T?1L    XX126	12,630630
016724  000000 022257       "2O    ???$W    UUO00	0,22257
016725  116757 531576    )WOK-^    ?^}3?    XX116	17,531576(17)
016726  000000 022275       "2]    ???$^    UUO00	0,22275
016727  116757 531062    )WOK(R    ?^}2?    XX116	17,531062(17)
016730  000000 022321       "31    ???$h    UUO00	0,22321
016731  116757 531063    )WOK(S    ?^}2?    XX116	17,531063(17)
016732  000000 022335       "3=    ???$n    UUO00	0,22335
016733  116757 552600    )WOM6     ?^}U@    XX116	17,552600(17)
016734  000000 022340       "3@    ???$p    UUO00	0,22340
016735  116757 615100    )WOQI     ?^~?     XX116	17,615100(17)
016736  000000 022347       "3G    ???$s    UUO00	0,22347
016737  116757 575400    )WOOL     ?^}{?    XX116	17,575400(17)
016740  000000 022355       "3M    ???$v    UUO00	0,22355
016741  116757 511336    )WOI+>    ?^}?o    XX116	17,511336(17)
016742  000000 022360       "3P    ???$x    UUO00	0,22360
016743  116757 511332    )WOI+:    ?^}?m    XX116	17,511332(17)
016744  000000 022361       "3Q    ???$x    UUO00	0,22361
016745  124046 207010    *@F0X(    ??2??    XX124	1,207010(6)
016746  000000 022411       "4)    ???%?    UUO00	0,22411
016747  123533 672330    *=;W38    ?u^tl    XX123	12,@672330(13)
016750  000000 022422       "42    ???%?    UUO00	0,22422
016751  123533 706160    *=;XQP    ?u_?8    XX123	12,@706160(13)
016752  000000 022423       "43    ???%?    UUO00	0,22423
016753  123533 661566    *=;V-V    ?u^c;    XX123	12,@661566(13)
016754  000000 022424       "44    ???%?    UUO00	0,22424
016755  113536 037500    )=>#]     ?up?     XX113	12,@37500(16)
016756  000000 022443       "4C    ???%?    UUO00	0,22443
016757  113536 037740    )=>#_@    ?up?p    XX113	12,@37740(16)
016760  000000 022454       "4L    ???%?    UUO00	0,22454
016761  113535 552300    )==M3     ?umT`    XX113	12,@552300(15)
016762  000000 022504       "5$    ???%"    UUO00	0,22504
016763  113536 040010    )=>$ (    ?up@?    XX113	12,@40010(16)
016764  000000 022512       "5*    ???%%    UUO00	0,22512
016765  124365 340470    *CU<$X    ??+A?    XX124	7,@340470(5)
016766  000000 022525       "55    ???%*    UUO00	0,22525
016767  124365 337600    *CU;^     ??+?@    XX124	7,@337600(5)
016770  000000 022526       "56    ???%+    UUO00	0,22526
016771  124365 340313    *CU<#+    ??+@e    XX124	7,@340313(5)
016772  000000 022566       "5V    ???%;    UUO00	0,22566
016773  124365 340300    *CU<#     ??+@`    XX124	7,@340300(5)
016774  000000 022567       "5W    ???%;    UUO00	0,22567
016775  124365 340160    *CU<!P    ??+@8    XX124	7,@340160(5)
016776  000000 022574       "5\    ???%>    UUO00	0,22574
016777  124365 340174    *CU<!\    ??+@>    XX124	7,@340174(5)
017000  000000 022606       "6&    ???%C    UUO00	0,22606
017001  124365 340042    *CU< B    ??+@?    XX124	7,@340042(5)
017002  000000 022650       "6H    ???%T    UUO00	0,22650
017003  124365 340060    *CU< P    ??+@?    XX124	7,@340060(5)
017004  000000 022701       "7!    ???%`    UUO00	0,22701
017005  125677 505460    *N_HLP    ?;}??    XX125	15,@505460(17)
017006  000000 022703       "7#    ???%a    UUO00	0,22703
017007  124365 340057    *CU< O    ??+@?    XX124	7,@340057(5)
017010  000000 022711       "7)    ???%d    UUO00	0,22711
017011  124365 340040    *CU< @    ??+@?    XX124	7,@340040(5)
017012  000000 022713       "7+    ???%e    UUO00	0,22713
017013  124365 337770    *CU;_X    ??+?|    XX124	7,@337770(5)
017014  000000 022714       "7,    ???%f    UUO00	0,22714
017015  125474 763500    *L\^=     ?3gg     XX125	11,@763500(14)
017016  000000 022721       "71    ???%h    UUO00	0,22721
017017  125623 472074    *N3G0\    ?9?t?    XX125	14,@472074(3)
017020  000000 022730       "78    ???%l    UUO00	0,22730
017021  125640 322130    *N@:18    ?:?$,    XX125	15,322130
017022  000000 022732       "7:    ???%m    UUO00	0,22732
017023  124365 337720    *CU;_0    ??+?h    XX124	7,@337720(5)
017024  000000 022737       "7?    ???%o    UUO00	0,22737
017025  126272 637670    *RZS^X    ?KV?\    XX126	5,@637670(12)
017026  000000 023000       "8     ???&?    UUO00	0,23000
017027  114001 512310    )@!I3(    ????d    XX114	0,512310(1)
017030  000000 023005       "8%    ???&?    UUO00	0,23005
017031  124302 356700    *C"=W     ???]`    XX124	6,356700(2)
017032  000000 023010       "8(    ???&?    UUO00	0,23010
017033  124302 357020    *C"=X0    ???^?    XX124	6,357020(2)
017034  000000 023015       "8-    ???&?    UUO00	0,23015
017035  121116 175300    *)./K     ?$qz`    XX121	2,175300(16)
017036  000000 023046       "8F    ???&?    UUO00	0,23046
017037  121116 200400    *).0$     ?$r??    XX121	2,200400(16)
017040  000000 023063       "8S    ???&?    UUO00	0,23063
017041  121116 304120    *).8A0    ?$s?(    XX121	2,304120(16)
017042  000000 023071       "8Y    ???&?    UUO00	0,23071
017043  121116 206600    *).0V     ?$r?@    XX121	2,206600(16)
017044  000000 023117       "9/    ???&'    UUO00	0,23117
017045  124030 361300    *@8>+     ??Cb`    XX124	0,@361300(10)
017046  000000 023147       "9G    ???&3    UUO00	0,23147
017047  124030 364400    *@8>D     ??Ci?    XX124	0,@364400(10)
017050  000000 023164       "9T    ???&:    UUO00	0,23164
017051  124206 460330    *B&F#8    ??4`l    XX124	4,460330(6)
017052  000000 023167       "9W    ???&;    UUO00	0,23167
017053  124211 220720    *B)2'0    ??J!h    XX124	4,220720(11)
017054  000000 023200       ":     ???&@    UUO00	0,23200
017055  110541 233720    )%A3?0    ???7h    XX110	13,233720(1)
017056  000000 023224       ":4    ???&J    UUO00	0,23224
017057  110541 233770    )%A3?X    ???7|    XX110	13,233770(1)
017060  000000 023241       ":A    ???&P    UUO00	0,23241
017061  110541 234160    )%A3AP    ???88    XX110	13,234160(1)
017062  000000 023244       ":D    ???&R    UUO00	0,23244
017063  110541 234177    )%A3A_    ???8?    XX110	13,234177(1)
017064  000000 023261       ":Q    ???&X    UUO00	0,23261
017065  110541 234174    )%A3A\    ???8>    XX110	13,234174(1)
017066  000000 023270       ":X    ???&\    UUO00	0,23270
017067  110645 715500    )&EYM     ??/?     XX110	15,715500(5)
017070  000000 023307       ";'    ???&c    UUO00	0,23307
017071  110645 715620    )&EYN0    ??/?H    XX110	15,715620(5)
017072  000000 023346       ";F    ???&s    UUO00	0,23346
017073  110645 715740    )&EYO@    ??/?p    XX110	15,715740(5)
017074  000000 023404       "<$    ???'?    UUO00	0,23404
017075  110645 716060    )&EYPP    ??/??    XX110	15,716060(5)
017076  000000 023415       "<-    ???'?    UUO00	0,23415
017077  111067 561120    )(WN)0    ?#=b(    XX111	1,@561120(7)
017100  000000 023435       "<=    ???'?    UUO00	0,23435
017101  110503 437670    )%#C^X    ????\    XX110	12,437670(3)
017102  000000 023443       "<C    ???'?    UUO00	0,23443
017103  110503 440010    )%#D (    ???@?    XX110	12,440010(3)
017104  000000 023452       "<J    ???'?    UUO00	0,23452
017105  113773 634240    )?[SB@    ??^8P    XX113	17,@634240(13)
017106  000000 023472       "<Z    ???'?    UUO00	0,23472
017107  113773 522200    )?[J2     ??]$@    XX113	17,@522200(13)
017110  000000 023522       "=2    ???')    UUO00	0,23522
017111  126633 563422    *V;N<2    ?Y]g?    XX126	14,@563422(13)
017112  000000 023553       "=K    ???'5    UUO00	0,23553
017113  126633 562622    *V;N62    ?Y]eI    XX126	14,@562622(13)
017114  000000 023567       "=W    ???';    UUO00	0,23567
017115  126635 243400    *V=4<     ?YjG?    XX126	14,@243400(15)
017116  000000 023571       "=Y    ???'<    UUO00	0,23571
017117  123254 041136    *:L$)>    ?j`B/    XX123	5,41136(14)
017120  000000 023574       "=\    ???'>    UUO00	0,23574
017121  113773 533500    )?[K=     ??]7     XX113	17,@533500(13)
017122  000000 023604       ">$    ???'B    UUO00	0,23604
017123  113773 536600    )?[KV     ??]=@    XX113	17,@536600(13)
017124  000000 023607       ">'    ???'C    UUO00	0,23607
017125  113773 525300    )?[JK     ??]*`    XX113	17,@525300(13)
017126  000000 023611       ">)    ???'D    UUO00	0,23611
017127  113773 530400    )?[K$     ??]1?    XX113	17,@530400(13)
017130  000000 023614       ">,    ???'F    UUO00	0,23614
017131  113773 644566    )?[TEV    ??^I;    XX113	17,@644566(13)
017132  000000 023616       ">.    ???'G    UUO00	0,23616
017133  126402 122421    *T"*41    ?P?%?    XX126	10,122421(2)
017134  000000 023623       ">3    ???'I    UUO00	0,23623
017135  112356 314000    )3N9@     ?Ns??    XX112	7,314000(16)
017136  000000 023631       ">9    ???'L    UUO00	0,23631
017137  116554 753000    )UL]8     ?VgV?    XX116	13,753000(14)
017140  000000 023635       ">=    ???'N    UUO00	0,23635
017141  127443 041520    *\C$-0    ?r?C(    XX127	11,41520(3)
017142  000000 023643       ">C    ???'Q    UUO00	0,23643
017143  126377 272205    *S_72%    ?OztB    XX126	7,@272205(17)
017144  000000 023653       ">K    ???'U    UUO00	0,23653
017145  112104 507202    )1$HZ"    ?D%?A    XX112	2,507202(4)
017146  000000 023664       ">T    ???'Z    UUO00	0,23664
017147  110762 524720    )'RJG0    ???)h    XX110	17,@524720(2)
017150  000000 023702       "?"    ???'a    UUO00	0,23702
017151  110747 707062    )'GXXR    ?????    XX110	17,707062(7)
017152  000000 023731       "?9    ???'l    UUO00	0,23731
017153  112260 037202    )2P#Z"    ?K?>A    XX112	5,@37202
017154  000000 023741       "?A    ???'p    UUO00	0,23741
017155  112332 227640    )3:2^@    ?MR/P    XX112	6,@227640(12)
017156  000000 023742       "?B    ???'q    UUO00	0,23742
017157  126633 500462    *V;H$R    ?Y]??    XX126	14,@500462(13)
017160  000000 023743       "?C    ???'q    UUO00	0,23743
017161  126633 477053    *V;GXK    ?Y\~?    XX126	14,@477053(13)
017162  000000 024007       "@'    ???(?    UUO00	0,24007
017163  126633 477040    *V;GX@    ?Y\~?    XX126	14,@477040(13)
017164  000000 024010       "@(    ???(?    UUO00	0,24010
017165  126633 476720    *V;GW0    ?Y\}h    XX126	14,@476720(13)
017166  000000 024024       "@4    ???(?    UUO00	0,24024
017167  126633 477003    *V;GX#    ?Y\~?    XX126	14,@477003(13)
017170  000000 024032       "@:    ???(?    UUO00	0,24032
017171  126633 477004    *V;GX$    ?Y\~?    XX126	14,@477004(13)
017172  000000 024034       "@<    ???(?    UUO00	0,24034
017173  126633 477230    *V;GZ8    ?Y\~L    XX126	14,@477230(13)
017174  000000 024047       "@G    ???(?    UUO00	0,24047
017175  112303 270712    )3#7'*    ?L?qe    XX112	6,270712(3)
017176  000000 024052       "@J    ???(?    UUO00	0,24052
017177  112307 767370    )3'^[X    ?L?n|    XX112	6,767370(7)
017200  000000 024076       "@^    ???(?    UUO00	0,24076
017201  126633 477470    *V;G\X    ?Y\??    XX126	14,@477470(13)
017202  000000 024100       "A     ???(     UUO00	0,24100
017203  110473 351620    )$[=.0    ??[SH    XX110	11,@351620(13)
017204  000000 024136       "A>    ???(/    UUO00	0,24136
017205  110473 351633    )$[=.;    ??[SM    XX110	11,@351633(13)
017206  000000 024163       "AS    ???(9    UUO00	0,24163
017207  110473 351670    )$[=.X    ??[S\    XX110	11,@351670(13)
017210  000000 024170       "AX    ???(<    UUO00	0,24170
017211  110473 411020    )$[A(0    ??\??    XX110	11,@411020(13)
017212  000000 024205       "B%    ???(B    UUO00	0,24205
017213  110473 352060    )$[=0P    ??[T?    XX110	11,@352060(13)
017214  000000 024232       "B:    ???(M    UUO00	0,24232
017215  110473 352320    )$[=30    ??[Th    XX110	11,@352320(13)
017216  000000 024242       "BB    ???(Q    UUO00	0,24242
017217  110473 352200    )$[=2     ??[T@    XX110	11,@352200(13)
017220  000000 024244       "BD    ???(R    UUO00	0,24244
017221  127141 560230    *YAN"8    ?f?`L    XX127	3,560230(1)
017222  000000 024245       "BE    ???(R    UUO00	0,24245
017223  110473 351634    )$[=.<    ??[SN    XX110	11,@351634(13)
017224  000000 024246       "BF    ???(S    UUO00	0,24246
017225  130504 756566    +%$]UV    ??'];    XX130	12,756566(4)
017226  000000 024254       "BL    ???(V    UUO00	0,24254
017227  127141 560160    *YAN!P    ?f?`8    XX127	3,560160(1)
017230  000000 024261       "BQ    ???(X    UUO00	0,24261
017231  130504 755520    +%$]M0    ??'[(    XX130	12,755520(4)
017232  000000 024266       "BV    ???([    UUO00	0,24266
017233  127141 557770    *YAM_X    ?f?_|    XX127	3,557770(1)
017234  000000 024270       "BX    ???(\    UUO00	0,24270
017235  110473 352702    )$[=7"    ??[Ua    XX110	11,@352702(13)
017236  000000 024276       "B^    ???(_    UUO00	0,24276
017237  110473 352703    )$[=7#    ??[Ua    XX110	11,@352703(13)
017240  000000 024277       "B_    ???(_    UUO00	0,24277
017241  127141 560110    *YAN!(    ?f?`$    XX127	3,560110(1)
017242  000000 024300       "C     ???(`    UUO00	0,24300
017243  127141 560350    *YAN#H    ?f?`t    XX127	3,560350(1)
017244  000000 024301       "C!    ???(`    UUO00	0,24301
017245  110747 125320    )'G*K0    ??9*h    XX110	17,125320(7)
017246  000000 024302       "C"    ???(a    UUO00	0,24302
017247  110747 125370    )'G*KX    ??9*|    XX110	17,125370(7)
017250  000000 024303       "C#    ???(a    UUO00	0,24303
017251  110473 347600    )$[<^     ??[O@    XX110	11,@347600(13)
017252  000000 024304       "C$    ???(b    UUO00	0,24304
017253  110753 571012    )'KO(*    ??]r?    XX110	17,571012(13)
017254  000000 024307       "C'    ???(c    UUO00	0,24307
017255  116653 332460    )VK;4P    ?Z[5?    XX116	15,332460(13)
017256  000000 024310       "C(    ???(d    UUO00	0,24310
017257  124246 635740    *BFSO@    ??6;p    XX124	5,635740(6)
017260  000000 024315       "C-    ???(f    UUO00	0,24315
017261  110736 071565    )'>'-U    ??ps:    XX110	16,@71565(16)
017262  000000 024360       "CP    ???(x    UUO00	0,24360
017263  126435 110360    *T=)#P    ?Qi?x    XX126	10,@110360(15)
017264  000000 024411       "D)    ???)?    UUO00	0,24411
017265  126435 110412    *T=)$*    ?Qi??    XX126	10,@110412(15)
017266  000000 024434       "D<    ???)?    UUO00	0,24434
017267  110570 065523    )%X&M3    ??@k)    XX110	13,@65523(10)
017270  000000 024571       "EY    ???)<    UUO00	0,24571
017271  110570 064700    )%X&G     ??@i`    XX110	13,@64700(10)
017272  000000 024574       "E\    ???)>    UUO00	0,24574
017273  111066 421765    )(VB/U    ?#4#z    XX111	1,@421765(6)
017274  000000 024603       "F#    ???)A    UUO00	0,24603
017275  111066 421764    )(VB/T    ?#4#z    XX111	1,@421764(6)
017276  000000 024604       "F$    ???)B    UUO00	0,24604
017277  112133 246720    )1;4W0    ?EZMh    XX112	2,@246720(13)
017300  000000 024605       "F%    ???)B    UUO00	0,24605
017301  111324 546733    )+4LW;    ?-%Mm    XX111	6,@546733(4)
017302  000000 024615       "F-    ???)F    UUO00	0,24615
017303  111066 403270    )(V@:X    ?#4?\    XX111	1,@403270(6)
017304  000000 024644       "FD    ???)R    UUO00	0,24644
017305  124217 501520    *B/H-0    ??}?(    XX124	4,501520(17)
017306  000000 024646       "FF    ???)S    UUO00	0,24646
017307  111066 403410    )(V@<(    ?#4??    XX111	1,@403410(6)
017310  000000 024661       "FQ    ???)X    UUO00	0,24661
017311  111066 403530    )(V@=8    ?#4?,    XX111	1,@403530(6)
017312  000000 024662       "FR    ???)Y    UUO00	0,24662
017313  111065 261470    )(U6,X    ?#*c?    XX111	1,@261470(5)
017314  000000 024702       "G"    ???)a    UUO00	0,24702
017315  111654 362160    ).L>1P    ?:cd8    XX111	15,362160(14)
017316  000000 024714       "G,    ???)f    UUO00	0,24714
017317  111065 261540    )(U6-@    ?#*c0    XX111	1,@261540(5)
017320  000000 024724       "G4    ???)j    UUO00	0,24724
017321  124051 775200    *@I_J     ??Oz@    XX124	1,775200(11)
017322  000000 024750       "GH    ???)t    UUO00	0,24750
017323  111654 573234    ).LO:<    ?:evN    XX111	15,573234(14)
017324  000000 024757       "GO    ???)w    UUO00	0,24757
017325  124052 125730    *@J*O8    ??Q+l    XX124	1,125730(12)
017326  000000 024764       "GT    ???)z    UUO00	0,24764
017327  124052 000300    *@J #     ??P?`    XX124	1,300(12)
017330  000000 024766       "GV    ???){    UUO00	0,24766
017331  111650 343560    ).H<=P    ?:CG8    XX111	15,343560(10)
017332  000000 024776       "G^    ???)?    UUO00	0,24776
017333  114400 166720    )D .W0    ???mh    XX114	10,166720
017334  000000 025005       "H%    ???*?    UUO00	0,25005
017335  114400 166600    )D .V     ???m@    XX114	10,166600
017336  000000 025006       "H&    ???*?    UUO00	0,25006
017337  124255 054000    *BM%@     ??hX?    XX124	5,54000(15)
017340  000000 025010       "H(    ???*?    UUO00	0,25010
017341  124255 116300    *BM)S     ??i?`    XX124	5,116300(15)
017342  000000 025011       "H)    ???*?    UUO00	0,25011
017343  134773 600001    +G[P !    ??^??    ILDB	17,@600001(13)
017344  000000 025012       "H*    ???*?    UUO00	0,25012
017345  115200 571240    )J O*@    ?(?rP    XX115	4,571240
017346  000000 025202       "J"    ???*A    UUO00	0,25202
017347  135765 025300    +OU"K     ??(*`    LDB	17,@25300(5)
017350  000000 025402       "L"    ???+?    UUO00	0,25402
017351  135776 635300    +O^SK     ??v:`    LDB	17,@635300(16)
017352  000000 025411       "L)    ???+?    UUO00	0,25411
017353  136010 445300    +P(DK     ?@DJ`    IDPB	0,445300(10)
017354  000000 025420       "L0    ???+?    UUO00	0,25420
017355  136022 255300    +P25K     ?A?Z`    IDPB	0,@255300(2)
017356  000000 025427       "L7    ???+?    UUO00	0,25427
017357  136034 065300    +P<&K     ?A`j`    IDPB	0,@65300(14)
017360  000000 025436       "L>    ???+?    UUO00	0,25436
017361  136045 675300    +PEWK     ?B.z`    IDPB	1,675300(5)
017362  000000 025445       "LE    ???+?    UUO00	0,25445
017363  136057 505300    +POHK     ?B}?`    IDPB	1,505300(17)
017364  000000 025454       "LL    ???+?    UUO00	0,25454
017365  136071 315300    +PY9K     ?CK?`    IDPB	1,@315300(11)
017366  000000 025463       "LS    ???+?    UUO00	0,25463
017367  136103 125300    +Q#*K     ?D?*`    IDPB	2,125300(3)
017370  000000 025472       "LZ    ???+?    UUO00	0,25472
017371  136114 735300    +Q,[K     ?Dg:`    IDPB	2,735300(14)
017372  000000 025501       "M!    ???+     UUO00	0,25501
017373  136126 545300    +Q6LK     ?E5J`    IDPB	2,@545300(6)
017374  000000 025510       "M(    ???+$    UUO00	0,25510
017375  136140 355300    +Q@=K     ?F?Z`    IDPB	3,355300
017376  000000 025517       "M/    ???+'    UUO00	0,25517
017377  136152 165300    +QJ.K     ?FQj`    IDPB	3,165300(12)
017400  000000 025526       "M6    ???++    UUO00	0,25526
017401  136163 775300    +QS_K     ?G?z`    IDPB	3,@775300(3)
017402  000000 025535       "M=    ???+.    UUO00	0,25535
017403  136175 605300    +Q]PK     ?Gn?`    IDPB	3,@605300(15)
017404  000000 025544       "MD    ???+2    UUO00	0,25544
017405  136207 415300    +R'AK     ?H<?`    IDPB	4,415300(7)
017406  000000 025553       "MK    ???+5    UUO00	0,25553
017407  136221 225300    +R12K     ?I?*`    IDPB	4,@225300(1)
017410  000000 025562       "MR    ???+9    UUO00	0,25562
017411  136233 035300    +R;#K     ?IX:`    IDPB	4,@35300(13)
017412  000000 025571       "MY    ???+<    UUO00	0,25571
017413  136244 645300    +RDTK     ?J&J`    IDPB	5,645300(4)
017414  000000 025600       "N     ???+@    UUO00	0,25600
017415  136256 455300    +RNEK     ?JtZ`    IDPB	5,455300(16)
017416  000000 025607       "N'    ???+C    UUO00	0,25607
017417  136270 265300    +RX6K     ?KBj`    IDPB	5,@265300(10)
017420  000000 025616       "N.    ???+G    UUO00	0,25616
017421  136302 075300    +S"'K     ?L?z`    IDPB	6,75300(2)
017422  000000 025625       "N5    ???+J    UUO00	0,25625
017423  136313 705300    +S+XK     ?L_?`    IDPB	6,705300(13)
017424  000000 025634       "N<    ???+N    UUO00	0,25634
017425  136325 515300    +S5IK     ?M-?`    IDPB	6,@515300(5)
017426  000000 025643       "NC    ???+Q    UUO00	0,25643
017427  136337 325300    +S?:K     ?M{*`    IDPB	6,@325300(17)
017430  000000 025652       "NJ    ???+U    UUO00	0,25652
017431  136351 135300    +SI+K     ?NI:`    IDPB	7,135300(11)
017432  000000 025661       "NQ    ???+X    UUO00	0,25661
017433  135635 115300    +N=)K     ?9i?`    LDB	14,@115300(15)
017434  000000 025670       "NX    ???+\    UUO00	0,25670
017435  135646 725300    +NFZK     ?:7*`    LDB	15,725300(6)
017436  000000 025677       "N_    ???+_    UUO00	0,25677
017437  135660 535300    +NPKK     ?;?:`    LDB	15,@535300
017440  000000 025706       "O&    ???+c    UUO00	0,25706
017441  135672 345300    +NZ<K     ?;SJ`    LDB	15,@345300(12)
017442  000000 025715       "O-    ???+f    UUO00	0,25715
017443  135704 155300    +O$-K     ?<!Z`    LDB	16,155300(4)
017444  000000 025724       "O4    ???+j    UUO00	0,25724
017445  135715 765300    +O-^K     ?<oj`    LDB	16,765300(15)
017446  000000 025733       "O;    ???+m    UUO00	0,25733
017447  135727 575300    +O7OK     ?==z`    LDB	16,@575300(7)
017450  000000 025742       "OB    ???+q    UUO00	0,25742
017451  135741 405300    +OA@K     ?>??`    LDB	17,405300(1)
017452  000000 025751       "OI    ???+t    UUO00	0,25751
017453  135753 215300    +OK1K     ?>Z?`    LDB	17,215300(13)
017454  000000 025760       "OP    ???+x    UUO00	0,25760
017455  135623 305300    +N38K     ?9??`    LDB	14,@305300(3)
017456  000000 025767       "OW    ???+{    UUO00	0,25767
017457  136374 555300    +S\MK     ?OeZ`    IDPB	7,@555300(14)
017460  000000 025776       "O^    ???+?    UUO00	0,25776
017461  136406 365300    +T&>K     ?P3j`    IDPB	10,365300(6)
017462  000000 026005       "P%    ???,?    UUO00	0,26005
017463  136362 745300    +SR\K     ?O?J`    IDPB	7,@745300(2)
017464  000000 026014       "P,    ???,?    UUO00	0,26014
017465  121607 117504    *.')]$    ?89?"    XX121	14,117504(7)
017466  000000 026023       "P3    ???,?    UUO00	0,26023
017467  116755 044720    )WM$G0    ?^hIh    XX116	17,44720(15)
017470  000000 026024       "P4    ???,?    UUO00	0,26024
017471  126476 607000    *T^PX     ?Sv??    XX126	11,@607000(16)
017472  000000 026042       "PB    ???,?    UUO00	0,26042
017473  126476 412000    *T^A0     ?St??    XX126	11,@412000(16)
017474  000000 026044       "PD    ???,?    UUO00	0,26044
017475  134773 600003    +G[P #    ??^??    ILDB	17,@600003(13)
017476  000000 026061       "PQ    ???,?    UUO00	0,26061
017477  117041 611174    )XAQ)\    ?b??>    XX117	1,611174(1)
017500  000000 026063       "PS    ???,?    UUO00	0,26063
017501  113644 160132    )>D.!:    ?z!`-    XX113	15,160132(4)
017502  000000 026631       "V9    ???-L    UUO00	0,26631
017503  113644 160166    )>D.!V    ?z!`;    XX113	15,160166(4)
017504  000000 027203       "Z#    ???.A    UUO00	0,27203
017505  111437 546100    ),?LQ     ?1}L     XX111	10,@546100(17)
017506  000000 066023       &P3    ???l?    UUO00	0,66023
017507  115315 603540    )K-P=@    ?,n?0    XX115	6,603540(15)
017510  000000 066067       &PW    ???l?    UUO00	0,66067
017511  126545 060000    *UE&      ?V(`?    XX126	13,60000(5)
017512  000000 073110       '9(    ???v$    UUO00	0,73110
017513  103457 437256    (<OCZN    ?r|>W    XX103	11,437256(17)
017514  000000 243050       48H    ???F?    UUO00	0,243050
017515  112320 147026    )30,X6    ?M?N?    XX112	6,@147026
017516  000000 275041       7HA    ???z?    UUO00	0,275041
017517  112320 236504    )303U$    ?M?="    XX112	6,@236504
017520  000000 276351       7SI    ???|t    UUO00	0,276351
017521  124061 176540    *@Q/U@    ???}0    XX124	1,@176540(1)
017522  000000 327351       :[I    ???.t    UUO00	0,327351
017523  112320 166711    )30.W)    ?M?md    XX112	6,@166711
017524  000000 327651       :^I    ???/T    UUO00	0,327651
017525  130506 342504    +%&<5$    ??3E"    XX130	12,342504(6)
017526  000000 335651       ;NI    ???;T    UUO00	0,335651
017527  126554 071011    *UL'()    ?V`r?    XX126	13,71011(14)
017530  000000 335751       ;OI    ???;t    UUO00	0,335751
017531  113105 773750    )9%_?H    ?d/wt    XX113	2,773750(5)
017532  000000 336151       ;QI    ???<4    UUO00	0,336151
017533  113177 303100    )9_89     ?g{?     XX113	3,@303100(17)
017534  000000 336171       ;QY    ???<<    UUO00	0,336171
017535  113105 762606    )9%^6&    ?d/eC    XX113	2,762606(5)
017536  000000 336571       ;UY    ???=<    UUO00	0,336571
017537  127301 315220    *[!9J0    ?l??H    XX127	6,315220(1)
017540  000000 342571       <5Y    ???E<    UUO00	0,342571
017541  121607 103306    *.'(;&    ?89?c    XX121	14,103306(7)
017542  000000 342571       <5Y    ???E<    UUO00	0,342571
017543  115166 665000    )IVVH     ?'6j?    XX115	3,@665000(6)
017544  000000 345571       <MY    ???K<    UUO00	0,345571
017545  121264 324565    **T:EU    ?+#):    XX121	5,@324565(4)
017546  000000 345607       <N'    ???KC    UUO00	0,345607
017547  134773 600004    +G[P $    ??^??    ILDB	17,@600004(13)
017550  000000 345610       <N(    ???KD    UUO00	0,345610
017551  125474 673300    *L\W;     ?3fv`    XX125	11,@673300(14)
017552  000000 016150       !QH    ????4    UUO00	0,16150
017553  115435 424733    )L=BG;    ?1l)m    XX115	10,@424733(15)
017554  000000 021504       "-$    ???#"    UUO00	0,21504
017555  503332 013300    H;:!;     PmP?`    HLLS	6,@13300(12)
017556  000000 040000       $      ???@?    UUO00	0,40000
017557  121212 121312    ****+*    ?(Q"e    XX121	4,121312(12)
017560  000000 015344       !KD    ????r    UUO00	0,15344
017561  112307 767320    )3'^[0    ?L?nh    XX112	6,767320(7)
017562  000000 024053       "@K    ???(?    UUO00	0,24053
017563  124365 337720    *CU;_0    ??+?h    XX124	7,@337720(5)
017564  000000 022737       "7?    ???%o    UUO00	0,22737
017565  111021 325460    )(1:LP    ?!?+?    XX111	0,@325460(1)
017566  000000 024352       "CJ    ???(u    UUO00	0,24352
017567  124052 125730    *@J*O8    ??Q+l    XX124	1,125730(12)
017570  000000 024764       "GT    ???)z    UUO00	0,24764
017571  126355 513272    *SMI:Z    ?Nm?]    XX126	7,513272(15)
017572  000000 015123       !I3    ????)    UUO00	0,15123
017573  124365 340056    *CU< N    ??+@?    XX124	7,@340056(5)
017574  000000 022670       "6X    ???%\    UUO00	0,22670
017575  122066 714120    *0VYA0    ?C7?(    XX122	1,@714120(6)
017576  000000 016524       !U4    ????*    UUO00	0,16524
017577  115435 425350    )L=BKH    ?1l*t    XX115	10,@425350(15)
017600  000000 021541       "-A    ???#0    UUO00	0,21541
017601  124302 357020    *C"=X0    ???^?    XX124	6,357020(2)
017602  000000 023015       "8-    ???&?    UUO00	0,23015
017603  115316 552370    )K.M3X    ?,uT|    XX115	6,552370(16)
017604  000000 014705       !G%    ????b    UUO00	0,14705
017605  121264 160126    **T.!6    ?+!`+    XX121	5,@160126(4)
017606  000000 020321       "#1    ??? h    UUO00	0,20321
017607  122723 333620    *73;>0    ?]?7H    XX122	16,@333620(3)
017610  000000 015567       !MW    ????;    UUO00	0,15567
017611  110611 327415    )&):\-    ??K/?    XX110	14,327415(11)
017612  000000 017576       !]^    ?????    UUO00	0,17576
017613  115435 425540    )L=BM@    ?1l+0    XX115	10,@425540(15)
017614  000000 021575       "-]    ???#>    UUO00	0,21575
017615  110473 352130    )$[=18    ??[T,    XX110	11,@352130(13)
017616  000000 024220       "B0    ???(H    UUO00	0,24220
017617  521024 013146    J(4!9F    T! ?3    HLLOI	0,@13146(4)
017620  000000 000003         #    ?????    UUO00	0,3
017621  117025 574640    )X5OF@    ?a-yP    XX117	0,@574640(5)
017622  000000 015071       !HY    ?????    UUO00	0,15071
017623  114545 107134    )EE(Y<    ??)?.    XX114	13,107134(5)
017624  000000 014707       !G'    ????c    UUO00	0,14707
017625  126633 345112    *V;<I*    ?Y[J%    XX126	14,@345112(13)
017626  000000 014756       !GN    ????w    UUO00	0,14756
017627  126504 753606    *U$]>&    ?T'WC    XX126	12,753606(4)
017630  000000 026027       "P7    ???,?    UUO00	0,26027
017631  124046 207010    *@F0X(    ??2??    XX124	1,207010(6)
017632  000000 022411       "4)    ???%?    UUO00	0,22411
017633  130160 460676    +!PF&^    ???a_    XX130	3,@460676
017634  000000 016063       !PS    ?????    UUO00	0,16063
017635  521076 134300    J(^+C     T#q8`    HLLOI	1,@134300(16)
017636  000000 000007         '    ?????    UUO00	0,7
017637  516033 512000    IP;I0     SA]??    HRLZM	0,@512000(13)
017640  000000 100000       (      ?????    UUO00	0,100000
017641  111654 647120    ).LTY0    ?:fN(    XX111	15,647120(14)
017642  000000 015004       !H$    ?????    UUO00	0,15004
017643  115164 055300    )IT%K     ?' Z`    XX115	3,@55300(4)
017644  000000 015072       !HZ    ?????    UUO00	0,15072
017645  115424 404003    )L4@@#    ?1$??    XX115	10,@404003(4)
017646  000000 016676       !V^    ????_    UUO00	0,16676
017647  124052 000300    *@J #     ??P?`    XX124	1,300(12)
017650  000000 024766       "GV    ???){    UUO00	0,24766
017651  125512 344603    *M*<F#    ?4SIA    XX125	12,344603(12)
017652  000000 016271       !RY    ????\    UUO00	0,16271
017653  110747 125370    )'G*KX    ??9*|    XX110	17,125370(7)
017654  000000 024303       "C#    ???(a    UUO00	0,24303
017655  124217 501520    *B/H-0    ??}?(    XX124	4,501520(17)
017656  000000 024646       "FF    ???)S    UUO00	0,24646
017657  112116 100670    )1.(&X    ?Dq?\    XX112	2,100670(16)
017660  000000 015237       !J?    ????O    UUO00	0,15237
017661  121607 102200    *.'(2     ?89?@    XX121	14,102200(7)
017662  000000 015023       !H3    ?????    UUO00	0,15023
017663  111654 610160    ).LQ!P    ?:f?8    XX111	15,610160(14)
017664  000000 015003       !H#    ?????    UUO00	0,15003
017665  111004 166653    )($.VK    ? !mU    XX111	0,166653(4)
017666  000000 020513       "%+    ???!%    UUO00	0,20513
017667  113106 056742    )9&%WB    ?d0]q    XX113	2,56742(6)
017670  000000 016661       !VQ    ????X    UUO00	0,16661
017671  512353 050000    I3K%      RNXP?    HLLZM	7,50000(13)
017672  000000 000004         $    ?????    UUO00	0,4
017673  121644 726502    *.DZU"    ?:'-!    XX121	15,726502(4)
017674  000000 015066       !HV    ?????    UUO00	0,15066
017675  114000 026000    )@ "P     ???,?    XX114	0,26000
017676  000000 022010       "0(    ???$?    UUO00	0,22010
017677  122114 525622    *1,JN2    ?De+I    XX122	2,525622(14)
017700  000000 015241       !JA    ????P    UUO00	0,15241
017701  112110 635332    )1(SK:    ?DF:m    XX112	2,635332(10)
017702  000000 017742       !_B    ????q    UUO00	0,17742
017703  124342 244200    *CB4B     ???H@    XX124	7,244200(2)
017704  000000 016410       !T(    ?????    UUO00	0,16410
017705  117041 611174    )XAQ)\    ?b??>    XX117	1,611174(1)
017706  000000 026063       "PS    ???,?    UUO00	0,26063
017707  115212 473316    )J*G;.    ?(Tvg    XX115	4,473316(12)
017710  000000 015410       !L(    ?????    UUO00	0,15410
017711  121214 322272    **,:2Z    ?(c$]    XX121	4,322272(14)
017712  000000 021224       "*4    ???"J    UUO00	0,21224
017713  136406 365300    +T&>K     ?P3j`    IDPB	10,365300(6)
017714  000000 026005       "P%    ???,?    UUO00	0,26005
017715  124365 340042    *CU< B    ??+@?    XX124	7,@340042(5)
017716  000000 022650       "6H    ???%T    UUO00	0,22650
017717  126435 110360    *T=)#P    ?Qi?x    XX126	10,@110360(15)
017720  000000 024411       "D)    ???)?    UUO00	0,24411
017721  125517 441460    *M/D,P    ?4|C?    XX125	12,441460(17)
017722  000000 015056       !HN    ?????    UUO00	0,15056
017723  116757 531062    )WOK(R    ?^}2?    XX116	17,531062(17)
017724  000000 022321       "31    ???$h    UUO00	0,22321
017725  121607 075630    *.''N8    ?88{L    XX121	14,75630(7)
017726  000000 015033       !H;    ?????    UUO00	0,15033
017727  121607 033640    *.'#>@    ?887P    XX121	14,33640(7)
017730  000000 016613       !V+    ????E    UUO00	0,16613
017731  113760 334200    )?P;B     ???8@    XX113	17,@334200
017732  000000 021272       "*Z    ???"]    UUO00	0,21272
017733  522011 734601    J0)[F!    T@O9@    HLLOM	0,734601(11)
017734  000000 000100        !     ????     UUO00	0,100
017735  112320 146654    )30,VL    ?M?MV    XX112	6,@146654
017736  000000 020255       ""M    ??? V    UUO00	0,20255
017737  130116 110540    +!.)%@    ??q?0    XX130	2,110540(16)
017740  000000 015654       !NL    ????V    UUO00	0,15654
017741  110541 234177    )%A3A_    ???8?    XX110	13,234177(1)
017742  000000 023261       ":Q    ???&X    UUO00	0,23261
017743  110611 327460    )&):\P    ??K/?    XX110	14,327460(11)
017744  000000 015070       !HX    ?????    UUO00	0,15070
017745  130504 755520    +%$]M0    ??'[(    XX130	12,755520(4)
017746  000000 024266       "BV    ???([    UUO00	0,24266
017747  116033 511506    )P;I-&    ?A]?#    XX116	0,@511506(13)
017750  000000 015110       !I(    ????$    UUO00	0,15110
017751  112320 153600    )30->     ?M?W@    XX112	6,@153600
017752  000000 017266       !ZV    ????[    UUO00	0,17266
017753  126633 534153    *V;KAK    ?Y]85    XX126	14,@534153(13)
017754  000000 016324       !S4    ????j    UUO00	0,16324
017755  126272 641712    *RZT/*    ?KVCe    XX126	5,@641712(12)
017756  000000 022750       "7H    ???%t    UUO00	0,22750
017757  124046 207014    *@F0X,    ??2??    XX124	1,207014(6)
017760  000000 022373       "3[    ???$}    UUO00	0,22373
017761  127677 512200    *^_I2     ?{}?@    XX127	15,@512200(17)
017762  000000 015724       !O4    ????j    UUO00	0,15724
017763  136034 065300    +P<&K     ?A`j`    IDPB	0,@65300(14)
017764  000000 025436       "L>    ???+?    UUO00	0,25436
017765  111066 403220    )(V@:0    ?#4?H    XX111	1,@403220(6)
017766  000000 024630       "F8    ???)L    UUO00	0,24630
017767  115435 426622    )L=BV2    ?1l-I    XX115	10,@426622(15)
017770  000000 021640       ".@    ???#P    UUO00	0,21640
017771  110753 571012    )'KO(*    ??]r?    XX110	17,571012(13)
017772  000000 024307       "C'    ???(c    UUO00	0,24307
017773  111454 417230    ),LAZ8    ?2d?L    XX111	11,417230(14)
017774  000000 014772       !GZ    ????}    UUO00	0,14772
017775  136152 165300    +QJ.K     ?FQj`    IDPB	3,165300(12)
017776  000000 025526       "M6    ???++    UUO00	0,25526
017777  112206 507000    )2&HX     ?H5??    XX112	4,507000(6)
020000  000000 000016         .    ?????    UUO00	0,16
020001  115424 403734    )L4@?<    ?1$?n    XX115	10,@403734(4)
020002  000000 016716       !W.    ????g    UUO00	0,16716
020003  130506 256436    +%&5T>    ??2]?    XX130	12,256436(6)
020004  000000 014740       !G@    ????p    UUO00	0,14740
020005  126477 201000    *T_0(     ?Sz??    XX126	11,@201000(17)
020006  000000 021005       "(%    ???"?    UUO00	0,21005
020007  110716 050132    )'.%!:    ??pP-    XX110	16,50132(16)
020010  000000 021142       ")B    ???"1    UUO00	0,21142
020011  110747 707062    )'GXXR    ?????    XX110	17,707062(7)
020012  000000 023731       "?9    ???'l    UUO00	0,23731
020013  124313 772020    *C+_00    ??_t?    XX124	6,772020(13)
020014  000000 016141       !QA    ????0    UUO00	0,16141
020015  131562 637377    +-RS[_    ?7?>?    XX131	13,@637377(2)
020016  000000 017046       !XF    ?????    UUO00	0,17046
020017  126633 477470    *V;G\X    ?Y\??    XX126	14,@477470(13)
020020  000000 024100       "A     ???(     UUO00	0,24100
020021  124051 775200    *@I_J     ??Oz@    XX124	1,775200(11)
020022  000000 024750       "GH    ???)t    UUO00	0,24750
020023  124206 460330    *B&F#8    ??4`l    XX124	4,460330(6)
020024  000000 023167       "9W    ???&;    UUO00	0,23167
020025  135672 345300    +NZ<K     ?;SJ`    LDB	15,@345300(12)
020026  000000 025715       "O-    ???+f    UUO00	0,25715
020027  130764 660270    +'TV"X    ??&`\    XX130	17,@660270(4)
020030  000000 022047       "0G    ???$?    UUO00	0,22047
020031  111066 403410    )(V@<(    ?#4??    XX111	1,@403410(6)
020032  000000 024661       "FQ    ???)X    UUO00	0,24661
020033  521043 521120    J(CJ)0    T"?"(    HLLOI	1,521120(3)
020034  000000 000007         '    ?????    UUO00	0,7
020035  136163 775300    +QS_K     ?G?z`    IDPB	3,@775300(3)
020036  000000 025535       "M=    ???+.    UUO00	0,25535
020037  110671 422317    )&YB3/    ??L$g    XX110	15,@422317(11)
020040  000000 023456       "<N    ???'?    UUO00	0,23456
020041  110570 065522    )%X&M2    ??@k)    XX110	13,@65522(10)
020042  000000 024573       "E[    ???)=    UUO00	0,24573
020043  112333 415400    )3;AL     ?M\??    XX112	6,@415400(13)
020044  000000 015044       !HD    ?????    UUO00	0,15044
020045  126633 477110    *V;GY(    ?Y\~$    XX126	14,@477110(13)
020046  000000 023761       "?Q    ???'x    UUO00	0,23761
020047  125474 662000    *L\V0     ?3fd?    XX125	11,@662000(14)
020050  000000 016145       !QE    ????2    UUO00	0,16145
020051  111066 421762    )(VB/R    ?#4#y    XX111	1,@421762(6)
020052  000000 024533       "E;    ???)-    UUO00	0,24533
020053  113760 362100    )?P>1     ???d     XX113	17,@362100
020054  000000 021215       "*-    ???"F    UUO00	0,21215
020055  512763 177534    I7S/]<    R_??.    HLLZM	17,@177534(3)
020056  000000 300000       8      ?????    UUO00	0,300000
020057  122626 361003    *66>(#    ?Y3b?    XX122	14,@361003(6)
020060  000000 020705       "'%    ???!b    UUO00	0,20705
020061  112320 013572    )30!=Z    ?M??=    XX112	6,@13572
020062  000000 022255       "2M    ???$V    UUO00	0,22255
020063  112353 137250    )3K+ZH    ?NY>T    XX112	7,137250(13)
020064  000000 016352       !SJ    ????u    UUO00	0,16352
020065  110611 325700    )&):O     ??K+`    XX110	14,325700(11)
020066  000000 017521       !]1    ????(    UUO00	0,17521
020067  121120 772352    *)0_3J    ?%?tu    XX121	2,@772352
020070  000000 014742       !GB    ????q    UUO00	0,14742
020071  123533 612732    *=;Q7:    ?u^?m    XX123	12,@612732(13)
020072  000000 021326       "+6    ???"k    UUO00	0,21326
020073  110543 643200    )%CT:     ???F@    XX110	13,643200(3)
020074  000000 023663       ">S    ???'Y    UUO00	0,23663
020075  136045 675300    +PEWK     ?B.z`    IDPB	1,675300(5)
020076  000000 025445       "LE    ???+?    UUO00	0,25445
020077  112356 060646    )3N&&F    ?NpaS    XX112	7,60646(16)
020100  000000 015075       !H]    ?????    UUO00	0,15075
020101  110473 351633    )$[=.;    ??[SM    XX110	11,@351633(13)
020102  000000 024163       "AS    ???(9    UUO00	0,24163
020103  115165 642110    )IUT1(    ?'.D$    XX115	3,@642110(5)
020104  000000 017767       !_W    ????{    UUO00	0,17767
020105  110750 732163    )'H[1S    ??G49    XX110	17,732163(10)
020106  000000 024133       "A;    ???(-    UUO00	0,24133
020107  121216 070460    **.'$P    ?(pq?    XX121	4,70460(16)
020110  000000 015550       !MH    ????4    UUO00	0,15550
020111  123716 253370    *?.5;X    ?|rV|    XX123	16,253370(16)
020112  000000 021035       "(=    ???"?    UUO00	0,21035
020113  110645 715740    )&EYO@    ??/?p    XX110	15,715740(5)
020114  000000 023404       "<$    ???'?    UUO00	0,23404
020115  164500 062022    .E &02    ???d?    FMPR	12,62022
020116  776000 766000    _P ^P     ?@?l?    BLKI	760,766000
020117  124261 071147    *BQ')G    ???r3    XX124	5,@71147(1)
020120  000000 014703       !G#    ????a    UUO00	0,14703
020121  111066 000675    )(V &]    ?#0?^    XX111	1,@675(6)
020122  000000 023072       "8Z    ???&?    UUO00	0,23072
020123  136270 265300    +RX6K     ?KBj`    IDPB	5,@265300(10)
020124  000000 025616       "N.    ???+G    UUO00	0,25616
020125  121027 521216    *(7J*.    ?!="G    XX121	0,@521216(7)
020126  000000 010000       !      ?????    UUO00	0,10000
020127  125512 344520    *M*<E0    ?4SI(    XX125	12,344520(12)
020130  000000 016374       !S\    ????~    UUO00	0,16374
020131  126633 560014    *V;N ,    ?Y]`?    XX126	14,@560014(13)
020132  000000 015055       !HM    ?????    UUO00	0,15055
020133  116065 037256    )PU#ZN    ?C(>W    XX116	1,@37256(5)
020134  000000 015545       !ME    ????2    UUO00	0,15545
020135  126526 257020    *U65X0    ?U2^?    XX126	12,@257020(6)
020136  000000 023654       ">L    ???'V    UUO00	0,23654
020137  111067 542535    )(WL5=    ?#=E.    XX111	1,@542535(7)
020140  000000 023031       "89    ???&?    UUO00	0,23031
020141  112307 607610    )3'P^(    ?L>?D    XX112	6,607610(7)
020142  000000 020045       " E    ??? ?    UUO00	0,20045
020143  112263 115500    )2S)M     ?K??     XX112	5,@115500(3)
020144  000000 014723       !G3    ????i    UUO00	0,14723
020145  110525 145742    )%5,OB    ??)Kq    XX110	12,@145742(5)
020146  000000 016344       !SD    ????r    UUO00	0,16344
020147  122073 003410    *0[ <(    ?CX??    XX122	1,@3410(13)
020150  000000 016451       !TI    ?????    UUO00	0,16451
020151  111070 747364    )(X\[T    ?#GNz    XX111	1,@747364(10)
020152  000000 017125       !Y5    ????*    UUO00	0,17125
020153  112320 153720    )30-?0    ?M?Wh    XX112	6,@153720
020154  000000 017314       ![,    ????f    UUO00	0,17314
020155  114545 122504    )EE*5$    ??)%"    XX114	13,122504(5)
020156  000000 022112       "1*    ???$%    UUO00	0,22112
020157  124302 356700    *C"=W     ???]`    XX124	6,356700(2)
020160  000000 023010       "8(    ???&?    UUO00	0,23010
020161  110541 234173    )%A3A[    ???8=    XX110	13,234173(1)
020162  000000 023246       ":F    ???&S    UUO00	0,23246
020163  113760 335072    )?P;HZ    ???:?    XX113	17,@335072
020164  000000 021430       ",8    ???#?    UUO00	0,21430
020165  112110 611033    )1(Q(;    ?DF??    XX112	2,611033(10)
020166  000000 021264       "*T    ???"Z    UUO00	0,21264
020167  116755 045110    )WM$I(    ?^hJ$    XX116	17,45110(15)
020170  000000 020767       "'W    ???!{    UUO00	0,20767
020171  125722 411200    *O2A*     ?=??@    XX125	16,@411200(2)
020172  000000 015403       !L#    ?????    UUO00	0,15403
020173  512274 376000    I2\?P     RKc|?    HLLZM	5,@376000(14)
020174  000000 000000              ?????    UUO00	0,0
020175  113154 113377    )9L);_    ?fa??    XX113	3,113377(14)
020176  000000 015770       !OX    ????|    UUO00	0,15770
020177  127141 560300    *YAN#     ?f?``    XX127	3,560300(1)
020200  000000 024145       "AE    ???(2    UUO00	0,24145
020201  111067 562541    )(WN5A    ?#=e0    XX111	1,@562541(7)
020202  000000 023243       ":C    ???&Q    UUO00	0,23243
020203  112307 606770    )3'PWX    ?L>?|    XX112	6,606770(7)
020204  000000 020064       " T    ??? ?    UUO00	0,20064
020205  121015 660012    *(-V *    ? n`?    XX121	0,660012(15)
020206  000000 020561       "%Q    ???!8    UUO00	0,20561
020207  115435 571230    )L=O*8    ?1mrL    XX115	10,@571230(15)
020210  000000 022242       "2B    ???$Q    UUO00	0,22242
020211  112320 146661    )30,VQ    ?M?MX    XX112	6,@146661
020212  000000 020262       ""R    ??? Y    UUO00	0,20262
020213  115212 421060    )J*B(P    ?(T"?    XX115	4,421060(12)
020214  000000 015152       !IJ    ????5    UUO00	0,15152
020215  124030 367500    *@8>]     ??Co     XX124	0,@367500(10)
020216  000000 023150       "9H    ???&4    UUO00	0,23150
020217  126633 476720    *V;GW0    ?Y\}h    XX126	14,@476720(13)
020220  000000 024024       "@4    ???(?    UUO00	0,24024
020221  122061 060100    *0Q&!     ?C?`     XX122	1,@60100(1)
020222  000000 000200        "     ????@    UUO00	0,200
020223  110611 325714    )&):O,    ??K+f    XX110	14,325714(11)
020224  000000 017542       !]B    ????1    UUO00	0,17542
020225  114545 074626    )EE'F6    ??(yK    XX114	13,74626(5)
020226  000000 014706       !G&    ????c    UUO00	0,14706
020227  122700 765540    *7 ^M@    ?\?k0    XX122	16,765540
020230  000000 016026       !P6    ?????    UUO00	0,16026
020231  113535 547200    )==LZ     ?umN@    XX113	12,@547200(15)
020232  000000 022474       "4\    ???%?    UUO00	0,22474
020233  124036 453026    *@>E86    ??tV?    XX124	0,@453026(16)
020234  000000 014775       !G]    ????~    UUO00	0,14775
020235  527731 666310    J_9VS(    U}Nld    HRLOS	16,@666310(11)
020236  000000 340000       <      ???@?    UUO00	0,340000
020237  121606 775400    *.&_L     ?87{?    XX121	14,775400(6)
020240  000000 016555       !UM    ????6    UUO00	0,16555
020241  112317 626003    )3/RP#    ?L~,?    XX112	6,626003(17)
020242  000000 021412       ",*    ???#?    UUO00	0,21412
020243  126305 251065    *S%5(U    ?L*R?    XX126	6,251065(5)
020244  000000 017345       ![E    ????r    UUO00	0,17345
020245  114003 754200    )@#]B     ???X@    XX114	0,754200(3)
020246  000000 014732       !G:    ????m    UUO00	0,14732
020247  112307 610536    )3'Q%>    ?L>?/    XX112	6,610536(7)
020250  000000 020004       " $    ??? ?    UUO00	0,20004
020251  115435 424770    )L=BGX    ?1l)|    XX115	10,@424770(15)
020252  000000 021510       "-(    ???#$    UUO00	0,21510
020253  110473 411020    )$[A(0    ??\??    XX110	11,@411020(13)
020254  000000 024205       "B%    ???(B    UUO00	0,24205
020255  112320 146163    )30,QS    ?M?L9    XX112	6,@146163
020256  000000 020231       ""9    ??? L    UUO00	0,20231
020257  521026 752274    J(6]2\    T!7T^    HLLOI	0,@752274(6)
020260  000000 031000       #(     ???2?    UUO00	0,31000
020261  126554 073624    *UL'>4    ?V`wJ    XX126	13,73624(14)
020262  000000 016745       !WE    ????r    UUO00	0,16745
020263  113106 056770    )9&%WX    ?d0]|    XX113	2,56770(6)
020264  000000 016646       !VF    ????S    UUO00	0,16646
020265  522643 644500    J6CTE     TZ?I     HLLOM	15,644500(3)
020266  000000 001000        (     ?????    UUO00	0,1000
020267  125713 527000    *O+JX     ?<].?    XX125	16,527000(13)
020270  000000 016016       !P.    ?????    UUO00	0,16016
020271  110473 352703    )$[=7#    ??[Ua    XX110	11,@352703(13)
020272  000000 024277       "B_    ???(_    UUO00	0,24277
020273  110473 352060    )$[=0P    ??[T?    XX110	11,@352060(13)
020274  000000 024232       "B:    ???(M    UUO00	0,24232
020275  115435 425662    )L=BNR    ?1l+Y    XX115	10,@425662(15)
020276  000000 021503       "-#    ???#!    UUO00	0,21503
020277  113760 335227    )?P;J7    ???:K    XX113	17,@335227
020300  000000 021320       "+0    ???"h    UUO00	0,21320
020301  115200 571240    )J O*@    ?(?rP    XX115	4,571240
020302  000000 025202       "J"    ???*A    UUO00	0,25202
020303  130162 671620    +!RW.0    ???sH    XX130	3,@671620(2)
020304  000000 015506       !M&    ????#    UUO00	0,15506
020305  126305 250443    *S%5$C    ?L*Q?    XX126	6,250443(5)
020306  000000 020655       "&M    ???!V    UUO00	0,20655
020307  110541 234110    )%A3A(    ???8$    XX110	13,234110(1)
020310  000000 023130       "98    ???&,    UUO00	0,23130
020311  510737 057020    I'?%X0    R?x^?    HLLZ	16,@57020(17)
020312  000000 000004         $    ?????    UUO00	0,4
020313  125517 413215    *M/A:-    ?4|?F    XX125	12,413215(17)
020314  000000 016232       !R:    ????M    UUO00	0,16232
020315  110611 325370    )&):KX    ??K*|    XX110	14,325370(11)
020316  000000 017436       !\>    ?????    UUO00	0,17436
020317  113773 644566    )?[TEV    ??^I;    XX113	17,@644566(13)
020320  000000 023616       ">.    ???'G    UUO00	0,23616
020321  116640 316674    )V@9V\    ?Z??^    XX116	15,316674
020322  000000 022065       "0U    ???$?    UUO00	0,22065
020323  115435 425244    )L=BJD    ?1l*R    XX115	10,@425244(15)
020324  000000 021572       "-Z    ???#=    UUO00	0,21572
020325  115435 571040    )L=O(@    ?1mr?    XX115	10,@571040(15)
020326  000000 022201       "2!    ???$@    UUO00	0,22201
020327  111071 360602    )(Y>&"    ?#KaA    XX111	1,@360602(11)
020330  000000 017212       !Z*    ????E    UUO00	0,17212
020331  124255 116300    *BM)S     ??i?`    XX124	5,116300(15)
020332  000000 025011       "H)    ???*?    UUO00	0,25011
020333  521040 531210    J(@K*(    T"?2D    HLLOI	1,531210
020334  000000 000006         &    ?????    UUO00	0,6
020335  124300 735060    *C [HP    ???:?    XX124	6,735060
020336  000000 015045       !HE    ?????    UUO00	0,15045
020337  522444 152210    J4D-2(    TR!TD    HLLOM	11,152210(4)
020340  000000 000100        !     ????     UUO00	0,100
020341  113760 337300    )?P;[     ???>`    XX113	17,@337300
020342  000000 021261       "*Q    ???"X    UUO00	0,21261
020343  115435 425160    )L=BIP    ?1l*8    XX115	10,@425160(15)
020344  000000 021610       ".(    ???#D    UUO00	0,21610
020345  111070 356200    )(X=R     ?#C\@    XX111	1,@356200(10)
020346  000000 024107       "A'    ???(#    UUO00	0,24107
020347  123452 674200    *<JWB     ?rVx@    XX123	11,674200(12)
020350  000000 014727       !G7    ????k    UUO00	0,14727
020351  122723 417265    *73AZU    ?]??Z    XX122	16,@417265(3)
020352  000000 015606       !N&    ????C    UUO00	0,15606
020353  135741 405300    +OA@K     ?>??`    LDB	17,405300(1)
020354  000000 025751       "OI    ???+t    UUO00	0,25751
020355  125522 410110    *M2A!(    ?5??$    XX125	12,@410110(2)
020356  000000 017234       !Z<    ????N    UUO00	0,17234
020357  131563 442710    +-SD7(    ?7?Ed    XX131	13,@442710(3)
020360  000000 016751       !WI    ????t    UUO00	0,16751
020361  125475 017102    *L]!Y"    ?3h?!    XX125	11,@17102(15)
020362  000000 016204       !R$    ????B    UUO00	0,16204
020363  116755 044770    )WM$GX    ?^hI|    XX116	17,44770(15)
020364  000000 021000       "(     ???"?    UUO00	0,21000
020365  110342 646545    )#BTUE    ???M2    XX110	7,646545(2)
020366  000000 024356       "CN    ???(w    UUO00	0,24356
020367  503461 365400    H<Q>L     Ps?k?    HLLS	11,@365400(1)
020370  000000 200000       0      ?????    UUO00	0,200000
020371  110753 201532    )'K0-:    ??Z?-    XX110	17,201532(13)
020372  000000 021103       ")#    ???"!    UUO00	0,21103
020373  511420 360000    I,0>      R1?`?    HLLZI	10,@360000
020374  000000 000400        $     ?????    UUO00	0,400
020375  126633 500462    *V;H$R    ?Y]??    XX126	14,@500462(13)
020376  000000 023743       "?C    ???'q    UUO00	0,23743
020377  124365 340053    *CU< K    ??+@?    XX124	7,@340053(5)
020400  000000 022651       "6I    ???%T    UUO00	0,22651
020401  112370 107400    )3X(\     ?OA??    XX112	7,@107400(10)
020402  000000 014747       !GG    ????s    UUO00	0,14747
020403  122055 061405    *0M&,%    ?Bhc?    XX122	1,61405(15)
020404  000000 016163       !QS    ????9    UUO00	0,16163
020405  126477 004000    *T_ @     ?Sx??    XX126	11,@4000(17)
020406  000000 026031       "P9    ???,?    UUO00	0,26031
020407  115212 421064    )J*B(T    ?(T"?    XX115	4,421064(12)
020410  000000 015177       !I_    ?????    UUO00	0,15177
020411  110473 353134    )$[=9<    ??[V.    XX110	11,@353134(13)
020412  000000 024126       "A6    ???(+    UUO00	0,24126
020413  123772 475000    *?ZGH     ??Tz?    XX123	17,@475000(12)
020414  000000 021362       "+R    ???"y    UUO00	0,21362
020415  116766 634246    )WVSBF    ?_68S    XX116	17,@634246(6)
020416  000000 023736       "?>    ???'o    UUO00	0,23736
020417  113760 335154    )?P;IL    ???:6    XX113	17,@335154
020420  000000 021427       ",7    ???#?    UUO00	0,21427
020421  125677 505462    *N_HLR    ?;}??    XX125	15,@505462(17)
020422  000000 022660       "6P    ???%X    UUO00	0,22660
020423  124342 366556    *CB>UN    ???m7    XX124	7,366556(2)
020424  000000 016275       !R]    ????^    UUO00	0,16275
020425  110645 715500    )&EYM     ??/?     XX110	15,715500(5)
020426  000000 023307       ";'    ???&c    UUO00	0,23307
020427  126526 256700    *U65W     ?U2]`    XX126	12,@256700(6)
020430  000000 023661       ">Q    ???'X    UUO00	0,23661
020431  111726 100000    )/6(      ?=1??    XX111	16,@100000(6)
020432  000000 000006         &    ?????    UUO00	0,6
020433  125623 472074    *N3G0\    ?9?t?    XX125	14,@472074(3)
020434  000000 022730       "78    ???%l    UUO00	0,22730
020435  115212 410054    )J*A L    ?(T??    XX115	4,410054(12)
020436  000000 016147       !QG    ????3    UUO00	0,16147
020437  112763 224010    )7S2@(    ?_?(?    XX112	17,@224010(3)
020440  000000 016772       !WZ    ????}    UUO00	0,16772
020441  123447 256000    *<G5P     ?r:\?    XX123	11,256000(7)
020442  000000 020267       ""W    ??? [    UUO00	0,20267
020443  110473 352320    )$[=30    ??[Th    XX110	11,@352320(13)
020444  000000 024242       "BB    ???(Q    UUO00	0,24242
020445  125715 105000    *O-(H     ?<i??    XX125	16,105000(15)
020446  000000 015425       !L5    ?????    UUO00	0,15425
020447  110473 351620    )$[=.0    ??[SH    XX110	11,@351620(13)
020450  000000 024136       "A>    ???(/    UUO00	0,24136
020451  110503 440074    )%#D \    ???@?    XX110	12,440074(3)
020452  000000 023445       "<E    ???'?    UUO00	0,23445
020453  111300 037200    )+ #Z     ?,?>@    XX111	6,37200
020454  000000 015765       !OU    ????z    UUO00	0,15765
020455  127141 560160    *YAN!P    ?f?`8    XX127	3,560160(1)
020456  000000 024261       "BQ    ???(X    UUO00	0,24261
020457  111324 546733    )+4LW;    ?-%Mm    XX111	6,@546733(4)
020460  000000 024615       "F-    ???)F    UUO00	0,24615
020461  126305 250000    *S%5      ?L*P?    XX126	6,250000(5)
020462  000000 020603       "&#    ???!A    UUO00	0,20603
020463  112534 600000    )5<P      ?Uf??    XX112	12,@600000(14)
020464  000000 000007         '    ?????    UUO00	0,7
020465  125512 344606    *M*<F&    ?4SIC    XX125	12,344606(12)
020466  000000 016260       !RP    ????X    UUO00	0,16260
020467  110611 325643    )&):NC    ??K+Q    XX110	14,325643(11)
020470  000000 017512       !]*    ????%    UUO00	0,17512
020471  110562 572016    )%RO0.    ???t?    XX110	13,@572016(2)
020472  000000 017237       !Z?    ????O    UUO00	0,17237
020473  125722 403000    *O2@8     ?=???    XX125	16,@403000(2)
020474  000000 015401       !L!    ?????    UUO00	0,15401
020475  122723 417271    *73AZY    ?]??\    XX122	16,@417271(3)
020476  000000 015635       !N=    ????N    UUO00	0,15635
020477  512356 057600    I3N%^     RNp_@    HLLZM	7,57600(16)
020500  000000 000005         %    ?????    UUO00	0,5
020501  111654 573234    ).LO:<    ?:evN    XX111	15,573234(14)
020502  000000 024757       "GO    ???)w    UUO00	0,24757
020503  503461 352510    H<Q=5(    Ps?U$    HLLS	11,@352510(1)
020504  000000 100000       (      ?????    UUO00	0,100000
020505  115435 425733    )L=BO;    ?1l+m    XX115	10,@425733(15)
020506  000000 021657       ".O    ???#W    UUO00	0,21657
020507  113760 335223    )?P;J3    ???:I    XX113	17,@335223
020510  000000 021371       "+Y    ???"|    UUO00	0,21371
020511  110761 534253    )'QKBK    ???8U    XX110	17,@534253(1)
020512  000000 021324       "+4    ???"j    UUO00	0,21324
020513  124365 340057    *CU< O    ??+@?    XX124	7,@340057(5)
020514  000000 022711       "7)    ???%d    UUO00	0,22711
020515  111654 645100    ).LTI     ?:fJ     XX111	15,645100(14)
020516  000000 015005       !H%    ?????    UUO00	0,15005
020517  125522 407770    *M2@_X    ?5??|    XX125	12,@407770(2)
020520  000000 017223       !Z3    ????I    UUO00	0,17223
020521  110473 347600    )$[<^     ??[O@    XX110	11,@347600(13)
020522  000000 024304       "C$    ???(b    UUO00	0,24304
020523  127443 041520    *\C$-0    ?r?C(    XX127	11,41520(3)
020524  000000 023643       ">C    ???'Q    UUO00	0,23643
020525  110503 437740    )%#C_@    ????p    XX110	12,437740(3)
020526  000000 023325       ";5    ???&j    UUO00	0,23325
020527  115163 307060    )IS8XP    ?'???    XX115	3,@307060(3)
020530  000000 016430       !T8    ?????    UUO00	0,16430
020531  115165 641770    )IUT/X    ?'.C|    XX115	3,@641770(5)
020532  000000 017776       !_^    ?????    UUO00	0,17776
020533  112307 610120    )3'Q!0    ?L>?(    XX112	6,610120(7)
020534  000000 020031       " 9    ??? ?    UUO00	0,20031
020535  113755 601170    )?MP)X    ?~n?<    XX113	17,601170(15)
020536  000000 021374       "+\    ???"~    UUO00	0,21374
020537  115435 425376    )L=BK^    ?1l*?    XX115	10,@425376(15)
020540  000000 021564       "-T    ???#:    UUO00	0,21564
020541  521211 123000    J*)*8     T(I&?    HLLOI	4,123000(11)
020542  000000 100000       (      ?????    UUO00	0,100000
020543  121606 767200    *.&^Z     ?87n@    XX121	14,767200(6)
020544  000000 016566       !UV    ????;    UUO00	0,16566
020545  112320 146657    )30,VO    ?M?MW    XX112	6,@146657
020546  000000 020237       ""?    ??? O    UUO00	0,20237
020547  114453 662000    )DKV0     ??^d?    XX114	11,662000(13)
020550  000000 015620       !N0    ????H    UUO00	0,15620
020551  521272 032200    J*Z#2     T+P4@    HLLOI	5,@32200(12)
020552  000000 000011         )    ?????    UUO00	0,11
020553  124046 207013    *@F0X+    ??2??    XX124	1,207013(6)
020554  000000 014720       !G0    ????h    UUO00	0,14720
020555  503531 262000    H=960     PuJd?    HLLS	12,@262000(11)
020556  000000 020000       "      ??? ?    UUO00	0,20000
020557  110735 054232    )'=%B:    ??hXM    XX110	16,@54232(15)
020560  000000 015553       !MK    ????5    UUO00	0,15553
020561  136022 255300    +P25K     ?A?Z`    IDPB	0,@255300(2)
020562  000000 025427       "L7    ???+?    UUO00	0,25427
020563  110473 351634    )$[=.<    ??[SN    XX110	11,@351634(13)
020564  000000 024246       "BF    ???(S    UUO00	0,24246
020565  110747 703033    )'GX8;    ?????    XX110	17,703033(7)
020566  000000 021322       "+2    ???"i    UUO00	0,21322
020567  521154 060330    J)L&#8    T&``l    HLLOI	3,60330(14)
020570  000000 000001         !    ?????    UUO00	0,1
020571  510645 603540    I&EP=@    R?.?0    HLLZ	15,603540(5)
020572  000000 002000        0     ?????    UUO00	0,2000
020573  512763 217234    I7S1Z<    R_??N    HLLZM	17,@217234(3)
020574  000000 200000       0      ?????    UUO00	0,200000
020575  136114 735300    +Q,[K     ?Dg:`    IDPB	2,735300(14)
020576  000000 025501       "M!    ???+     UUO00	0,25501
020577  116757 575520    )WOOM0    ?^}{(    XX116	17,575520(17)
020600  000000 022342       "3B    ???$q    UUO00	0,22342
020601  121607 031670    *.'#.X    ?883\    XX121	14,31670(7)
020602  000000 016607       !V'    ????C    UUO00	0,16607
020603  110666 610000    )&VQ      ??6??    XX110	15,@610000(6)
020604  000000 015334       !K<    ????n    UUO00	0,15334
020605  112333 416340    )3;AS@    ?M\?p    XX112	6,@416340(13)
020606  000000 015030       !H8    ?????    UUO00	0,15030
020607  111654 573215    ).LO:-    ?:evF    XX111	15,573215(14)
020610  000000 024736       "G>    ???)o    UUO00	0,24736
020611  125522 410160    *M2A!P    ?5??8    XX125	12,@410160(2)
020612  000000 016253       !RK    ????U    UUO00	0,16253
020613  122073 003340    *0[ ;@    ?CX?p    XX122	1,@3340(13)
020614  000000 016453       !TK    ?????    UUO00	0,16453
020615  521026 526711    J(6JW)    T!5-d    HLLOI	0,@526711(6)
020616  000000 006000        P     ?????    UUO00	0,6000
020617  121264 160125    **T.!5    ?+!`*    XX121	5,@160125(4)
020620  000000 020361       "#Q    ??? x    UUO00	0,20361
020621  524105 537300    JA%K[     U?->`    HRLO	2,537300(5)
020622  000000 000100        !     ????     UUO00	0,100
020623  110611 327412    )&):\*    ??K/?    XX110	14,327412(11)
020624  000000 017550       !]H    ????4    UUO00	0,17550
020625  123533 612750    *=;Q7H    ?u^?t    XX123	12,@612750(13)
020626  000000 021336       "+>    ???"o    UUO00	0,21336
020627  110715 611322    )'-Q+2    ??n?i    XX110	16,611322(15)
020630  000000 024376       "C^    ???(?    UUO00	0,24376
020631  110473 352263    )$[=2S    ??[TY    XX110	11,@352263(13)
020632  000000 024234       "B<    ???(N    UUO00	0,24234
020633  522141 437600    J1AC^     TF??@    HLLOM	3,437600(1)
020634  000000 004000        @     ?????    UUO00	0,4000
020635  521226 463000    J*6F8     T)4f?    HLLOI	4,@463000(6)
020636  000000 000004         $    ?????    UUO00	0,4
020637  112763 224130    )7S2A8    ?_?(,    XX112	17,@224130(3)
020640  000000 017004       !X$    ?????    UUO00	0,17004
020641  110762 524720    )'RJG0    ???)h    XX110	17,@524720(2)
020642  000000 023702       "?"    ???'a    UUO00	0,23702
020643  515315 526223    IK-JR3    S,m,I    HRLZI	6,526223(15)
020644  000000 400000       @      ?????    UUO00	0,400000
020645  124030 361300    *@8>+     ??Cb`    XX124	0,@361300(10)
020646  000000 023147       "9G    ???&3    UUO00	0,23147
020647  115435 365520    )L=>M0    ?1kk(    XX115	10,@365520(15)
020650  000000 021576       "-^    ???#?    UUO00	0,21576
020651  126633 563422    *V;N<2    ?Y]g?    XX126	14,@563422(13)
020652  000000 023553       "=K    ???'5    UUO00	0,23553
020653  112320 013575    )30!=]    ?M??>    XX112	6,@13575
020654  000000 022227       "27    ???$K    UUO00	0,22227
020655  124304 750050    *C$] H    ??'P?    XX124	6,750050(4)
020656  000000 015037       !H?    ?????    UUO00	0,15037
020657  124365 340470    *CU<$X    ??+A?    XX124	7,@340470(5)
020660  000000 022525       "55    ???%*    UUO00	0,22525
020661  111071 575337    )(YOK?    ?#Mzo    XX111	1,@575337(11)
020662  000000 024525       "E5    ???)*    UUO00	0,24525
020663  112206 312000    )2&90     ?H3??    XX112	4,312000(6)
020664  000000 000015         -    ?????    UUO00	0,15
020665  113777 631000    )?_S(     ??~2?    XX113	17,@631000(17)
020666  000000 021760       "/P    ???#x    UUO00	0,21760
020667  124030 364400    *@8>D     ??Ci?    XX124	0,@364400(10)
020670  000000 023164       "9T    ???&:    UUO00	0,23164
020671  512261 203550    I2Q0=H    RK??4    HLLZM	5,@203550(1)
020672  000000 000002         "    ?????    UUO00	0,2
020673  136140 355300    +Q@=K     ?F?Z`    IDPB	3,355300
020674  000000 025517       "M/    ???+'    UUO00	0,25517
020675  112307 607540    )3'P]@    ?L>?0    XX112	6,607540(7)
020676  000000 020056       " N    ??? ?    UUO00	0,20056
020677  124207 676700    *B'WW     ??>}`    XX124	4,676700(7)
020700  000000 014745       !GE    ????r    UUO00	0,14745
020701  127141 560230    *YAN"8    ?f?`L    XX127	3,560230(1)
020702  000000 024245       "BE    ???(R    UUO00	0,24245
020703  126305 252262    *S%52R    ?L*TY    XX126	6,252262(5)
020704  000000 014743       !GC    ????q    UUO00	0,14743
020705  130161 210152    +!Q1!J    ????5    XX130	3,@210152(1)
020706  000000 016510       !U(    ????$    UUO00	0,16510
020707  126554 073623    *UL'>3    ?V`wI    XX126	13,73623(14)
020710  000000 016732       !W:    ????m    UUO00	0,16732
020711  124365 337770    *CU;_X    ??+?|    XX124	7,@337770(5)
020712  000000 022714       "7,    ???%f    UUO00	0,22714
020713  112356 314000    )3N9@     ?Ns??    XX112	7,314000(16)
020714  000000 023631       ">9    ???'L    UUO00	0,23631
020715  111067 566120    )(WNQ0    ?#=l(    XX111	1,@566120(7)
020716  000000 024446       "DF    ???)?    UUO00	0,24446
020717  127443 041400    *\C$,     ?r?C?    XX127	11,41400(3)
020720  077000 000000    'X        ?`???    UUO77	0,0
020721  114003 757300    )@#][     ???^`    XX114	0,757300(3)
020722  000000 014733       !G;    ????m    UUO00	0,14733
020723  111065 263577    )(U6=_    ?#*g?    XX111	1,@263577(5)
020724  000000 024664       "FT    ???)Z    UUO00	0,24664
020725  110672 751360    )&Z]+P    ??WRx    XX110	15,@751360(12)
020726  000000 017277       !Z_    ????_    UUO00	0,17277
020727  521203 223400    J*#2<     T(?'?    HLLOI	4,223400(3)
020730  000000 001000        (     ?????    UUO00	0,1000
020731  121762 453000    */RE8     ???V?    XX121	17,@453000(2)
020732  000000 021524       "-4    ???#*    UUO00	0,21524
020733  113644 160132    )>D.!:    ?z!`-    XX113	15,160132(4)
020734  000000 026631       "V9    ???-L    UUO00	0,26631
020735  112320 146653    )30,VK    ?M?MU    XX112	6,@146653
020736  000000 020155       "!M    ??? 6    UUO00	0,20155
020737  126272 641713    *RZT/+    ?KVCe    XX126	5,@641713(12)
020740  000000 022760       "7P    ???%x    UUO00	0,22760
020741  126305 251100    *S%5)     ?L*R     XX126	6,251100(5)
020742  000000 014771       !GY    ????|    UUO00	0,14771
020743  121607 003600    *.' >     ?88?@    XX121	14,3600(7)
020744  000000 016571       !UY    ????<    UUO00	0,16571
020745  121611 045633    *.)$N;    ?8HKM    XX121	14,45633(11)
020746  000000 015535       !M=    ????.    UUO00	0,15535
020747  124365 340313    *CU<#+    ??+@e    XX124	7,@340313(5)
020750  000000 022566       "5V    ???%;    UUO00	0,22566
020751  110645 716060    )&EYPP    ??/??    XX110	15,716060(5)
020752  000000 023415       "<-    ???'?    UUO00	0,23415
020753  126305 251062    *S%5(R    ?L*R?    XX126	6,251062(5)
020754  000000 017364       ![T    ????z    UUO00	0,17364
020755  126574 420000    *U\B      ?Wd ?    XX126	13,@420000(14)
020756  000000 015060       !HP    ?????    UUO00	0,15060
020757  134126 664000    +A6V@     ??6h?    ILDB	2,@664000(6)
020760  400000 000000    @         @????    SETZ	0,0
020761  126272 637620    *RZS^0    ?KV?H    XX126	5,@637620(12)
020762  000000 022767       "7W    ???%{    UUO00	0,22767
020763  112141 555555    )1AMMM    ?F?[6    XX112	3,555555(1)
020764  000000 014737       !G?    ????o    UUO00	0,14737
020765  527335 013000    J[=!8     Umh??    HRLOS	6,@13000(15)
020766  000000 400000       @      ?????    UUO00	0,400000
020767  124365 340177    *CU<!_    ??+@?    XX124	7,@340177(5)
020770  000000 022601       "6!    ???%@    UUO00	0,22601
020771  115157 450000    )IOE      ?&|P?    XX115	3,450000(17)
020772  000000 016305       !S%    ????b    UUO00	0,16305
020773  123533 672330    *=;W38    ?u^tl    XX123	12,@672330(13)
020774  000000 022422       "42    ???%?    UUO00	0,22422
020775  114001 512310    )@!I3(    ????d    XX114	0,512310(1)
020776  000000 023005       "8%    ???&?    UUO00	0,23005
020777  126633 477230    *V;GZ8    ?Y\~L    XX126	14,@477230(13)
021000  000000 024047       "@G    ???(?    UUO00	0,24047
021001  111004 166724    )($.W4    ? !mj    XX111	0,166724(4)
021002  000000 020466       "$V    ???!?    UUO00	0,20466
021003  115435 425665    )L=BNU    ?1l+Z    XX115	10,@425665(15)
021004  000000 021477       ",_    ???#?    UUO00	0,21477
021005  112320 154762    )30-GR    ?M?Yy    XX112	6,@154762
021006  000000 014760       !GP    ????x    UUO00	0,14760
021007  113773 533500    )?[K=     ??]7     XX113	17,@533500(13)
021010  000000 023604       ">$    ???'B    UUO00	0,23604
021011  126732 220000    *W:2      ?]R ?    XX126	16,@220000(12)
021012  000000 014712       !G*    ????e    UUO00	0,14712
021013  514452 454160    IDJEAP    S?TX8    HRLZ	11,454160(12)
021014  000000 400000       @      ?????    UUO00	0,400000
021015  110541 234174    )%A3A\    ???8>    XX110	13,234174(1)
021016  000000 023270       ":X    ???&\    UUO00	0,23270
021017  116554 753000    )UL]8     ?VgV?    XX116	13,753000(14)
021020  000000 023635       ">=    ???'N    UUO00	0,23635
021021  113773 536600    )?[KV     ??]=@    XX113	17,@536600(13)
021022  000000 023607       ">'    ???'C    UUO00	0,23607
021023  510610 565160    I&(NIP    R?Ej8    HLLZ	14,565160(10)
021024  000000 000400        $     ?????    UUO00	0,400
021025  112116 101424    )1.(,4    ?Dq??    XX112	2,101424(16)
021026  000000 015352       !KJ    ????u    UUO00	0,15352
021027  126633 534152    *V;KAJ    ?Y]85    XX126	14,@534152(13)
021030  000000 016422       !T2    ?????    UUO00	0,16422
021031  116757 511312    )WOI+*    ?^}?e    XX116	17,511312(17)
021032  000000 022362       "3R    ???$y    UUO00	0,22362
021033  113036 164362    )8>.CR    ?aqhy    XX113	0,@164362(16)
021034  000000 015314       !K,    ????f    UUO00	0,15314
021035  527677 577300    J^_O[     U{}~`    HRLOS	15,@577300(17)
021036  000000 000020         0    ?????    UUO00	0,20
021037  126305 250170    *S%5!X    ?L*P<    XX126	6,250170(5)
021040  000000 020614       "&,    ???!F    UUO00	0,20614
021041  111324 546720    )+4LW0    ?-%Mh    XX111	6,@546720(4)
021042  000000 015372       !KZ    ????}    UUO00	0,15372
021043  110736 071565    )'>'-U    ??ps:    XX110	16,@71565(16)
021044  000000 024360       "CP    ???(x    UUO00	0,24360
021045  124342 310436    *CB9$>    ?????    XX124	7,310436(2)
021046  000000 015067       !HW    ?????    UUO00	0,15067
021047  110464 230000    )$T3      ??"0?    XX110	11,@230000(4)
021050  000000 000003         #    ?????    UUO00	0,3
021051  112116 100620    )1.(&0    ?Dq?H    XX112	2,100620(16)
021052  000000 015355       !KM    ????v    UUO00	0,15355
021053  125512 344640    *M*<F@    ?4SIP    XX125	12,344640(12)
021054  000000 016246       !RF    ????S    UUO00	0,16246
021055  115435 425173    )L=BI[    ?1l*=    XX115	10,@425173(15)
021056  000000 021551       "-I    ???#4    UUO00	0,21551
021057  130506 327136    +%&:Y>    ??3./    XX130	12,327136(6)
021060  000000 014761       !GQ    ????x    UUO00	0,14761
021061  125522 410040    *M2A @    ?5???    XX125	12,@410040(2)
021062  000000 017207       !Z'    ????C    UUO00	0,17207
021063  115424 403735    )L4@?=    ?1$?n    XX115	10,@403735(4)
021064  000000 016722       !W2    ????i    UUO00	0,16722
021065  124300 735112    *C [I*    ???:%    XX124	6,735112
021066  000000 015035       !H=    ?????    UUO00	0,15035
021067  115435 401040    )L=@(@    ?1l??    XX115	10,@401040(15)
021070  000000 021701       "/!    ???#`    UUO00	0,21701
021071  521024 773550    J(4_=H    T!'w4    HLLOI	0,@773550(4)
021072  000000 000002         "    ?????    UUO00	0,2
021073  110503 455135    )%#EI=    ???Z.    XX110	12,455135(3)
021074  000000 023436       "<>    ???'?    UUO00	0,23436
021075  112317 626006    )3/RP&    ?L~,?    XX112	6,626006(17)
021076  000000 017743       !_C    ????q    UUO00	0,17743
021077  503526 246260    H=64RP    Pu2LX    HLLS	12,@246260(6)
021100  000000 001000        (     ?????    UUO00	0,1000
021101  115165 642160    )IUT1P    ?'.D8    XX115	3,@642160(5)
021102  000000 017770       !_X    ????|    UUO00	0,17770
021103  113760 357000    )?P=X     ???^?    XX113	17,@357000
021104  000000 021217       "*/    ???"G    UUO00	0,21217
021105  112320 167076    )30.X^    ?M?n?    XX112	6,@167076
021106  000000 014752       !GJ    ????u    UUO00	0,14752
021107  126500 630633    *U S&;    ?T?1M    XX126	12,630633
021110  000000 022223       "23    ???$I    UUO00	0,22223
021111  524313 235000    JC+3H     U?Z:?    HRLO	6,235000(13)
021112  000000 004000        @     ?????    UUO00	0,4000
021113  126706 600000    *W&P      ?\6??    XX126	16,600000(6)
021114  000000 000010         (    ?????    UUO00	0,10
021115  110611 326212    )&):R*    ??K,E    XX110	14,326212(11)
021116  000000 017654       !^L    ????V    UUO00	0,17654
021117  111654 607720    ).LP_0    ?:f?h    XX111	15,607720(14)
021120  000000 015002       !H"    ?????    UUO00	0,15002
021121  125712 740000    *O*\      ?<W@?    XX125	16,740000(12)
021122  000000 015467       !LW    ?????    UUO00	0,15467
021123  122066 714000    *0VY@     ?C7??    XX122	1,@714000(6)
021124  000000 016513       !U+    ????%    UUO00	0,16513
021125  513200 503600    I: H>     Rh??@    HLLZS	4,503600
021126  000000 400000       @      ?????    UUO00	0,400000
021127  115212 410434    )J*A$<    ?(T??    XX115	4,410434(12)
021130  000000 014763       !GS    ????y    UUO00	0,14763
021131  115424 403600    )L4@>     ?1$?@    XX115	10,@403600(4)
021132  000000 016666       !VV    ????[    UUO00	0,16666
021133  111004 166710    )($.W(    ? !md    XX111	0,166710(4)
021134  000000 020502       "%"    ???!!    UUO00	0,20502
021135  111117 400000    ))/@      ?$|??    XX111	2,400000(17)
021136  000000 000005         %    ?????    UUO00	0,5
021137  114577 206474    )E_0T\    ??z??    XX114	13,@206474(17)
021140  000000 015064       !HT    ?????    UUO00	0,15064
021141  111071 461550    )(YF-H    ?#Lc4    XX111	1,@461550(11)
021142  000000 024624       "F4    ???)J    UUO00	0,24624
021143  125474 670200    *L\W"     ?3fp@    XX125	11,@670200(14)
021144  000000 016152       !QJ    ????5    UUO00	0,16152
021145  110525 145743    )%5,OC    ??)Kq    XX110	12,@145743(5)
021146  000000 016346       !SF    ????s    UUO00	0,16346
021147  121264 160130    **T.!8    ?+!`,    XX121	5,@160130(4)
021150  000000 020345       "#E    ??? r    UUO00	0,20345
021151  125720 346223    *O0<R3    ?=?LI    XX125	16,@346223
021152  000000 015504       !M$    ????"    UUO00	0,15504
021153  113760 335140    )?P;I@    ???:0    XX113	17,@335140
021154  000000 021401       ",!    ???#?    UUO00	0,21401
021155  134116 040000    +A.$      ??p@?    ILDB	2,40000(16)
021156  000000 000041         A    ?????    UUO00	0,41
021157  110473 352250    )$[=2H    ??[TT    XX110	11,@352250(13)
021160  000000 024146       "AF    ???(3    UUO00	0,24146
021161  110735 664020    )'=V@0    ??nh?    XX110	16,@664020(15)
021162  000000 024317       "C/    ???(g    UUO00	0,24317
021163  111004 170003    )($/ #    ? !p?    XX111	0,170003(4)
021164  000000 020372       "#Z    ??? }    UUO00	0,20372
021165  526554 040600    JUL$&     UV`A@    HRLOM	13,40600(14)
021166  000000 000200        "     ????@    UUO00	0,200
021167  122626 361006    *66>(&    ?Y3b?    XX122	14,@361006(6)
021170  000000 020746       "'F    ???!s    UUO00	0,20746
021171  512717 334657    I7/;FO    R\{9W    HLLZM	16,334657(17)
021172  000000 040000       $      ???@?    UUO00	0,40000
021173  126633 477004    *V;GX$    ?Y\~?    XX126	14,@477004(13)
021174  000000 024034       "@<    ???(?    UUO00	0,24034
021175  130116 510755    +!.I'M    ??u?v    XX130	2,510755(16)
021176  000000 015774       !O\    ????~    UUO00	0,15774
021177  125522 412107    *M2A1'    ?5??#    XX125	12,@412107(2)
021200  000000 017222       !Z2    ????I    UUO00	0,17222
021201  114000 265300    )@ 6K     ???j`    XX114	0,265300
021202  000000 022036       "0>    ???$?    UUO00	0,22036
021203  125720 245070    *O04HX    ?=?J?    XX125	16,@245070
021204  000000 015465       !LU    ?????    UUO00	0,15465
021205  110611 325715    )&):O-    ??K+f    XX110	14,325715(11)
021206  000000 017532       !]:    ????-    UUO00	0,17532
021207  514506 745000    IE&\H     S?7J?    HRLZ	12,745000(6)
021210  000000 000004         $    ?????    UUO00	0,4
021211  530506 204000    K%&0@     V?2??    HLLE	12,204000(6)
021212  000000 000002         "    ?????    UUO00	0,2
021213  112316 264760    )3.6GP    ?Lrix    XX112	6,264760(16)
021214  000000 015057       !HO    ?????    UUO00	0,15057
021215  122723 417260    *73AZP    ?]??X    XX122	16,@417260(3)
021216  000000 015557       !MO    ????7    UUO00	0,15557
021217  111004 166604    )($.V$    ? !mB    XX111	0,166604(4)
021220  000000 020517       "%/    ???!'    UUO00	0,20517
021221  124044 611026    *@DQ(6    ??&??    XX124	1,611026(4)
021222  000000 014746       !GF    ????s    UUO00	0,14746
021223  111066 403100    )(V@9     ?#4?     XX111	1,@403100(6)
021224  000000 024626       "F6    ???)K    UUO00	0,24626
021225  126304 306057    *S$8PO    ?L#??    XX126	6,306057(4)
021226  000000 014741       !GA    ????p    UUO00	0,14741
021227  110736 105343    )'>(KC    ??q?q    XX110	16,@105343(16)
021230  000000 017132       !Y:    ????-    UUO00	0,17132
021231  130764 657400    +'TU\     ??&_?    XX130	17,@657400(4)
021232  000000 022046       "0F    ???$?    UUO00	0,22046
021233  115211 115317    )J))K/    ?(I?g    XX115	4,115317(11)
021234  000000 016630       !V8    ????L    UUO00	0,16630
021235  524327 524000    JC7J@     U?=(?    HRLO	6,@524000(7)
021236  000000 020000       "      ??? ?    UUO00	0,20000
021237  115330 737720    )K8[_0    ?-G?h    XX115	6,@737720(10)
021240  000000 015271       !JY    ????\    UUO00	0,15271
021241  130530 365110    +%8>I(    ??Cj$    XX130	12,@365110(10)
021242  000000 014777       !G_    ?????    UUO00	0,14777
021243  111066 373564    )(V?=T    ?#3w:    XX111	1,@373564(6)
021244  000000 024510       "E(    ???)$    UUO00	0,24510
021245  110503 437670    )%#C^X    ????\    XX110	12,437670(3)
021246  000000 023443       "<C    ???'?    UUO00	0,23443
021247  124304 663402    *C$V<"    ??&g?    XX124	6,663402(4)
021250  000000 015040       !H@    ?????    UUO00	0,15040
021251  116653 332460    )VK;4P    ?Z[5?    XX116	15,332460(13)
021252  000000 024310       "C(    ???(d    UUO00	0,24310
021253  112320 146660    )30,VP    ?M?MX    XX112	6,@146660
021254  000000 020243       ""C    ??? Q    UUO00	0,20243
021255  126633 477160    *V;GYP    ?Y\~8    XX126	14,@477160(13)
021256  000000 023753       "?K    ???'u    UUO00	0,23753
021257  111071 360622    )(Y>&2    ?#KaI    XX111	1,@360622(11)
021260  000000 017217       !Z/    ????G    UUO00	0,17217
021261  113760 335260    )?P;JP    ???:X    XX113	17,@335260
021262  000000 021307       "+'    ???"c    UUO00	0,21307
021263  122114 525624    *1,JN4    ?De+J    XX122	2,525624(14)
021264  000000 015246       !JF    ????S    UUO00	0,15246
021265  113760 335226    )?P;J6    ???:K    XX113	17,@335226
021266  000000 021366       "+V    ???"{    UUO00	0,21366
021267  521024 361711    J(4>/)    T!#cd    HLLOI	0,@361711(4)
021270  000000 000004         $    ?????    UUO00	0,4
021271  521154 340600    J)L<&     T&cA@    HLLOI	3,340600(14)
021272  000000 000020         0    ?????    UUO00	0,20
021273  123310 662565    *;(V5U    ?lFe:    XX123	6,662565(10)
021274  000000 014726       !G6    ????k    UUO00	0,14726
021275  121116 206600    *).0V     ?$r?@    XX121	2,206600(16)
021276  000000 023117       "9/    ???&'    UUO00	0,23117
021277  136071 315300    +PY9K     ?CK?`    IDPB	1,@315300(11)
021300  000000 025463       "LS    ???+?    UUO00	0,25463
021301  111067 542274    )(WL2\    ?#=D^    XX111	1,@542274(7)
021302  000000 024477       "D_    ???)?    UUO00	0,24477
021303  126635 160130    *V=.!8    ?Yi`,    XX126	14,@160130(15)
021304  000000 014755       !GM    ????v    UUO00	0,14755
021305  115165 642040    )IUT0@    ?'.D?    XX115	3,@642040(5)
021306  000000 017765       !_U    ????z    UUO00	0,17765
021307  121606 776340    *.&_S@    ?87|p    XX121	14,776340(6)
021310  000000 016560       !UP    ????8    UUO00	0,16560
021311  112317 626002    )3/RP"    ?L~,?    XX112	6,626002(17)
021312  000000 017720       !_0    ????h    UUO00	0,17720
021313  121050 247620    *(H4^0    ?"BOH    XX121	1,247620(10)
021314  000000 020533       "%;    ???!-    UUO00	0,20533
021315  116770 746120    )WX\Q0    ?_GL(    XX116	17,@746120(10)
021316  000000 015341       !KA    ????p    UUO00	0,15341
021317  135551 362000    +MI>0     ?6Kd?    LDB	13,362000(11)
021320  000000 021646       ".F    ???#S    UUO00	0,21646
021321  112307 607470    )3'P\X    ?L>??    XX112	6,607470(7)
021322  000000 020106       "!&    ??? #    UUO00	0,20106
021323  513100 676126    I9 WQ6    Rd?|+    HLLZS	2,676126
021324  000000 000020         0    ?????    UUO00	0,20
021325  116375 700000    )S]X      ?Oo??    XX116	7,@700000(15)
021326  000000 000002         "    ?????    UUO00	0,2
021327  125713 335100    *O+;I     ?<[:     XX125	16,335100(13)
021330  000000 015427       !L7    ?????    UUO00	0,15427
021331  122073 003270    *0[ :X    ?CX?\    XX122	1,@3270(13)
021332  000000 016431       !T9    ?????    UUO00	0,16431
021333  124255 054000    *BM%@     ??hX?    XX124	5,54000(15)
021334  000000 025010       "H(    ???*?    UUO00	0,25010
021335  121727 763110    */7^9(    ?=?f$    XX121	16,@763110(7)
021336  000000 015233       !J;    ????M    UUO00	0,15233
021337  122723 417264    *73AZT    ?]??Z    XX122	16,@417264(3)
021340  000000 015601       !N!    ????@    UUO00	0,15601
021341  111004 166570    )($.UX    ? !m<    XX111	0,166570(4)
021342  000000 020411       "$)    ???!?    UUO00	0,20411
021343  115435 425022    )L=BH2    ?1l*?    XX115	10,@425022(15)
021344  000000 021523       "-3    ???#)    UUO00	0,21523
021345  136175 605300    +Q]PK     ?Gn?`    IDPB	3,@605300(15)
021346  000000 025544       "MD    ???+2    UUO00	0,25544
021347  123453 023770    *<K"?X    ?rX'|    XX123	11,23770(13)
021350  000000 014731       !G9    ????l    UUO00	0,14731
021351  121607 033260    *.'#:P    ?886X    XX121	14,33260(7)
021352  000000 016527       !U7    ????+    UUO00	0,16527
021353  124321 552000    *C1M0     ???T?    XX124	6,@552000(1)
021354  000000 015615       !N-    ????F    UUO00	0,15615
021355  126355 513270    *SMI:X    ?Nm?\    XX126	7,513270(15)
021356  000000 015116       !I.    ????'    UUO00	0,15116
021357  110566 241064    )%V4(T    ??2B?    XX110	13,@241064(6)
021360  000000 017243       !ZC    ????Q    UUO00	0,17243
021361  110753 201533    )'K0-;    ??Z?-    XX110	17,201533(13)
021362  000000 021123       ")3    ???")    UUO00	0,21123
021363  136057 505300    +POHK     ?B}?`    IDPB	1,505300(17)
021364  000000 025454       "LL    ???+?    UUO00	0,25454
021365  125512 344533    *M*<E;    ?4SI-    XX125	12,344533(12)
021366  000000 016375       !S]    ????~    UUO00	0,16375
021367  124304 663416    *C$V<.    ??&g?    XX124	6,663416(4)
021370  000000 015037       !H?    ?????    UUO00	0,15037
021371  112522 770000    )52_      ?U?p?    XX112	12,@770000(2)
021372  000000 016706       !W&    ????c    UUO00	0,16706
021373  115163 307100    )IS8Y     ?'??     XX115	3,@307100(3)
021374  000000 015062       !HR    ?????    UUO00	0,15062
021375  111650 343560    ).H<=P    ?:CG8    XX111	15,343560(10)
021376  000000 024776       "G^    ???)?    UUO00	0,24776
021377  115212 421065    )J*B(U    ?(T"?    XX115	4,421065(12)
021400  000000 015175       !I]    ????>    UUO00	0,15175
021401  123654 200000    *>L0      ?zb??    XX123	15,200000(14)
021402  000000 000001         !    ?????    UUO00	0,1
021403  121035 562510    *(=N5(    ?!me$    XX121	0,@562510(15)
021404  000000 014774       !G\    ????~    UUO00	0,14774
021405  126633 476770    *V;GWX    ?Y\}|    XX126	14,@476770(13)
021406  000000 024011       "@)    ???(?    UUO00	0,24011
021407  125512 344605    *M*<F%    ?4SIB    XX125	12,344605(12)
021410  000000 016265       !RU    ????Z    UUO00	0,16265
021411  125714 710000    *O,Y      ?<g??    XX125	16,710000(14)
021412  000000 015676       !N^    ????_    UUO00	0,15676
021413  121607 117504    *.')]$    ?89?"    XX121	14,117504(7)
021414  000000 026023       "P3    ???,?    UUO00	0,26023
021415  116770 746000    )WX\P     ?_GL?    XX116	17,@746000(10)
021416  000000 015327       !K7    ????k    UUO00	0,15327
021417  135646 725300    +NFZK     ?:7*`    LDB	15,725300(6)
021420  000000 025677       "N_    ???+_    UUO00	0,25677
021421  115435 570720    )L=O'0    ?1mqh    XX115	10,@570720(15)
021422  000000 022160       "1P    ???$8    UUO00	0,22160
021423  113773 530400    )?[K$     ??]1?    XX113	17,@530400(13)
021424  000000 023614       ">,    ???'F    UUO00	0,23614
021425  127141 557770    *YAM_X    ?f?_|    XX127	3,557770(1)
021426  000000 024270       "BX    ???(\    UUO00	0,24270
021427  126305 245020    *S%4H0    ?L*J?    XX126	6,245020(5)
021430  000000 020675       "&]    ???!^    UUO00	0,20675
021431  110570 064700    )%X&G     ??@i`    XX110	13,@64700(10)
021432  000000 024574       "E\    ???)>    UUO00	0,24574
021433  110645 715753    )&EYOK    ??/?u    XX110	15,715753(5)
021434  000000 022520       "50    ???%(    UUO00	0,22520
021435  112133 246722    )1;4W2    ?EZMi    XX112	2,@246722(13)
021436  000000 024606       "F&    ???)C    UUO00	0,24606
021437  530076 526040    K ^JP@    V?u,?    HLLE	1,@526040(16)
021440  000000 002000        0     ?????    UUO00	0,2000
021441  121212 121310    ****+(    ?(Q"d    XX121	4,121310(12)
021442  000000 015331       !K9    ????l    UUO00	0,15331
021443  125475 017103    *L]!Y#    ?3h?!    XX125	11,@17103(15)
021444  000000 016221       !R1    ????H    UUO00	0,16221
021445  112763 254716    )7S5G.    ?_?Yg    XX112	17,@254716(3)
021446  000000 015032       !H:    ?????    UUO00	0,15032
021447  124301 771630    *C!_.8    ???sL    XX124	6,771630(1)
021450  000000 014765       !GU    ????z    UUO00	0,14765
021451  121054 030000    *(L#      ?"`0?    XX121	1,30000(14)
021452  000000 014736       !G>    ????o    UUO00	0,14736
021453  121264 160120    **T.!0    ?+!`(    XX121	5,@160120(4)
021454  000000 020305       "#%    ??? b    UUO00	0,20305
021455  131562 637365    +-RS[U    ?7?>z    XX131	13,@637365(2)
021456  000000 017060       !XP    ?????    UUO00	0,17060
021457  112307 607730    )3'P_8    ?L>?l    XX112	6,607730(7)
021460  000000 020133       "!;    ??? -    UUO00	0,20133
021461  124070 567056    *@XNXN    ??En?    XX124	1,@567056(10)
021462  000000 017772       !_Z    ????}    UUO00	0,17772
021463  110611 327417    )&):\/    ??K/?    XX110	14,327417(11)
021464  000000 017420       !\0    ?????    UUO00	0,17420
021465  113760 335153    )?P;IK    ???:5    XX113	17,@335153
021466  000000 021413       ",+    ???#?    UUO00	0,21413
021467  110541 234160    )%A3AP    ???88    XX110	13,234160(1)
021470  000000 023244       ":D    ???&R    UUO00	0,23244
021471  110611 325320    )&):K0    ??K*h    XX110	14,325320(11)
021472  000000 017410       !\(    ?????    UUO00	0,17410
021473  111071 146240    )(Y,R@    ?#ILP    XX111	1,@146240(11)
021474  000000 017167       !YW    ????;    UUO00	0,17167
021475  124105 541266    *A%L*V    ??-B[    XX124	2,541266(5)
021476  000000 015123       !I3    ????)    UUO00	0,15123
021477  125720 346020    *O0<P0    ?=?L?    XX125	16,@346020
021500  000000 015475       !L]    ?????    UUO00	0,15475
021501  124046 207054    *@F0XL    ??2??    XX124	1,207054(6)
021502  000000 021363       "+S    ???"y    UUO00	0,21363
021503  116757 511336    )WOI+>    ?^}?o    XX116	17,511336(17)
021504  000000 022360       "3P    ???$x    UUO00	0,22360
021505  126633 345110    *V;<I(    ?Y[J$    XX126	14,@345110(13)
021506  000000 014754       !GL    ????v    UUO00	0,14754
021507  115435 425243    )L=BJC    ?1l*Q    XX115	10,@425243(15)
021510  000000 021567       "-W    ???#;    UUO00	0,21567
021511  112763 223740    )7S2?@    ?_?'p    XX112	17,@223740(3)
021512  000000 017005       !X%    ?????    UUO00	0,17005
021513  114601 760575    )F!^%]    ???a>    XX114	14,760575(1)
021514  000000 015065       !HU    ?????    UUO00	0,15065
021515  125522 410230    *M2A"8    ?5??L    XX125	12,@410230(2)
021516  000000 016226       !R6    ????K    UUO00	0,16226
021517  135765 025300    +OU"K     ??(*`    LDB	17,@25300(5)
021520  000000 025402       "L"    ???+?    UUO00	0,25402
021521  115435 425230    )L=BJ8    ?1l*L    XX115	10,@425230(15)
021522  000000 021603       ".#    ???#A    UUO00	0,21603
021523  124246 701012    *BFX(*    ??7??    XX124	5,701012(6)
021524  000000 016056       !PN    ?????    UUO00	0,16056
021525  512317 703000    I3/X8     RL???    HLLZM	6,703000(17)
021526  000000 000040         @    ?????    UUO00	0,40
021527  122723 417270    *73AZX    ?]??\    XX122	16,@417270(3)
021530  000000 015611       !N)    ????D    UUO00	0,15611
021531  124301 146100    *C!,Q     ???L     XX124	6,146100(1)
021532  000000 015043       !HC    ?????    UUO00	0,15043
021533  110611 325510    )&):M(    ??K+$    XX110	14,325510(11)
021534  000000 017470       !\X    ?????    UUO00	0,17470
021535  111004 166723    )($.W3    ? !mi    XX111	0,166723(4)
021536  000000 020522       "%2    ???!)    UUO00	0,20522
021537  112320 154040    )30-@@    ?M?X?    XX112	6,@154040
021540  000000 017304       ![$    ????b    UUO00	0,17304
021541  115435 425732    )L=BO:    ?1l+m    XX115	10,@425732(15)
021542  000000 021662       ".R    ???#Y    UUO00	0,21662
021543  122114 525620    *1,JN0    ?De+H    XX122	2,525620(14)
021544  000000 015235       !J=    ????N    UUO00	0,15235
021545  526633 226000    JV;2P     UYZ,?    HRLOM	14,@226000(13)
021546  000000 000002         "    ?????    UUO00	0,2
021547  527731 666620    J_9VV0    U}NmH    HRLOS	16,@666620(11)
021550  000000 240000       4      ???@?    UUO00	0,240000
021551  110543 645560    )%CTMP    ???K8    XX110	13,645560(3)
021552  000000 023460       "<P    ???'?    UUO00	0,23460
021553  512402 040600    I4"$&     RP?A@    HLLZM	10,40600(2)
021554  000000 200000       0      ?????    UUO00	0,200000
021555  123533 611720    *=;Q/0    ?u^?h    XX123	12,@611720(13)
021556  000000 021327       "+7    ???"k    UUO00	0,21327
021557  122055 061320    *0M&+0    ?Bhbh    XX122	1,61320(15)
021560  000000 016202       !R"    ????A    UUO00	0,16202
021561  514544 175000    IED/H     S?!z?    HRLZ	13,175000(4)
021562  000000 014702       !G"    ????a    UUO00	0,14702
021563  116757 531064    )WOK(T    ?^}2?    XX116	17,531064(17)
021564  000000 022331       "39    ???$l    UUO00	0,22331
021565  512177 110060    I1_) P    RGy??    HLLZM	3,@110060(17)
021566  000000 100000       (      ?????    UUO00	0,100000
021567  126305 250240    *S%5"@    ?L*PP    XX126	6,250240(5)
021570  000000 020634       "&<    ???!N    UUO00	0,20634
021571  115435 425371    )L=BKY    ?1l*|    XX115	10,@425371(15)
021572  000000 021561       "-Q    ???#8    UUO00	0,21561
021573  121121 223775    *)12?]    ?%?'~    XX121	2,@223775(1)
021574  000000 015101       !I!    ????     UUO00	0,15101
021575  112320 146656    )30,VN    ?M?MW    XX112	6,@146656
021576  000000 020246       ""F    ??? S    UUO00	0,20246
021577  115435 425314    )L=BK,    ?1l*f    XX115	10,@425314(15)
021600  000000 021617       "./    ???#G    UUO00	0,21617
021601  115435 571110    )L=O)(    ?1mr$    XX115	10,@571110(15)
021602  000000 022173       "1[    ???$=    UUO00	0,22173
021603  127141 557721    *YAM_1    ?f?_h    XX127	3,557721(1)
021604  000000 024267       "BW    ???([    UUO00	0,24267
021605  124046 207012    *@F0X*    ??2??    XX124	1,207012(6)
021606  000000 014717       !G/    ????g    UUO00	0,14717
021607  115435 426620    )L=BV0    ?1l-H    XX115	10,@426620(15)
021610  000000 021624       ".4    ???#J    UUO00	0,21624
021611  121611 045634    *.)$N<    ?8HKN    XX121	14,45634(11)
021612  000000 015537       !M?    ????/    UUO00	0,15537
021613  111371 272016    )+Y70.    ?/Jt?    XX111	7,@272016(11)
021614  000000 017236       !Z>    ????O    UUO00	0,17236
021615  113760 336437    )?P;T?    ???=?    XX113	17,@336437
021616  000000 021434       ",<    ???#?    UUO00	0,21434
021617  512142 467056    I1BFXN    RF?n?    HLLZM	3,467056(2)
021620  000000 000006         &    ?????    UUO00	0,6
021621  125640 322130    *N@:18    ?:?$,    XX125	15,322130
021622  000000 022732       "7:    ???%m    UUO00	0,22732
021623  112307 767370    )3'^[X    ?L?n|    XX112	6,767370(7)
021624  000000 024076       "@^    ???(?    UUO00	0,24076
021625  110541 233720    )%A3?0    ???7h    XX110	13,233720(1)
021626  000000 023224       ":4    ???&J    UUO00	0,23224
021627  512776 351600    I7^=.     R_sS@    HLLZM	17,@351600(16)
021630  000000 200000       0      ?????    UUO00	0,200000
021631  110503 440010    )%#D (    ???@?    XX110	12,440010(3)
021632  000000 023452       "<J    ???'?    UUO00	0,23452
021633  115315 570353    )K-O#K    ?,mpu    XX115	6,570353(15)
021634  000000 021220       "*0    ???"H    UUO00	0,21220
021635  121611 046357    *.)$SO    ?8HLw    XX121	14,46357(11)
021636  000000 015510       !M(    ????$    UUO00	0,15510
021637  521053 436000    J(KCP     T"\<?    HLLOI	1,436000(13)
021640  000000 000004         $    ?????    UUO00	0,4
021641  121607 000500    *.' %     ?88?     XX121	14,500(7)
021642  000000 016565       !UU    ????:    UUO00	0,16565
021643  124305 060260    *C%&"P    ??(`X    XX124	6,60260(5)
021644  000000 022345       "3E    ???$r    UUO00	0,22345
021645  513760 410000    I?PA      R????    HLLZS	17,@410000
021646  000000 000200        "     ????@    UUO00	0,200
021647  121264 160124    **T.!4    ?+!`*    XX121	5,@160124(4)
021650  000000 020312       "#*    ??? e    UUO00	0,20312
021651  110611 325200    )&):J     ??K*@    XX110	14,325200(11)
021652  000000 017400       !\     ?????    UUO00	0,17400
021653  126305 250430    *S%5$8    ?L*Q?    XX126	6,250430(5)
021654  000000 020656       "&N    ???!W    UUO00	0,20656
021655  110611 327413    )&):\+    ??K/?    XX110	14,327413(11)
021656  000000 017573       !][    ????=    UUO00	0,17573
021657  124323 764520    *C3^E0    ???i(    XX124	6,@764520(3)
021660  000000 015017       !H/    ?????    UUO00	0,15017
021661  121116 304120    *).8A0    ?$s?(    XX121	2,304120(16)
021662  000000 023071       "8Y    ???&?    UUO00	0,23071
021663  110611 327462    )&):\R    ??K/?    XX110	14,327462(11)
021664  000000 015074       !H\    ?????    UUO00	0,15074
021665  503472 746106    H<Z\Q&    PsWL#    HLLS	11,@746106(12)
021666  000000 010000       !      ?????    UUO00	0,10000
021667  124212 131000    *B*+(     ??Q2?    XX124	4,131000(12)
021670  000000 015205       !J%    ????B    UUO00	0,15205
021671  125465 460010    *LUF (    ?3,`?    XX125	11,@460010(5)
021672  000000 015367       !KW    ????{    UUO00	0,15367
021673  116757 511332    )WOI+:    ?^}?m    XX116	17,511332(17)
021674  000000 022361       "3Q    ???$x    UUO00	0,22361
021675  121201 337612    **!;^*    ?(??E    XX121	4,337612(1)
021676  000000 015100       !I     ????     UUO00	0,15100
021677  112320 146652    )30,VJ    ?M?MU    XX112	6,@146652
021700  000000 020240       ""@    ??? P    UUO00	0,20240
021701  127141 560110    *YAN!(    ?f?`$    XX127	3,560110(1)
021702  000000 024300       "C     ???(`    UUO00	0,24300
021703  115330 740110    )K8\!(    ?-G@$    XX115	6,@740110(10)
021704  000000 015255       !JM    ????V    UUO00	0,15255
021705  111066 421764    )(VB/T    ?#4#z    XX111	1,@421764(6)
021706  000000 024604       "F$    ???)B    UUO00	0,24604
021707  114400 166720    )D .W0    ???mh    XX114	10,166720
021710  000000 025005       "H%    ???*?    UUO00	0,25005
021711  125715 302000    *O-80     ?<k??    XX125	16,302000(15)
021712  000000 015453       !LK    ?????    UUO00	0,15453
021713  112303 270712    )3#7'*    ?L?qe    XX112	6,270712(3)
021714  000000 024052       "@J    ???(?    UUO00	0,24052
021715  126633 477003    *V;GX#    ?Y\~?    XX126	14,@477003(13)
021716  000000 024032       "@:    ???(?    UUO00	0,24032
021717  121120 772350    *)0_3H    ?%?tt    XX121	2,@772350
021720  000000 014722       !G2    ????i    UUO00	0,14722
021721  122073 003100    *0[ 9     ?CX?     XX122	1,@3100(13)
021722  000000 016327       !S7    ????k    UUO00	0,16327
021723  115424 403770    )L4@?X    ?1$?|    XX115	10,@403770(4)
021724  000000 016707       !W'    ????c    UUO00	0,16707
021725  115435 425040    )L=BH@    ?1l*?    XX115	10,@425040(15)
021726  000000 021535       "-=    ???#.    UUO00	0,21535
021727  111004 166603    )($.V#    ? !mA    XX111	0,166603(4)
021730  000000 020430       "$8    ???!?    UUO00	0,20430
021731  130506 256434    +%&5T<    ??2]?    XX130	12,256434(6)
021732  000000 014762       !GR    ????y    UUO00	0,14762
021733  135704 155300    +O$-K     ?<!Z`    LDB	16,155300(4)
021734  000000 025724       "O4    ???+j    UUO00	0,25724
021735  110473 351740    )$[=/@    ??[Sp    XX110	11,@351740(13)
021736  000000 024160       "AP    ???(8    UUO00	0,24160
021737  126305 251063    *S%5(S    ?L*R?    XX126	6,251063(5)
021740  000000 017335       ![=    ????n    UUO00	0,17335
021741  110645 715670    )&EYNX    ??/?\    XX110	15,715670(5)
021742  000000 023334       ";<    ???&n    UUO00	0,23334
021743  124365 340174    *CU<!\    ??+@>    XX124	7,@340174(5)
021744  000000 022606       "6&    ???%C    UUO00	0,22606
021745  126554 073622    *UL'>2    ?V`wI    XX126	13,73622(14)
021746  000000 016735       !W=    ????n    UUO00	0,16735
021747  122055 061200    *0M&*     ?Bhb@    XX122	1,61200(15)
021750  000000 016155       !QM    ????6    UUO00	0,16155
021751  121214 322270    **,:2X    ?(c$\    XX121	4,322270(14)
021752  000000 021265       "*U    ???"Z    UUO00	0,21265
021753  126500 630630    *U S&8    ?T?1L    XX126	12,630630
021754  000000 022257       "2O    ???$W    UUO00	0,22257
021755  124365 340040    *CU< @    ??+@?    XX124	7,@340040(5)
021756  000000 022713       "7+    ???%e    UUO00	0,22713
021757  126554 074422    *UL'D2    ?V`y?    XX126	13,74422(14)
021760  000000 016726       !W6    ????k    UUO00	0,16726
021761  136362 745300    +SR\K     ?O?J`    IDPB	7,@745300(2)
021762  000000 026014       "P,    ???,?    UUO00	0,26014
021763  121015 660014    *(-V ,    ? n`?    XX121	0,660014(15)
021764  000000 020564       "%T    ???!:    UUO00	0,20564
021765  113777 501520    )?_H-0    ??}?(    XX113	17,@501520(17)
021766  000000 022032       "0:    ???$?    UUO00	0,22032
021767  115165 641720    )IUT/0    ?'.Ch    XX115	3,@641720(5)
021770  000000 017746       !_F    ????s    UUO00	0,17746
021771  110570 065524    )%X&M4    ??@k*    XX110	13,@65524(10)
021772  000000 024561       "EQ    ???)8    UUO00	0,24561
021773  112320 153770    )30-?X    ?M?W|    XX112	6,@153770
021774  000000 017310       ![(    ????d    UUO00	0,17310
021775  110541 234175    )%A3A]    ???8>    XX110	13,234175(1)
021776  000000 023256       ":N    ???&W    UUO00	0,23256
021777  124342 132416    *CB+4.    ???5?    XX124	7,132416(2)
022000  000000 022230       "28    ???$L    UUO00	0,22230
022001  125523 401070    *M3@(X    ?5???    XX125	12,@401070(3)
022002  000000 021141       ")A    ???"0    UUO00	0,21141
022003  114577 143756    )E_,?N    ??yGw    XX114	13,@143756(17)
022004  000000 015024       !H4    ?????    UUO00	0,15024
022005  136244 645300    +RDTK     ?J&J`    IDPB	5,645300(4)
022006  000000 025600       "N     ???+@    UUO00	0,25600
022007  112741 575600    )7AON     ?^?{@    XX112	17,575600(1)
022010  000000 015034       !H<    ?????    UUO00	0,15034
022011  111067 542240    )(WL2@    ?#=DP    XX111	1,@542240(7)
022012  000000 023032       "8:    ???&?    UUO00	0,23032
022013  125720 346033    *O0<P;    ?=?L?    XX125	16,@346033
022014  000000 015473       !L[    ?????    UUO00	0,15473
022015  526272 641710    JRZT/(    UKVCd    HRLOM	5,@641710(12)
022016  000000 000010         (    ?????    UUO00	0,10
022017  513245 737600    I:E[^     Rj/?@    HLLZS	5,737600(5)
022020  000000 100000       (      ?????    UUO00	0,100000
022021  136302 075300    +S"'K     ?L?z`    IDPB	6,75300(2)
022022  000000 025625       "N5    ???+J    UUO00	0,25625
022023  111065 261420    )(U6,0    ?#*c?    XX111	1,@261420(5)
022024  000000 024670       "FX    ???)\    UUO00	0,24670
022025  521036 043317    J(>$;/    T!pFg    HLLOI	0,@43317(16)
022026  000000 000010         (    ?????    UUO00	0,10
022027  111420 417200    ),0AZ     ?1??@    XX111	10,@417200
022030  000000 014767       !GW    ????{    UUO00	0,14767
022031  122723 417263    *73AZS    ?]??Y    XX122	16,@417263(3)
022032  000000 015610       !N(    ????D    UUO00	0,15610
022033  115424 403736    )L4@?>    ?1$?o    XX115	10,@403736(4)
022034  000000 016720       !W0    ????h    UUO00	0,16720
022035  121116 172200    *)./2     ?$qt@    XX121	2,172200(16)
022036  000000 023036       "8>    ???&?    UUO00	0,23036
022037  115435 425006    )L=BH&    ?1l*?    XX115	10,@425006(15)
022040  000000 021517       "-/    ???#'    UUO00	0,21517
022041  512320 235600    I303N     RM?;@    HLLZM	6,@235600
022042  000000 001000        (     ?????    UUO00	0,1000
022043  127677 515300    *^_IK     ?{}?`    XX127	15,@515300(17)
022044  000000 015716       !O.    ????g    UUO00	0,15716
022045  124323 764400    *C3^D     ???i?    XX124	6,@764400(3)
022046  000000 015012       !H*    ?????    UUO00	0,15012
022047  113106 056602    )9&%V"    ?d0]A    XX113	2,56602(6)
022050  000000 015036       !H>    ?????    UUO00	0,15036
022051  110747 707060    )'GXXP    ?????    XX110	17,707060(7)
022052  000000 023712       "?*    ???'e    UUO00	0,23712
022053  110715 611275    )'-Q*]    ??n?^    XX110	16,611275(15)
022054  000000 024376       "C^    ???(?    UUO00	0,24376
022055  115435 425664    )L=BNT    ?1l+Z    XX115	10,@425664(15)
022056  000000 021507       "-'    ???##    UUO00	0,21507
022057  121606 773170    *.&_9X    ?87v<    XX121	14,773170(6)
022060  000000 016620       !V0    ????H    UUO00	0,16620
022061  111070 747362    )(X\[R    ?#GNy    XX111	1,@747362(10)
022062  000000 017121       !Y1    ????(    UUO00	0,17121
022063  113760 335143    )?P;IC    ???:1    XX113	17,@335143
022064  000000 021400       ",     ???#?    UUO00	0,21400
022065  122434 727010    *4<ZX(    ?Qg.?    XX122	10,@727010(14)
022066  000000 015006       !H&    ?????    UUO00	0,15006
022067  112307 606720    )3'PW0    ?L>?h    XX112	6,606720(7)
022070  000000 020025       " 5    ??? ?    UUO00	0,20025
022071  114400 166600    )D .V     ???m@    XX114	10,166600
022072  000000 025006       "H&    ???*?    UUO00	0,25006
022073  110570 065520    )%X&M0    ??@k(    XX110	13,@65520(10)
022074  000000 024553       "EK    ???)5    UUO00	0,24553
022075  115212 421062    )J*B(R    ?(T"?    XX115	4,421062(12)
022076  000000 015142       !IB    ????1    UUO00	0,15142
022077  113536 037740    )=>#_@    ?up?p    XX113	12,@37740(16)
022100  000000 022454       "4L    ???%?    UUO00	0,22454
022101  111066 421760    )(VB/P    ?#4#x    XX111	1,@421760(6)
022102  000000 024531       "E9    ???),    UUO00	0,24531
022103  513177 117140    I9_)Y@    Rgy?0    HLLZS	3,@117140(17)
022104  000000 000400        $     ?????    UUO00	0,400
022105  122626 361005    *66>(%    ?Y3b?    XX122	14,@361005(6)
022106  000000 020636       "&>    ???!O    UUO00	0,20636
022107  112320 013570    )30!=X    ?M??<    XX112	6,@13570
022110  000000 022224       "24    ???$J    UUO00	0,22224
022111  136126 545300    +Q6LK     ?E5J`    IDPB	2,@545300(6)
022112  000000 025510       "M(    ???+$    UUO00	0,25510
022113  112317 526630    )3/JV8    ?L}-L    XX112	6,526630(17)
022114  000000 017741       !_A    ????p    UUO00	0,17741
022115  112355 055110    )3M%I(    ?NhZ$    XX112	7,55110(15)
022116  000000 014724       !G4    ????j    UUO00	0,14724
022117  120477 454070    *$_E@X    ??|X?    XX120	11,@454070(17)
022120  776000 770000    _P _      ?@?p?    BLKI	760,770000
022121  111654 605700    ).LPO     ?:f?`    XX111	15,605700(14)
022122  000000 015000       !H     ?????    UUO00	0,15000
022123  125121 316260    *I19RP    ?%??X    XX125	2,@316260(1)
022124  000000 017373       ![[    ????}    UUO00	0,17373
022125  110611 325716    )&):O.    ??K+g    XX110	14,325716(11)
022126  000000 017620       !^0    ????H    UUO00	0,17620
022127  126305 251067    *S%5(W    ?L*R?    XX126	6,251067(5)
022130  000000 017340       ![@    ????p    UUO00	0,17340
022131  113762 537060    )?RKXP    ???>?    XX113	17,@537060(2)
022132  000000 021145       ")E    ???"2    UUO00	0,21145
022133  136010 445300    +P(DK     ?@DJ`    IDPB	0,445300(10)
022134  000000 025420       "L0    ???+?    UUO00	0,25420
022135  503375 761500    H;]^-     Pooc     HLLS	7,@761500(15)
022136  000000 000400        $     ?????    UUO00	0,400
022137  111065 042533    )(U$5;    ?#(E-    XX111	1,@42533(5)
022140  000000 024127       "A7    ???(+    UUO00	0,24127
022141  124365 340160    *CU<!P    ??+@8    XX124	7,@340160(5)
022142  000000 022574       "5\    ???%>    UUO00	0,22574
022143  127353 560000    *[KN      ?n]`?    XX127	7,560000(13)
022144  000000 000011         )    ?????    UUO00	0,11
022145  512261 536470    I2QKTX    RK?=?    HLLZM	5,@536470(1)
022146  000000 000003         #    ?????    UUO00	0,3
022147  115212 502716    )J*H7.    ?(U?g    XX115	4,502716(12)
022150  000000 021457       ",O    ???#?    UUO00	0,21457
022151  135715 765300    +O-^K     ?<oj`    LDB	16,765300(15)
022152  000000 025733       "O;    ???+m    UUO00	0,25733
022153  113777 501400    )?_H,     ??}??    XX113	17,@501400(17)
022154  000000 022000       "0     ???$?    UUO00	0,22000
022155  110753 201534    )'K0-<    ??Z?.    XX110	17,201534(13)
022156  000000 021132       "):    ???"-    UUO00	0,21132
022157  113144 722000    )9DZ0     ?f'$?    XX113	3,722000(4)
022160  000000 015777       !O_    ?????    UUO00	0,15777
022161  121015 660010    *(-V (    ? n`?    XX121	0,660010(15)
022162  000000 020557       "%O    ???!7    UUO00	0,20557
022163  110611 326213    )&):R+    ??K,E    XX110	14,326213(11)
022164  000000 017651       !^I    ????T    UUO00	0,17651
022165  115435 425735    )L=BO=    ?1l+n    XX115	10,@425735(15)
022166  000000 021664       ".T    ???#Z    UUO00	0,21664
022167  121264 160154    **T.!L    ?+!`6    XX121	5,@160154(4)
022170  000000 020367       "#W    ??? {    UUO00	0,20367
022171  115435 425660    )L=BNP    ?1l+X    XX115	10,@425660(15)
022172  000000 021475       ",]    ???#?    UUO00	0,21475
022173  131562 637362    +-RS[R    ?7?>y    XX131	13,@637362(2)
022174  000000 017117       !Y/    ????'    UUO00	0,17117
022175  510737 056700    I'?%W     R?x]`    HLLZ	16,@56700(17)
022176  000000 000002         "    ?????    UUO00	0,2
022177  521155 234400    J)M3D     T&j9?    HLLOI	3,234400(15)
022200  000000 000005         %    ?????    UUO00	0,5
022201  113144 764300    )9D^C     ?f'h`    XX113	3,764300(4)
022202  000000 015776       !O^    ?????    UUO00	0,15776
022203  113760 335070    )?P;HX    ???:?    XX113	17,@335070
022204  000000 021451       ",I    ???#?    UUO00	0,21451
022205  511557 440530    I-OD%8    R6|A,    HLLZI	13,440530(17)
022206  000000 000037         ?    ?????    UUO00	0,37
022207  522141 437720    J1AC_0    TF??h    HLLOM	3,437720(1)
022210  000000 020000       "      ??? ?    UUO00	0,20000
022211  113755 600300    )?MP#     ?~n?`    XX113	17,600300(15)
022212  000000 021373       "+[    ???"}    UUO00	0,21373
022213  113760 336444    )?P;TD    ???=?    XX113	17,@336444
022214  000000 021422       ",2    ???#?    UUO00	0,21422
022215  503461 342600    H<Q<6     Ps?E@    HLLS	11,@342600(1)
022216  000000 400000       @      ?????    UUO00	0,400000
022217  112317 626005    )3/RP%    ?L~,?    XX112	6,626005(17)
022220  000000 017734       !_<    ????n    UUO00	0,17734
022221  110645 716010    )&EYP(    ??/??    XX110	15,716010(5)
022222  000000 023343       ";C    ???&q    UUO00	0,23343
022223  112320 152436    )30-4>    ?M?U?    XX112	6,@152436
022224  000000 014751       !GI    ????t    UUO00	0,14751
022225  110762 526377    )'RJS_    ???,?    XX110	17,@526377(2)
022226  000000 023666       ">V    ???'[    UUO00	0,23666
022227  516760 177000    IWP/X     S_?~?    HRLZM	17,@177000
022230  000000 004000        @     ?????    UUO00	0,4000
022231  111307 432630    )+'C68    ?,<5L    XX111	6,432630(7)
022232  000000 015011       !H)    ?????    UUO00	0,15011
022233  124211 220733    *B)2';    ??J!m    XX124	4,220733(11)
022234  000000 023204       ":$    ???&B    UUO00	0,23204
022235  126517 413377    *U/A;_    ?T|??    XX126	12,413377(17)
022236  000000 016004       !P$    ?????    UUO00	0,16004
022237  522572 471700    J5ZG/     TWTs`    HLLOM	13,@471700(12)
022240  000000 002000        0     ?????    UUO00	0,2000
022241  115435 374003    )L=?@#    ?1kx?    XX115	10,@374003(15)
022242  000000 021501       "-!    ???#     UUO00	0,21501
022243  127247 270000    *ZG7      ?j:p?    XX127	5,270000(7)
022244  000000 000017         /    ?????    UUO00	0,17
022245  112320 154110    )30-A(    ?M?X$    XX112	6,@154110
022246  000000 017274       !Z\    ????^    UUO00	0,17274
022247  112307 607660    )3'P^P    ?L>?X    XX112	6,607660(7)
022250  000000 020127       "!7    ??? +    UUO00	0,20127
022251  110471 070435    )$Y'$=    ??Hq?    XX110	11,@70435(11)
022252  000000 017626       !^6    ????K    UUO00	0,17626
022253  116757 531576    )WOK-^    ?^}3?    XX116	17,531576(17)
022254  000000 022275       "2]    ???$^    UUO00	0,22275
022255  122073 003460    *0[ <P    ?CX??    XX122	1,@3460(13)
022256  000000 016442       !TB    ?????    UUO00	0,16442
022257  125474 765370    *L\^KX    ?3gj|    XX125	11,@765370(14)
022260  000000 021455       ",M    ???#?    UUO00	0,21455
022261  126554 057136    *UL%Y>    ?V`^/    XX126	13,57136(14)
022262  000000 015027       !H7    ?????    UUO00	0,15027
022263  113753 433300    )?KC;     ?~\6`    XX113	17,433300(13)
022264  000000 021453       ",K    ???#?    UUO00	0,21453
022265  122707 217000    *7'1X     ?\:??    XX122	16,217000(7)
022266  000000 015556       !MN    ????7    UUO00	0,15556
022267  124342 132357    *CB+3O    ???4w    XX124	7,132357(2)
022270  000000 016102       !Q"    ????!    UUO00	0,16102
022271  113757 153200    )?O-:     ?~yV@    XX113	17,153200(17)
022272  000000 021201       "*!    ???"@    UUO00	0,21201
022273  521727 702000    J/7X0     T=???    HLLOI	16,@702000(7)
022274  000000 020000       "      ??? ?    UUO00	0,20000
022275  521000 216500    J( 1U     T ??     HLLOI	0,216500
022276  000000 000002         "    ?????    UUO00	0,2
022277  112307 606734    )3'PW<    ?L>?n    XX112	6,606734(7)
022300  000000 020030       " 8    ??? ?    UUO00	0,20030
022301  521246 767600    J*F^^     T*7o@    HLLOI	5,767600(6)
022302  000000 000003         #    ?????    UUO00	0,3
022303  135776 635300    +O^SK     ??v:`    LDB	17,@635300(16)
022304  000000 025411       "L)    ???+?    UUO00	0,25411
022305  521035 655000    J(=UH     T!nZ?    HLLOI	0,@655000(15)
022306  000000 000005         %    ?????    UUO00	0,5
022307  115435 425300    )L=BK     ?1l*`    XX115	10,@425300(15)
022310  000000 021546       "-F    ???#3    UUO00	0,21546
022311  115316 552320    )K.M30    ?,uTh    XX115	6,552320(16)
022312  000000 014704       !G$    ????b    UUO00	0,14704
022313  115424 404040    )L4@@@    ?1$??    XX115	10,@404040(4)
022314  000000 016672       !VZ    ????]    UUO00	0,16672
022315  115435 571123    )L=O)3    ?1mr)    XX115	10,@571123(15)
022316  000000 022172       "1Z    ???$=    UUO00	0,22172
022317  125512 345100    *M*<I     ?4SJ     XX125	12,345100(12)
022320  000000 016262       !RR    ????Y    UUO00	0,16262
022321  135660 535300    +NPKK     ?;?:`    LDB	15,@535300
022322  000000 025706       "O&    ???+c    UUO00	0,25706
022323  124246 655062    *BFUHR    ??6Z?    XX124	5,655062(6)
022324  000000 022234       "2<    ???$N    UUO00	0,22234
022325  122055 063340    *0M&;@    ?Bhfp    XX122	1,63340(15)
022326  000000 016154       !QL    ????6    UUO00	0,16154
022327  124246 635740    *BFSO@    ??6;p    XX124	5,635740(6)
022330  000000 024315       "C-    ???(f    UUO00	0,24315
022331  125512 345043    *M*<HC    ?4SJ?    XX125	12,345043(12)
022332  000000 016363       !SS    ????y    UUO00	0,16363
022333  124365 340300    *CU<#     ??+@`    XX124	7,@340300(5)
022334  000000 022567       "5W    ???%;    UUO00	0,22567
022335  110752 647740    )'JT_@    ??VOp    XX110	17,647740(12)
022336  000000 024434       "D<    ???)?    UUO00	0,24434
022337  116757 552600    )WOM6     ?^}U@    XX116	17,552600(17)
022340  000000 022340       "3@    ???$p    UUO00	0,22340
022341  110765 020000    )'U"      ??( ?    XX110	17,@20000(5)
022342  000000 015455       !LM    ?????    UUO00	0,15455
022343  126635 243400    *V=4<     ?YjG?    XX126	14,@243400(15)
022344  000000 023571       "=Y    ???'<    UUO00	0,23571
022345  121116 175300    *)./K     ?$qz`    XX121	2,175300(16)
022346  000000 023046       "8F    ???&?    UUO00	0,23046
022347  116755 044720    )WM$G0    ?^hIh    XX116	17,44720(15)
022350  000000 026024       "P4    ???,?    UUO00	0,26024
022351  110566 241063    )%V4(S    ??2B?    XX110	13,@241063(6)
022352  000000 017254       !ZL    ????V    UUO00	0,17254
022353  126305 250310    *S%5#(    ?L*Pd    XX126	6,250310(5)
022354  000000 020647       "&G    ???!S    UUO00	0,20647
022355  124302 400420    *C"@$0    ?????    XX124	6,400420(2)
022356  000000 015042       !HB    ?????    UUO00	0,15042
022357  131562 637366    +-RS[V    ?7?>{    XX131	13,@637366(2)
022360  000000 017077       !X_    ?????    UUO00	0,17077
022361  113760 335210    )?P;J(    ???:D    XX113	17,@335210
022362  000000 021344       "+D    ???"r    UUO00	0,21344
022363  121264 160123    **T.!3    ?+!`)    XX121	5,@160123(4)
022364  000000 020315       "#-    ??? f    UUO00	0,20315
022365  113760 335225    )?P;J5    ???:J    XX113	17,@335225
022366  000000 021341       "+A    ???"p    UUO00	0,21341
022367  112127 743332    )17\;:    ?E?Fm    XX112	2,@743332(7)
022370  000000 023120       "90    ???&(    UUO00	0,23120
022371  111066 403530    )(V@=8    ?#4?,    XX111	1,@403530(6)
022372  000000 024662       "FR    ???)Y    UUO00	0,24662
022373  125511 557335    *M)M[=    ?4M^n    XX125	12,557335(11)
022374  000000 016413       !T+    ?????    UUO00	0,16413
022375  112260 037202    )2P#Z"    ?K?>A    XX112	5,@37202
022376  000000 023741       "?A    ???'p    UUO00	0,23741
022377  125512 545656    *M*LNN    ?4UKW    XX125	12,545656(12)
022400  000000 015626       !N6    ????K    UUO00	0,15626
022401  135635 115300    +N=)K     ?9i?`    LDB	14,@115300(15)
022402  000000 025670       "NX    ???+\    UUO00	0,25670
022403  111066 422316    )(VB3.    ?#4$g    XX111	1,@422316(6)
022404  000000 016663       !VS    ????Y    UUO00	0,16663
022405  126554 006436    *UL T>    ?V`??    XX126	13,6436(14)
022406  000000 015026       !H6    ?????    UUO00	0,15026
022407  515315 526456    IK-JTN    S,m-?    HRLZI	6,526456(15)
022410  000000 440000       D      ???@?    UUO00	0,440000
022411  125714 121000    *O,*(     ?<a"?    XX125	16,121000(14)
022412  000000 015422       !L2    ?????    UUO00	0,15422
022413  516753 606120    IWKPQ0    S^^?(    HRLZM	17,606120(13)
022414  000000 200000       0      ?????    UUO00	0,200000
022415  111300 075440    )+ 'L@    ?,?{?    XX111	6,75440
022416  000000 015744       !OD    ????r    UUO00	0,15744
022417  124044 611000    *@DQ(     ??&??    XX124	1,611000(4)
022420  000000 014744       !GD    ????r    UUO00	0,14744
022421  111654 573202    ).LO:"    ?:evA    XX111	15,573202(14)
022422  000000 024733       "G;    ???)m    UUO00	0,24733
022423  126633 423000    *V;B8     ?Y\&?    XX126	14,@423000(13)
022424  000000 000012         *    ?????    UUO00	0,12
022425  125512 345512    *M*<M*    ?4SK%    XX125	12,345512(12)
022426  000000 015031       !H9    ?????    UUO00	0,15031
022427  521017 437226    J(/CZ6    T |>K    HLLOI	0,437226(17)
022430  000000 000005         %    ?????    UUO00	0,5
022431  126305 250500    *S%5%     ?L*Q     XX126	6,250500(5)
022432  000000 020627       "&7    ???!K    UUO00	0,20627
022433  111067 526621    )(WJV1    ?#=-H    XX111	1,@526621(7)
022434  000000 023423       "<3    ???'?    UUO00	0,23423
022435  521025 565720    J(5NO0    T!-kh    HLLOI	0,@565720(5)
022436  000000 000001         !    ?????    UUO00	0,1
022437  115435 443030    )L=D88    ?1lF?    XX115	10,@443030(15)
022440  000000 021527       "-7    ???#+    UUO00	0,21527
022441  115435 427440    )L=B\@    ?1l/?    XX115	10,@427440(15)
022442  000000 021502       "-"    ???#!    UUO00	0,21502
022443  527341 750000    J[A]      Un?P?    HRLOS	7,750000(1)
022444  000000 000000              ?????    UUO00	0,0
022445  122114 525625    *1,JN5    ?De+J    XX122	2,525625(14)
022446  000000 015265       !JU    ????Z    UUO00	0,15265
022447  126551 332150    *UI;1H    ?VK44    XX126	13,332150(11)
022450  000000 014776       !G^    ?????    UUO00	0,14776
022451  136233 035300    +R;#K     ?IX:`    IDPB	4,@35300(13)
022452  000000 025571       "MY    ???+<    UUO00	0,25571
022453  132334 246000    +3<4P     ?MbL?    FSC	6,@246000(14)
022454  000000 015332       !K:    ????m    UUO00	0,15332
022455  521026 746511    J(6\U)    T!7M$    HLLOI	0,@746511(6)
022456  000000 000006         &    ?????    UUO00	0,6
022457  126330 257310    *S85[(    ?MB^d    XX126	6,@257310(10)
022460  000000 015362       !KR    ????y    UUO00	0,15362
022461  121263 166660    **S.VP    ?+?mX    XX121	5,@166660(3)
022462  000000 020573       "%[    ???!=    UUO00	0,20573
022463  125522 407720    *M2@_0    ?5??h    XX125	12,@407720(2)
022464  000000 017171       !YY    ????<    UUO00	0,17171
022465  110542 110616    )%B)&.    ????G    XX110	13,110616(2)
022466  000000 024322       "C2    ???(i    UUO00	0,24322
022467  126476 607000    *T^PX     ?Sv??    XX126	11,@607000(16)
022470  000000 026042       "PB    ???,?    UUO00	0,26042
022471  111066 421727    )(VB/7    ?#4#k    XX111	1,@421727(6)
022472  000000 024521       "E1    ???)(    UUO00	0,24521
022473  123704 443370    *?$D;X    ?|$F|    XX123	16,443370(4)
022474  000000 021006       "(&    ???"?    UUO00	0,21006
022475  125720 247300    *O04[     ?=?N`    XX125	16,@247300
022476  000000 015420       !L0    ?????    UUO00	0,15420
022477  125512 344604    *M*<F$    ?4SIB    XX125	12,344604(12)
022500  000000 016402       !T"    ?????    UUO00	0,16402
022501  116757 615100    )WOQI     ?^~?     XX116	17,615100(17)
022502  000000 022347       "3G    ???$s    UUO00	0,22347
022503  135753 215300    +OK1K     ?>Z?`    LDB	17,215300(13)
022504  000000 025760       "OP    ???+x    UUO00	0,25760
022505  110747 125320    )'G*K0    ??9*h    XX110	17,125320(7)
022506  000000 024302       "C"    ???(a    UUO00	0,24302
022507  110473 351670    )$[=.X    ??[S\    XX110	11,@351670(13)
022510  000000 024170       "AX    ???(<    UUO00	0,24170
022511  514504 206000    IE$0P     S?"??    HRLZ	12,206000(4)
022512  000000 000001         !    ?????    UUO00	0,1
022513  112353 322500    )3K:5     ?N[%     XX112	7,322500(13)
022514  000000 021102       ")"    ???"!    UUO00	0,21102
022515  111066 403270    )(V@:X    ?#4?\    XX111	1,@403270(6)
022516  000000 024644       "FD    ???)R    UUO00	0,24644
022517  522664 204200    J6T0B     T["?@    HLLOM	15,@204200(4)
022520  000000 010000       !      ?????    UUO00	0,10000
022521  515326 013200    IK6!:     S-0?@    HRLZI	6,@13200(6)
022522  000000 020000       "      ??? ?    UUO00	0,20000
022523  125512 345030    *M*<H8    ?4SJ?    XX125	12,345030(12)
022524  000000 016353       !SK    ????u    UUO00	0,16353
022525  126305 251070    *S%5(X    ?L*R?    XX126	6,251070(5)
022526  000000 017367       ![W    ????{    UUO00	0,17367
022527  121116 200400    *).0$     ?$r??    XX121	2,200400(16)
022530  000000 023063       "8S    ???&?    UUO00	0,23063
022531  122723 421504    *73B-$    ?]?#"    XX122	16,@421504(3)
022532  000000 015542       !MB    ????1    UUO00	0,15542
022533  121212 121313    ****++    ?(Q"e    XX121	4,121313(12)
022534  000000 015350       !KH    ????t    UUO00	0,15350
022535  115330 737770    )K8[_X    ?-G?|    XX115	6,@737770(10)
022536  000000 015276       !J^    ????_    UUO00	0,15276
022537  136313 705300    +S+XK     ?L_?`    IDPB	6,705300(13)
022540  000000 025634       "N<    ???+N    UUO00	0,25634
022541  113536 037500    )=>#]     ?up?     XX113	12,@37500(16)
022542  000000 022443       "4C    ???%?    UUO00	0,22443
022543  130504 756566    +%$]UV    ??'];    XX130	12,756566(4)
022544  000000 024254       "BL    ???(V    UUO00	0,24254
022545  111072 251101    )(Z5)!    ?#RR     XX111	1,@251101(12)
022546  000000 024725       "G5    ???)j    UUO00	0,24725
022547  115211 114330    )J))C8    ?(I?l    XX115	4,114330(11)
022550  000000 015025       !H5    ?????    UUO00	0,15025
022551  110525 145770    )%5,OX    ??)K|    XX110	12,@145770(5)
022552  000000 016345       !SE    ????r    UUO00	0,16345
022553  110611 325560    )&):MP    ??K+8    XX110	14,325560(11)
022554  000000 017624       !^4    ????J    UUO00	0,17624
022555  121264 160127    **T.!7    ?+!`+    XX121	5,@160127(4)
022556  000000 020346       "#F    ??? s    UUO00	0,20346
022557  126435 110412    *T=)$*    ?Qi??    XX126	10,@110412(15)
022560  000000 024434       "D<    ???)?    UUO00	0,24434
022561  515314 067000    IK,&X     S,`n?    HRLZI	6,67000(14)
022562  000000 000001         !    ?????    UUO00	0,1
022563  110611 327414    )&):\,    ??K/?    XX110	14,327414(11)
022564  000000 017601       !^!    ????@    UUO00	0,17601
022565  125714 316000    *O,9P     ?<c??    XX125	16,316000(14)
022566  000000 015435       !L=    ?????    UUO00	0,15435
022567  111754 413727    )/LA?7    ?>d?k    XX111	17,413727(14)
022570  000000 017776       !_^    ?????    UUO00	0,17776
022571  112307 607040    )3'PX@    ?L>??    XX112	6,607040(7)
022572  000000 020146       "!F    ??? 3    UUO00	0,20146
022573  125677 505460    *N_HLP    ?;}??    XX125	15,@505460(17)
022574  000000 022703       "7#    ???%a    UUO00	0,22703
022575  110611 325321    )&):K1    ??K*h    XX110	14,325321(11)
022576  000000 017623       !^3    ????I    UUO00	0,17623
022577  526605 171400    JV%/,     UX)s?    HRLOM	14,171400(5)
022600  000000 200000       0      ?????    UUO00	0,200000
022601  136351 135300    +SI+K     ?NI:`    IDPB	7,135300(11)
022602  000000 025661       "NQ    ???+X    UUO00	0,25661
022603  136374 555300    +S\MK     ?OeZ`    IDPB	7,@555300(14)
022604  000000 025776       "O^    ???+?    UUO00	0,25776
022605  127671 614000    *^YQ@     ?{N??    XX127	15,@614000(11)
022606  000000 015701       !O!    ????`    UUO00	0,15701
022607  111067 010435    )(W!$=    ?#8??    XX111	1,@10435(7)
022610  000000 017166       !YV    ????;    UUO00	0,17166
022611  115163 307062    )IS8XR    ?'???    XX115	3,@307062(3)
022612  000000 016501       !U!    ????     UUO00	0,16501
022613  115212 421073    )J*B([    ?(T"?    XX115	4,421073(12)
022614  000000 015163       !IS    ????9    UUO00	0,15163
022615  113773 525300    )?[JK     ??]*`    XX113	17,@525300(13)
022616  000000 023611       ">)    ???'D    UUO00	0,23611
022617  112320 146655    )30,VM    ?M?MV    XX112	6,@146655
022620  000000 020254       ""L    ??? V    UUO00	0,20254
022621  126633 477040    *V;GX@    ?Y\~?    XX126	14,@477040(13)
022622  000000 024010       "@(    ???(?    UUO00	0,24010
022623  126402 122421    *T"*41    ?P?%?    XX126	10,122421(2)
022624  000000 023623       ">3    ???'I    UUO00	0,23623
022625  112763 223670    )7S2>X    ?_?'\    XX112	17,@223670(3)
022626  000000 017012       !X*    ?????    UUO00	0,17012
022627  512376 466100    I3^FQ     ROtl     HLLZM	7,@466100(16)
022630  000000 400000       @      ?????    UUO00	0,400000
022631  124212 137200    *B*+Z     ??Q>@    XX124	4,137200(12)
022632  000000 015224       !J4    ????J    UUO00	0,15224
022633  110611 325750    )&):OH    ??K+t    XX110	14,325750(11)
022634  000000 017556       !]N    ????7    UUO00	0,17556
022635  113106 056743    )9&%WC    ?d0]q    XX113	2,56743(6)
022636  000000 016651       !VI    ????T    UUO00	0,16651
022637  113760 335330    )?P;K8    ???:l    XX113	17,@335330
022640  000000 021306       "+&    ???"c    UUO00	0,21306
022641  121611 045635    *.)$N=    ?8HKN    XX121	14,45635(11)
022642  000000 015533       !M;    ????-    UUO00	0,15533
022643  111067 522650    )(WJ6H    ?#=%T    XX111	1,@522650(7)
022644  000000 023102       "9"    ???&!    UUO00	0,23102
022645  521263 705160    J*SXIP    T+??8    HLLOI	5,@705160(3)
022646  000000 000040         @    ?????    UUO00	0,40
022647  512762 442200    I7RD2     R_?D@    HLLZM	17,@442200(2)
022650  000000 000010         (    ?????    UUO00	0,10
022651  125475 017104    *L]!Y$    ?3h?"    XX125	11,@17104(15)
022652  000000 016207       !R'    ????C    UUO00	0,16207
022653  121607 031620    *.'#.0    ?883H    XX121	14,31620(7)
022654  000000 016612       !V*    ????E    UUO00	0,16612
022655  126272 637670    *RZS^X    ?KV?\    XX126	5,@637670(12)
022656  000000 023000       "8     ???&?    UUO00	0,23000
022657  513105 762576    I9%^5^    Rd/e?    HLLZS	2,762576(5)
022660  000000 004000        @     ?????    UUO00	0,4000
022661  132334 246120    +3<4Q0    ?MbL(    FSC	6,@246120(14)
022662  000000 015337       !K?    ????o    UUO00	0,15337
022663  124365 340060    *CU< P    ??+@?    XX124	7,@340060(5)
022664  000000 022701       "7!    ???%`    UUO00	0,22701
022665  113773 522200    )?[J2     ??]$@    XX113	17,@522200(13)
022666  000000 023522       "=2    ???')    UUO00	0,23522
022667  110672 751362    )&Z]+R    ??WRy    XX110	15,@751362(12)
022670  000000 017312       ![*    ????e    UUO00	0,17312
022671  115314 604134    )K,PA<    ?,f?.    XX115	6,604134(14)
022672  000000 021243       "*C    ???"Q    UUO00	0,21243
022673  125512 344570    *M*<EX    ?4SI<    XX125	12,344570(12)
022674  000000 016266       !RV    ????[    UUO00	0,16266
022675  116757 531063    )WOK(S    ?^}2?    XX116	17,531063(17)
022676  000000 022335       "3=    ???$n    UUO00	0,22335
022677  110747 707063    )'GXXS    ?????    XX110	17,707063(7)
022700  000000 023714       "?,    ???'f    UUO00	0,23714
022701  126257 105400    *RO(L     ?Jy??    XX126	5,105400(17)
022702  000000 014734       !G<    ????n    UUO00	0,14734
022703  510513 570000    I%+O      R?]p?    HLLZ	12,570000(13)
022704  000000 040000       $      ???@?    UUO00	0,40000
022705  111070 747377    )(X\[_    ?#GN?    XX111	1,@747377(10)
022706  000000 021103       ")#    ???"!    UUO00	0,21103
022707  126377 272205    *S_72%    ?OztB    XX126	7,@272205(17)
022710  000000 023653       ">K    ???'U    UUO00	0,23653
022711  111654 606710    ).LPW(    ?:f?d    XX111	15,606710(14)
022712  000000 015001       !H!    ?????    UUO00	0,15001
022713  110541 234176    )%A3A^    ???8?    XX110	13,234176(1)
022714  000000 023125       "95    ???&*    UUO00	0,23125
022715  110611 327463    )&):\S    ??K/?    XX110	14,327463(11)
022716  000000 014773       !G[    ????}    UUO00	0,14773
022717  113776 450000    )?^E      ??tP?    XX113	17,@450000(16)
022720  000000 021750       "/H    ???#t    UUO00	0,21750
022721  126303 674246    *S#WBF    ?L?xS    XX126	6,674246(3)
022722  000000 014770       !GX    ????|    UUO00	0,14770
022723  130764 656750    +'TUWH    ??&]t    XX130	17,@656750(4)
022724  000000 022041       "0A    ???$?    UUO00	0,22041
022725  136256 455300    +RNEK     ?JtZ`    IDPB	5,455300(16)
022726  000000 025607       "N'    ???+C    UUO00	0,25607
022727  124046 207015    *@F0X-    ??2??    XX124	1,207015(6)
022730  000000 014721       !G1    ????h    UUO00	0,14721
022731  115212 421576    )J*B-^    ?(T#?    XX115	4,421576(12)
022732  000000 015132       !I:    ????-    UUO00	0,15132
022733  115435 426623    )L=BV3    ?1l-I    XX115	10,@426623(15)
022734  000000 021643       ".C    ???#Q    UUO00	0,21643
022735  115435 425313    )L=BK+    ?1l*e    XX115	10,@425313(15)
022736  000000 021616       "..    ???#G    UUO00	0,21616
022737  113036 164360    )8>.CP    ?aqhx    XX113	0,@164360(16)
022740  000000 015267       !JW    ????[    UUO00	0,15267
022741  110473 353113    )$[=9+    ??[V%    XX110	11,@353113(13)
022742  000000 024134       "A<    ???(.    UUO00	0,24134
022743  111066 421765    )(VB/U    ?#4#z    XX111	1,@421765(6)
022744  000000 024603       "F#    ???)A    UUO00	0,24603
022745  115435 373770    )L=??X    ?1kw|    XX115	10,@373770(15)
022746  000000 021565       "-U    ???#:    UUO00	0,21565
022747  122626 361000    *66>(     ?Y3b?    XX122	14,@361000(6)
022750  000000 020702       "'"    ???!a    UUO00	0,20702
022751  110611 325630    )&):N8    ??K+L    XX110	14,325630(11)
022752  000000 017510       !](    ????$    UUO00	0,17510
022753  124211 220720    *B)2'0    ??J!h    XX124	4,220720(11)
022754  000000 023200       ":     ???&@    UUO00	0,23200
022755  515315 553565    IK-M=U    S,mW:    HRLZI	6,553565(15)
022756  000000 001000        (     ?????    UUO00	0,1000
022757  125475 015430    *L]!L8    ?3h??    XX125	11,@15430(15)
022760  000000 016222       !R2    ????I    UUO00	0,16222
022761  503457 567600    H<ON^     Pr}o@    HLLS	11,567600(17)
022762  000000 600000       P      ?????    UUO00	0,600000
022763  115435 425005    )L=BH%    ?1l*?    XX115	10,@425005(15)
022764  000000 021521       "-1    ???#(    UUO00	0,21521
022765  121116 203500    *).0=     ?$r?     XX121	2,203500(16)
022766  000000 023034       "8<    ???&?    UUO00	0,23034
022767  115212 506163    )J*HQS    ?(U?9    XX115	4,506163(12)
022770  000000 022245       "2E    ???$R    UUO00	0,22245
022771  124246 652530    *BFU58    ??6U,    XX124	5,652530(6)
022772  000000 016121       !Q1    ????(    UUO00	0,16121
022773  124304 474756    *C$GGN    ??$yw    XX124	6,474756(4)
022774  000000 015041       !HA    ?????    UUO00	0,15041
022775  130161 210150    +!Q1!H    ????4    XX130	3,@210150(1)
022776  000000 016501       !U!    ????     UUO00	0,16501
022777  126744 030000    *WD#      ?^ 0?    XX126	17,30000(4)
023000  000000 014713       !G+    ????e    UUO00	0,14713
023001  513701 477440    I?!G\@    R|???    HLLZS	16,477440(1)
023002  000000 000012         *    ?????    UUO00	0,12
023003  126633 562622    *V;N62    ?Y]eI    XX126	14,@562622(13)
023004  000000 023567       "=W    ???';    UUO00	0,23567
023005  515211 042000    IJ)$0     S(HD?    HRLZI	4,42000(11)
023006  000000 000400        $     ?????    UUO00	0,400
023007  111065 263575    )(U6=]    ?#*g>    XX111	1,@263575(5)
023010  000000 025003       "H#    ???*?    UUO00	0,25003
023011  135727 575300    +O7OK     ?==z`    LDB	16,@575300(7)
023012  000000 025742       "OB    ???+q    UUO00	0,25742
023013  127141 560350    *YAN#H    ?f?`t    XX127	3,560350(1)
023014  000000 024301       "C!    ???(`    UUO00	0,24301
023015  125512 544620    *M*LF0    ?4UIH    XX125	12,544620(12)
023016  000000 015625       !N5    ????J    UUO00	0,15625
023017  112143 523520    )1CJ=0    ?F?'(    XX112	3,523520(3)
023020  000000 014702       !G"    ????a    UUO00	0,14702
023021  110611 326214    )&):R,    ??K,F    XX110	14,326214(11)
023022  000000 017653       !^K    ????U    UUO00	0,17653
023023  124211 210362    *B)1#R    ??J?y    XX124	4,210362(11)
023024  000000 023206       ":&    ???&C    UUO00	0,23206
023025  110570 065523    )%X&M3    ??@k)    XX110	13,@65523(10)
023026  000000 024571       "EY    ???)<    UUO00	0,24571
023027  115435 571160    )L=O)P    ?1mr8    XX115	10,@571160(15)
023030  000000 022215       "2-    ???$F    UUO00	0,22215
023031  117033 753000    )X;]8     ?a_V?    XX117	0,@753000(13)
023032  000000 015007       !H'    ?????    UUO00	0,15007
023033  110541 234040    )%A3@@    ???8?    XX110	13,234040(1)
023034  000000 023132       "9:    ???&-    UUO00	0,23132
023035  512142 465000    I1BFH     RF?j?    HLLZM	3,465000(2)
023036  000000 000000              ?????    UUO00	0,0
023037  123533 612733    *=;Q7;    ?u^?m    XX123	12,@612733(13)
023040  000000 021325       "+5    ???"j    UUO00	0,21325
023041  110473 352200    )$[=2     ??[T@    XX110	11,@352200(13)
023042  000000 024244       "BD    ???(R    UUO00	0,24244
023043  126633 534150    *V;KAH    ?Y]84    XX126	14,@534150(13)
023044  000000 016320       !S0    ????h    UUO00	0,16320
023045  113777 434000    )?_C@     ??|8?    XX113	17,@434000(17)
023046  000000 022005       "0%    ???$?    UUO00	0,22005
023047  115212 504360    )J*HCP    ?(U?x    XX115	4,504360(12)
023050  000000 021666       ".V    ???#[    UUO00	0,21666
023051  121121 221500    *)12-     ?%?#     XX121	2,@221500(1)
023052  000000 000013         +    ?????    UUO00	0,13
023053  126305 251060    *S%5(P    ?L*R?    XX126	6,251060(5)
023054  000000 017320       ![0    ????h    UUO00	0,17320
023055  113777 237000    )?_3X     ??z>?    XX113	17,@237000(17)
023056  000000 022020       "00    ???$?    UUO00	0,22020
023057  110541 233770    )%A3?X    ???7|    XX110	13,233770(1)
023060  000000 023241       ":A    ???&P    UUO00	0,23241
023061  115435 424720    )L=BG0    ?1l)h    XX115	10,@424720(15)
023062  000000 021532       "-:    ???#-    UUO00	0,21532
023063  131557 517175    +-OIY]    ?6}?>    XX131	13,517175(17)
023064  000000 014711       !G)    ????d    UUO00	0,14711
023065  526421 765000    JT1^H     UQ?j?    HRLOM	10,@765000(1)
023066  000000 100000       (      ?????    UUO00	0,100000
023067  522732 270610    J7:7&(    T]RqD    HLLOM	16,@270610(12)
023070  000000 000100        !     ????     UUO00	0,100
023071  110611 325717    )&):O/    ??K+g    XX110	14,325717(11)
023072  000000 017520       !]0    ????(    UUO00	0,17520
023073  121145 247171    *)E4YY    ?&*N<    XX121	3,247171(5)
023074  000000 021244       "*D    ???"R    UUO00	0,21244
023075  114152 000000    )AJ       ??P??    XX114	3,0(12)
023076  000000 000014         ,    ?????    UUO00	0,14
023077  122723 417262    *73AZR    ?]??Y    XX122	16,@417262(3)
023100  000000 015641       !NA    ????P    UUO00	0,15641
023101  122073 003224    *0[ :4    ?CX?J    XX122	1,@3224(13)
023102  000000 016470       !TX    ?????    UUO00	0,16470
023103  122664 205210    *6T0J(    ?["?D    XX122	15,@205210(4)
023104  000000 014753       !GK    ????u    UUO00	0,14753
023105  115435 401042    )L=@(B    ?1l??    XX115	10,@401042(15)
023106  000000 021677       "._    ???#_    UUO00	0,21677
023107  110715 634322    )'-SC2    ??n8i    XX110	16,634322(15)
023110  000000 024401       "D!    ???)?    UUO00	0,24401
023111  114577 206515    )E_0U-    ??z?&    XX114	13,@206515(17)
023112  000000 015061       !HQ    ?????    UUO00	0,15061
023113  111070 747363    )(X\[S    ?#GNy    XX111	1,@747363(10)
023114  000000 015073       !H[    ?????    UUO00	0,15073
023115  524317 070550    JC/'%H    U?xq4    HRLO	6,70550(17)
023116  000000 040000       $      ???@?    UUO00	0,40000
023117  526302 707060    JS"XXP    UL???    HRLOM	6,707060(2)
023120  000000 000200        "     ????@    UUO00	0,200
023121  125720 346210    *O0<R(    ?=?LD    XX125	16,@346210
023122  000000 015501       !M!    ????     UUO00	0,15501
023123  113760 335142    )?P;IB    ???:1    XX113	17,@335142
023124  000000 021404       ",$    ???#?    UUO00	0,21404
023125  113644 160166    )>D.!V    ?z!`;    XX113	15,160166(4)
023126  000000 027203       "Z#    ???.A    UUO00	0,27203
023127  526633 473500    JV;G=     UY\w     HRLOM	14,@473500(13)
023130  000000 100000       (      ?????    UUO00	0,100000
023131  503525 671670    H=5W.X    Pu.s\    HLLS	12,@671670(5)
023132  000000 002000        0     ?????    UUO00	0,2000
023133  125517 441474    *M/D,\    ?4|C?    XX125	12,441474(17)
023134  000000 015063       !HS    ?????    UUO00	0,15063
023135  115315 514660    )K-IFP    ?,m?X    XX115	6,514660(15)
023136  000000 014766       !GV    ????{    UUO00	0,14766
023137  115212 421063    )J*B(S    ?(T"?    XX115	4,421063(12)
023140  000000 015166       !IV    ????;    UUO00	0,15166
023141  115330 740160    )K8\!P    ?-G@8    XX115	6,@740160(10)
023142  000000 015312       !K*    ????e    UUO00	0,15312
023143  126305 250120    *S%5!0    ?L*P(    XX126	6,250120(5)
023144  000000 020610       "&(    ???!D    UUO00	0,20610
023145  126633 477053    *V;GXK    ?Y\~?    XX126	14,@477053(13)
023146  000000 024007       "@'    ???(?    UUO00	0,24007
023147  122626 361004    *66>($    ?Y3b?    XX122	14,@361004(6)
023150  000000 020713       "'+    ???!e    UUO00	0,20713
023151  131557 366000    +-O>P     ?6{l?    XX131	13,366000(17)
023152  000000 014710       !G(    ????d    UUO00	0,14710
023153  117041 610100    )XAQ!     ?b??     XX117	1,610100(1)
023154  000000 014764       !GT    ????z    UUO00	0,14764
023155  113535 552300    )==M3     ?umT`    XX113	12,@552300(15)
023156  000000 022504       "5$    ???%"    UUO00	0,22504
023157  126263 374720    *RS?G0    ?K?yh    XX126	5,@374720(3)
023160  000000 016053       !PK    ?????    UUO00	0,16053
023161  110611 326020    )&):P0    ??K,?    XX110	14,326020(11)
023162  000000 017560       !]P    ????8    UUO00	0,17560
023163  110310 700000    )#(X      ??G??    XX110	6,700000(10)
023164  000000 000004         $    ?????    UUO00	0,4
023165  110701 014227    )'!!B7    ????K    XX110	16,14227(1)
023166  000000 024365       "CU    ???(z    UUO00	0,24365
023167  512133 246600    I1;4V     REZM@    HLLZM	2,@246600(13)
023170  000000 000001         !    ?????    UUO00	0,1
023171  110666 610120    )&VQ!0    ??6?(    XX110	15,@610120(6)
023172  000000 015343       !KC    ????q    UUO00	0,15343
023173  110541 233600    )%A3>     ???7@    XX110	13,233600(1)
023174  000000 023121       "91    ???&(    UUO00	0,23121
023175  110747 064150    )'G&AH    ??8h4    XX110	17,64150(7)
023176  000000 023707       "?'    ???'c    UUO00	0,23707
023177  125713 571300    *O+O+     ?<]r`    XX125	16,571300(13)
023200  000000 016024       !P4    ?????    UUO00	0,16024
023201  123307 315110    *;'9I(    ?l;?$    XX123	6,315110(7)
023202  000000 014725       !G5    ????j    UUO00	0,14725
023203  124365 340110    *CU<!(    ??+@$    XX124	7,@340110(5)
023204  000000 022542       "5B    ???%1    UUO00	0,22542
023205  111071 326714    )(Y:W,    ?#K-f    XX111	1,@326714(11)
023206  000000 023221       ":1    ???&H    UUO00	0,23221
023207  126476 412000    *T^A0     ?St??    XX126	11,@412000(16)
023210  000000 026044       "PD    ???,?    UUO00	0,26044
023211  124246 700225    *BFX"5    ??7?J    XX124	5,700225(6)
023212  000000 016053       !PK    ?????    UUO00	0,16053
023213  124246 670520    *BFW%0    ??6q(    XX124	5,670520(6)
023214  000000 022030       "08    ???$?    UUO00	0,22030
023215  110503 437620    )%#C^0    ????H    XX110	12,437620(3)
023216  000000 023314       ";,    ???&f    UUO00	0,23314
023217  121015 660013    *(-V +    ? n`?    XX121	0,660013(15)
023220  000000 020565       "%U    ???!:    UUO00	0,20565
023221  124070 565000    *@XNH     ??Ej?    XX124	1,@565000(10)
023222  000000 017036       !X>    ?????    UUO00	0,17036
023223  112320 147751    )30,_I    ?M?Ot    XX112	6,@147751
023224  000000 020152       "!J    ??? 5    UUO00	0,20152
023225  126305 014003    *S%!@#    ?L(??    XX126	6,14003(5)
023226  000000 017334       ![<    ????n    UUO00	0,17334
023227  126635 160132    *V=.!:    ?Yi`-    XX126	14,@160132(15)
023230  000000 014757       !GO    ????w    UUO00	0,14757
023231  522031 654360    J09UCP    TANXx    HLLOM	0,@654360(11)
023232  000000 003000        8     ?????    UUO00	0,3000
023233  124046 207020    *@F0X0    ??2??    XX124	1,207020(6)
023234  000000 021364       "+T    ???"z    UUO00	0,21364
023235  114000 223000    )@ 28     ???&?    XX114	0,223000
023236  000000 022034       "0<    ???$?    UUO00	0,22034
023237  111065 261470    )(U6,X    ?#*c?    XX111	1,@261470(5)
023240  000000 024702       "G"    ???)a    UUO00	0,24702
023241  127141 560420    *YAN$0    ?f?a?    XX127	3,560420(1)
023242  000000 024152       "AJ    ???(5    UUO00	0,24152
023243  121606 776270    *.&_RX    ?87|\    XX121	14,776270(6)
023244  000000 016626       !V6    ????K    UUO00	0,16626
023245  110645 715620    )&EYN0    ??/?H    XX110	15,715620(5)
023246  000000 023346       ";F    ???&s    UUO00	0,23346
023247  126305 251064    *S%5(T    ?L*R?    XX126	6,251064(5)
023250  000000 017352       ![J    ????u    UUO00	0,17352
023251  523447 445660    J<GDNP    Tr<KX    HLLOS	11,445660(7)
023252  000000 200000       0      ?????    UUO00	0,200000
023253  116757 575400    )WOOL     ?^}{?    XX116	17,575400(17)
023254  000000 022355       "3M    ???$v    UUO00	0,22355
023255  123254 041136    *:L$)>    ?j`B/    XX123	5,41136(14)
023256  000000 023574       "=\    ???'>    UUO00	0,23574
023257  114602 654530    )F"UE8    ???Y,    XX114	14,654530(2)
023260  000000 022136       "1>    ???$/    UUO00	0,22136
023261  521122 441051    J)2D(I    T%?B?    HLLOI	2,@441051(2)
023262  000000 000000              ?????    UUO00	0,0
023263  123533 661566    *=;V-V    ?u^c;    XX123	12,@661566(13)
023264  000000 022424       "44    ???%?    UUO00	0,22424
023265  123453 023720    *<K"?0    ?rX'h    XX123	11,23720(13)
023266  000000 014730       !G8    ????l    UUO00	0,14730
023267  110473 352702    )$[=7"    ??[Ua    XX110	11,@352702(13)
023270  000000 024276       "B^    ???(_    UUO00	0,24276
023271  136103 125300    +Q#*K     ?D?*`    IDPB	2,125300(3)
023272  000000 025472       "LZ    ???+?    UUO00	0,25472
023273  115751 671200    )OIW*     ?>Nr@    XX115	17,671200(11)
023274  000000 022056       "0N    ???$?    UUO00	0,22056
023275  115435 425663    )L=BNS    ?1l+Y    XX115	10,@425663(15)
023276  000000 021477       ",_    ???#?    UUO00	0,21477
023277  131562 637363    +-RS[S    ?7?>y    XX131	13,@637363(2)
023300  000000 017106       !Y&    ????#    UUO00	0,17106
023301  503366 722000    H;VZ0     Po7$?    HLLS	7,@722000(6)
023302  000000 004000        @     ?????    UUO00	0,4000
023303  113760 373570    )?P?=X    ???w<    XX113	17,@373570
023304  000000 021310       "+(    ???"d    UUO00	0,21310
023305  531557 450000    K-OE      V6|P?    HLLEI	13,450000(17)
023306  000000 000400        $     ?????    UUO00	0,400
023307  126553 513240    *UKI:@    ?V]?P    XX126	13,513240(13)
023310  000000 016274       !R\    ????^    UUO00	0,16274
023311  521030 270000    J(87      T!Bp?    HLLOI	0,@270000(10)
023312  000000 140000       ,      ???@?    UUO00	0,140000
023313  135623 305300    +N38K     ?9??`    LDB	14,@305300(3)
023314  000000 025767       "OW    ???+{    UUO00	0,25767
023315  123533 706160    *=;XQP    ?u_?8    XX123	12,@706160(13)
023316  000000 022423       "43    ???%?    UUO00	0,22423
023317  121606 772300    *.&_3     ?87t`    XX121	14,772300(6)
023320  000000 016622       !V2    ????I    UUO00	0,16622
023321  127351 200144    *[I0!D    ?nJ?2    XX127	7,200144(11)
023322  000000 027203       "Z#    ???.A    UUO00	0,27203
023323  115435 332312    )L=;3*    ?1k4e    XX115	10,@332312(15)
023324  000000 021506       "-&    ???##    UUO00	0,21506
023325  110736 067720    )'>&_0    ??poh    XX110	16,@67720(16)
023326  000000 023413       "<+    ???'?    UUO00	0,23413
023327  125722 417400    *O2A\     ?=???    XX125	16,@417400(2)
023330  000000 015365       !KU    ????z    UUO00	0,15365
023331  112104 507202    )1$HZ"    ?D%?A    XX112	2,507202(4)
023332  000000 023664       ">T    ???'Z    UUO00	0,23664
023333  110611 325713    )&):O+    ??K+e    XX110	14,325713(11)
023334  000000 017535       !]=    ????.    UUO00	0,17535
023335  125474 763500    *L\^=     ?3gg     XX125	11,@763500(14)
023336  000000 022721       "71    ???%h    UUO00	0,22721
023337  121727 763112    */7^9*    ?=?f%    XX121	16,@763112(7)
023340  000000 015211       !J)    ????D    UUO00	0,15211
023341  122723 417266    *73AZV    ?]??[    XX122	16,@417266(3)
023342  000000 015573       !M[    ????=    UUO00	0,15573
023343  115424 403733    )L4@?;    ?1$?m    XX115	10,@403733(4)
023344  000000 016724       !W4    ????j    UUO00	0,16724
023345  122073 003220    *0[ :0    ?CX?H    XX122	1,@3220(13)
023346  000000 016336       !S>    ????o    UUO00	0,16336
023347  111004 166640    )($.V@    ? !mP    XX111	0,166640(4)
023350  000000 020442       "$B    ???!?    UUO00	0,20442
023351  113777 301300    )?_8+     ??{?`    XX113	17,@301300(17)
023352  000000 022022       "02    ???$?    UUO00	0,22022
023353  525511 157500    JM)-]     U4I_     HRLOI	12,157500(11)
023354  000000 004000        @     ?????    UUO00	0,4000
023355  125714 513000    *O,I8     ?<e??    XX125	16,513000(14)
023356  000000 015437       !L?    ?????    UUO00	0,15437
023357  111035 075256    )(='JN    ?!hzW    XX111	0,@75256(15)
023360  000000 023356       ";N    ???&w    UUO00	0,23356
023361  112332 227640    )3:2^@    ?MR/P    XX112	6,@227640(12)
023362  000000 023742       "?B    ???'q    UUO00	0,23742
023363  121265 505740    **UHO@    ?+-?p    XX121	5,@505740(5)
023364  000000 014715       !G-    ????f    UUO00	0,14715
023365  110566 241062    )%V4(R    ??2B?    XX110	13,@241062(6)
023366  000000 017260       !ZP    ????X    UUO00	0,17260
023367  136325 515300    +S5IK     ?M-?`    IDPB	6,@515300(5)
023370  000000 025643       "NC    ???+Q    UUO00	0,25643
023371  115330 740040    )K8\ @    ?-G@?    XX115	6,@740040(10)
023372  000000 015277       !J_    ????_    UUO00	0,15277
023373  110525 266420    )%56T0    ??*m?    XX110	12,@266420(5)
023374  000000 016757       !WO    ????w    UUO00	0,16757
023375  124365 337600    *CU;^     ??+?@    XX124	7,@337600(5)
023376  000000 022526       "56    ???%+    UUO00	0,22526
023377  111067 561120    )(WN)0    ?#=b(    XX111	1,@561120(7)
023400  000000 023435       "<=    ???'?    UUO00	0,23435
023401  127443 041533    *\C$-;    ?r?C-    XX127	11,41533(3)
023402  000000 023621       ">1    ???'H    UUO00	0,23621
023403  136221 225300    +R12K     ?I?*`    IDPB	4,@225300(1)
023404  000000 025562       "MR    ???+9    UUO00	0,25562
023405  122055 061404    *0M&,$    ?Bhc?    XX122	1,61404(15)
023406  000000 016157       !QO    ????7    UUO00	0,16157
023407  115212 421067    )J*B(W    ?(T"?    XX115	4,421067(12)
023410  000000 015147       !IG    ????3    UUO00	0,15147
023411  126263 440676    *RSD&^    ?K?A_    XX126	5,@440676(3)
023412  000000 016042       !PB    ?????    UUO00	0,16042
023413  112317 626000    )3/RP     ?L~,?    XX112	6,626000(17)
023414  000000 017656       !^N    ????W    UUO00	0,17656
023415  112320 234764    )303GT    ?M?9z    XX112	6,@234764
023416  000000 020742       "'B    ???!q    UUO00	0,20742
023417  126305 245070    *S%4HX    ?L*J?    XX126	6,245070(5)
023420  000000 020670       "&X    ???!\    UUO00	0,20670
023421  126263 440162    *RSD!R    ?K?@9    XX126	5,@440162(3)
023422  000000 016040       !P@    ?????    UUO00	0,16040
023423  115434 635720    )L<SO0    ?1f;h    XX115	10,@635720(14)
023424  000000 015411       !L)    ?????    UUO00	0,15411
023425  112133 246720    )1;4W0    ?EZMh    XX112	2,@246720(13)
023426  000000 024605       "F%    ???)B    UUO00	0,24605
023427  113536 040010    )=>$ (    ?up@?    XX113	12,@40010(16)
023430  000000 022512       "5*    ???%%    UUO00	0,22512
023431  111065 261540    )(U6-@    ?#*c0    XX111	1,@261540(5)
023432  000000 024724       "G4    ???)j    UUO00	0,24724
023433  121201 341440    **!<,@    ?(?C?    XX121	4,341440(1)
023434  000000 015077       !H_    ?????    UUO00	0,15077
023435  113204 514000    ):$I@     ?h%??    XX113	4,514000(4)
023436  000000 021711       "/)    ???#d    UUO00	0,21711
023437  112333 377410    )3;?\(    ?M[??    XX112	6,@377410(13)
023440  000000 020752       "'J    ???!u    UUO00	0,20752
023441  126551 346310    *UI<S(    ?VKLd    XX126	13,346310(11)
023442  000000 024475       "D]    ???)?    UUO00	0,24475
023443  114504 260436    )E$6$>    ??"a?    XX114	12,260436(4)
023444  000000 014716       !G.    ????g    UUO00	0,14716
023445  121121 223260    *)12:P    ?%?&X    XX121	2,@223260(1)
023446  000000 014750       !GH    ????t    UUO00	0,14750
023447  121264 160122    **T.!2    ?+!`)    XX121	5,@160122(4)
023450  000000 020354       "#L    ??? v    UUO00	0,20354
023451  113760 335224    )?P;J4    ???:J    XX113	17,@335224
023452  000000 021351       "+I    ???"t    UUO00	0,21351
023453  125512 345473    *M*<L[    ?4SK?    XX125	12,345473(12)
023454  000000 016236       !R>    ????O    UUO00	0,16236
023455  130764 654300    +'TUC     ??&X`    XX130	17,@654300(4)
023456  000000 022042       "0B    ???$?    UUO00	0,22042
023457  113773 634240    )?[SB@    ??^8P    XX113	17,@634240(13)
023460  000000 023472       "<Z    ???'?    UUO00	0,23472
023461  136207 415300    +R'AK     ?H<?`    IDPB	4,415300(7)
023462  000000 025553       "MK    ???+5    UUO00	0,25553
023463  512763 110000    I7S)      R_???    HLLZM	17,@110000(3)
023464  000000 000010         (    ?????    UUO00	0,10
023465  112226 526246    )26JRF    ?I5,S    XX112	4,@526246(6)
023466  000000 015076       !H^    ?????    UUO00	0,15076
023467  113750 231016    )?H3(.    ?~B2?    XX113	17,231016(10)
023470  000000 015055       !HM    ?????    UUO00	0,15055
023471  112763 224060    )7S2@P    ?_?(?    XX112	17,@224060(3)
023472  000000 017001       !X!    ?????    UUO00	0,17001
023473  110762 524770    )'RJGX    ???)|    XX110	17,@524770(2)
023474  000000 023675       ">]    ???'^    UUO00	0,23675
023475  124211 233711    *B)3?)    ??J7d    XX124	4,233711(11)
023476  000000 021703       "/#    ???#a    UUO00	0,21703
023477  136337 325300    +S?:K     ?M{*`    IDPB	6,@325300(17)
023500  000000 025652       "NJ    ???+U    UUO00	0,25652
023501  127301 313200    *[!9:     ?l??@    XX127	6,313200(1)
023502  000000 015010       !H(    ?????    UUO00	0,15010
023503  125720 346070    *O0<PX    ?=?L?    XX125	16,@346070
023504  000000 015402       !L"    ?????    UUO00	0,15402
023505  121606 770070    *.&_ X    ?87p?    XX121	14,770070(6)
023506  000000 016600       !V     ????@    UUO00	0,16600
023507  527351 200165    J[I0!U    UnJ?:    HRLOS	7,200165(11)
023510  000000 000001         !    ?????    UUO00	0,1
023511  121265 503600    **UH>     ?+-?@    XX121	5,@503600(5)
023512  000000 014714       !G,    ????f    UUO00	0,14714
023513  125512 344760    *M*<GP    ?4SIx    XX125	12,344760(12)
023514  000000 016255       !RM    ????V    UUO00	0,16255
023515  130764 656120    +'TUQ0    ??&\(    XX130	17,@656120(4)
023516  000000 022040       "0@    ???$?    UUO00	0,22040
023517  115212 507256    )J*HZN    ?(U?W    XX115	4,507256(12)
023520  000000 022147       "1G    ???$3    UUO00	0,22147
023521  111066 210267    )(V1"W    ?#2?[    XX111	1,@210267(6)
023522  000000 022137       "1?    ???$/    UUO00	0,22137
023523  517003 050165    IX#%!U    S`?P:    HRLZS	0,50165(3)
023524  000000 200000       0      ?????    UUO00	0,200000
023525  111004 166520    )($.U0    ? !m(    XX111	0,166520(4)
023526  000000 020470       "$X    ???!?    UUO00	0,20470
023527  122073 003234    *0[ :<    ?CX?N    XX122	1,@3234(13)
023530  000000 016342       !SB    ????q    UUO00	0,16342
023531  112307 607673    )3'P^[    ?L>?]    XX112	6,607673(7)
023532  000000 020125       "!5    ??? *    UUO00	0,20125
023533  111654 362160    ).L>1P    ?:cd8    XX111	15,362160(14)
023534  000000 024714       "G,    ???)f    UUO00	0,24714
023535  115435 425730    )L=BO8    ?1l+l    XX115	10,@425730(15)
023536  000000 021647       ".G    ???#S    UUO00	0,21647
023537  125474 734436    *L\[D>    ?3g9?    XX125	11,@734436(14)
023540  000000 017372       ![Z    ????}    UUO00	0,17372
023541  124037 050020    *@?% 0    ??xP?    XX124	0,@50020(17)
023542  000000 025162       "IR    ???*9    UUO00	0,25162
023543  021607 117522    ".')]2    ?89?)    UUO21	14,117522(7)
023544  014702 002457    !G" 4O    ?????    UUO14	16,2457(2)
023545  110310 700000    )#(X      ??G??    XX110	6,700000(10)
023546  000000 000004         $    ?????    UUO00	0,4
023547  111117 400000    ))/@      ?$|??    XX111	2,400000(17)
023550  000000 000005         %    ?????    UUO00	0,5
023551  111726 100000    )/6(      ?=1??    XX111	16,@100000(6)
023552  000000 000006         &    ?????    UUO00	0,6
023553  112534 600000    )5<P      ?Uf??    XX112	12,@600000(14)
023554  000000 000007         '    ?????    UUO00	0,7
023555  110715 555162    )'-MIR    ??mZ9    XX110	16,555162(15)
023556  000000 002472        4Z    ?????    UUO00	0,2472
023557  110715 631100    )'-S)     ??n2     XX110	16,631100(15)
023560  000000 002474        4\    ?????    UUO00	0,2474
023561  110715 555160    )'-MIP    ??mZ8    XX110	16,555160(15)
023562  000000 002507        5'    ????#    UUO00	0,2507
023563  110715 631102    )'-S)"    ??n2!    XX110	16,631102(15)
023564  000000 002511        5)    ????$    UUO00	0,2511
023565  127070 470700    *XXG'     ?cDq`    XX127	1,@470700(10)
023566  000000 002512        5*    ????%    UUO00	0,2512
023567  130170 550200    +!XM"     ??EP@    XX130	3,@550200(10)
023570  000000 002513        5+    ????%    UUO00	0,2513
023571  130170 556400    +!XMT     ??E]?    XX130	3,@556400(10)
023572  000000 002517        5/    ????'    UUO00	0,2517
023573  124154 232310    *AL33(    ??b4d    XX124	3,232310(14)
023574  000000 002523        53    ????)    UUO00	0,2523
023575  130165 141330    +!U,+8    ??)Bl    XX130	3,@141330(5)
023576  000000 002527        57    ????+    UUO00	0,2527
023577  130165 322310    +!U:3(    ??+$d    XX130	3,@322310(5)
023600  000000 002532        5:    ????-    UUO00	0,2532
023601  130165 141332    +!U,+:    ??)Bm    XX130	3,@141332(5)
023602  000000 002534        5<    ????.    UUO00	0,2534
023603  130165 141334    +!U,+<    ??)Bn    XX130	3,@141334(5)
023604  000000 002551        5I    ????4    UUO00	0,2551
023605  130165 141336    +!U,+>    ??)Bo    XX130	3,@141336(5)
023606  000000 002552        5J    ????5    UUO00	0,2552
023607  127070 507235    *XXHZ=    ?cE?N    XX127	1,@507235(10)
023610  000000 002554        5L    ????6    UUO00	0,2554
023611  127070 464436    *XXFD>    ?cDi?    XX127	1,@464436(10)
023612  000000 002555        5M    ????6    UUO00	0,2555
023613  127070 420200    *XXB"     ?cD @    XX127	1,@420200(10)
023614  000000 002556        5N    ????7    UUO00	0,2556
023615  127070 423300    *XXB;     ?cD&`    XX127	1,@423300(10)
023616  000000 002557        5O    ????7    UUO00	0,2557
023617  130165 141333    +!U,+;    ??)Bm    XX130	3,@141333(5)
023620  000000 002560        5P    ????8    UUO00	0,2560
023621  130165 141335    +!U,+=    ??)Bn    XX130	3,@141335(5)
023622  000000 002561        5Q    ????8    UUO00	0,2561
023623  124154 232313    *AL33+    ??b4e    XX124	3,232313(14)
023624  000000 002564        5T    ????:    UUO00	0,2564
023625  127070 431500    *XXC-     ?cD3     XX127	1,@431500(10)
023626  000000 002600        6     ????@    UUO00	0,2600
023627  127070 426400    *XXBT     ?cD-?    XX127	1,@426400(10)
023630  000000 002603        6#    ????A    UUO00	0,2603
023631  127070 476004    *XXGP$    ?cD|?    XX127	1,@476004(10)
023632  000000 002606        6&    ????C    UUO00	0,2606
023633  130166 134543    +!V+EC    ??191    XX130	3,@134543(6)
023634  000000 002613        6+    ????E    UUO00	0,2613
023635  130166 132603    +!V+6#    ??15A    XX130	3,@132603(6)
023636  000000 002617        6/    ????G    UUO00	0,2617
023637  124246 722566    *BFZ5V    ??7%;    XX124	5,722566(6)
023640  000000 002627        67    ????K    UUO00	0,2627
023641  117420 245112    )\04I*    ?q?J%    XX117	10,@245112
023642  000000 002640        6@    ????P    UUO00	0,2640
023643  117420 245110    )\04I(    ?q?J$    XX117	10,@245110
023644  000000 002642        6B    ????Q    UUO00	0,2642
023645  115347 613177    )KGQ9_    ?.>??    XX115	7,613177(7)
023646  000000 002652        6J    ????U    UUO00	0,2652
023647  130165 526314    +!UJS,    ??-,f    XX130	3,@526314(5)
023650  000000 002653        6K    ????U    UUO00	0,2653
023651  127351 262476    *[I64^    ?nJe?    XX127	7,262476(11)
023652  000000 002665        6U    ????Z    UUO00	0,2665
023653  127351 262442    *[I64B    ?nJe?    XX127	7,262442(11)
023654  000000 002667        6W    ????[    UUO00	0,2667
023655  117420 245113    )\04I+    ?q?J%    XX117	10,@245113
023656  000000 002703        7#    ????a    UUO00	0,2703
023657  125474 741735    *L\\/=    ?3gCn    XX125	11,@741735(14)
023660  000000 002707        7'    ????c    UUO00	0,2707
023661  125517 316000    *M/9P     ?4{??    XX125	12,316000(17)
023662  000000 002713        7+    ????e    UUO00	0,2713
023663  125517 327300    *M/:[     ?4{.`    XX125	12,327300(17)
023664  000000 002717        7/    ????g    UUO00	0,2717
023665  125517 335500    *M/;M     ?4{;     XX125	12,335500(17)
023666  000000 002721        71    ????h    UUO00	0,2721
023667  125517 447646    *M/D^F    ?4|OS    XX125	12,447646(17)
023670  000000 002723        73    ????i    UUO00	0,2723
023671  131554 040000    +-L$      ?6`@?    XX131	13,40000(14)
023672  000000 002737        7?    ????o    UUO00	0,2737
023673  131554 627000    +-LRX     ?6f.?    XX131	13,627000(14)
023674  000000 002746        7F    ????s    UUO00	0,2746
023675  131563 246600    +-S4V     ?7?M@    XX131	13,@246600(3)
023676  000000 002750        7H    ????t    UUO00	0,2750
023677  113733 330000    )?;;      ?}[0?    XX113	16,@330000(13)
023700  000000 002755        7M    ????v    UUO00	0,2755
023701  125505 055525    *M%%M5    ?4([*    XX125	12,55525(5)
023702  000000 002757        7O    ????w    UUO00	0,2757
023703  125675 347740    *N]<_@    ?;kOp    XX125	15,@347740(15)
023704  000000 002760        7P    ????x    UUO00	0,2760
023705  125476 377740    *L^?_@    ?3s?p    XX125	11,@377740(16)
023706  000000 002761        7Q    ????x    UUO00	0,2761
023707  125467 327010    *LW:X(    ?3;.?    XX125	11,@327010(7)
023710  000000 002762        7R    ????y    UUO00	0,2762
023711  125467 326620    *LW:V0    ?3;-H    XX125	11,@326620(7)
023712  000000 002763        7S    ????y    UUO00	0,2763
023713  131560 122460    +-P*4P    ?7?%?    XX131	13,@122460
023714  000000 002766        7V    ????{    UUO00	0,2766
023715  131346 155525    ++F-M5    ?.1[*    XX131	7,155525(6)
023716  000000 002770        7X    ????|    UUO00	0,2770
023717  131536 447740    +->D_@    ?5tOp    XX131	12,@447740(16)
023720  000000 002771        7Y    ????|    UUO00	0,2771
023721  131337 477740    ++?G_@    ?-|?p    XX131	6,@477740(17)
023722  000000 002772        7Z    ????}    UUO00	0,2772
023723  131330 427010    ++8BX(    ?-D.?    XX131	6,@427010(10)
023724  000000 002773        7[    ????}    UUO00	0,2773
023725  131330 426620    ++8BV0    ?-D-H    XX131	6,@426620(10)
023726  000000 002774        7\    ????~    UUO00	0,2774
023727  130171 241660    +!Y4.P    ??JCX    XX130	3,@241660(11)
023730  000000 002775        7]    ????~    UUO00	0,2775
023731  110715 543116    )'-L9.    ??mF'    XX110	16,543116(15)
023732  000000 003007        8'    ?????    UUO00	0,3007
023733  117045 464400    )XEFD     ?b,i?    XX117	1,464400(5)
023734  000000 003012        8*    ?????    UUO00	0,3012
023735  117045 464520    )XEFE0    ?b,i(    XX117	1,464520(5)
023736  000000 003015        8-    ?????    UUO00	0,3015
023737  111654 552745    ).LM7E    ?:eUr    XX111	15,552745(14)
023740  000000 003016        8.    ?????    UUO00	0,3016
023741  121210 522600    **(J6     ?(E%@    XX121	4,522600(10)
023742  000000 003025        85    ?????    UUO00	0,3025
023743  125626 410360    *N6A#P    ?94?x    XX125	14,@410360(6)
023744  000000 003034        8<    ?????    UUO00	0,3034
023745  121306 660200    *+&V"     ?,6`@    XX121	6,660200(6)
023746  000000 003050        8H    ?????    UUO00	0,3050
023747  123533 555500    *=;MM     ?u][     XX123	12,@555500(13)
023750  000000 003073        8[    ?????    UUO00	0,3073
023751  123533 552400    *=;M4     ?u]U?    XX123	12,@552400(13)
023752  000000 003113        9+    ????%    UUO00	0,3113
023753  121210 525046    **(JHF    ?(E*?    XX121	4,525046(10)
023754  000000 003120        90    ????(    UUO00	0,3120
023755  123533 673600    *=;W>     ?u^w@    XX123	12,@673600(13)
023756  000000 003127        97    ????+    UUO00	0,3127
023757  123533 547300    *=;L[     ?u]N`    XX123	12,@547300(13)
023760  000000 003134        9<    ????.    UUO00	0,3134
023761  121041 313760    *(A9?P    ?"??x    XX121	1,313760(1)
023762  000000 003140        9@    ????0    UUO00	0,3140
023763  121041 307770    *(A8_X    ?"??|    XX121	1,307770(1)
023764  000000 003146        9F    ????3    UUO00	0,3146
023765  126332 100754    *S:('L    ?MQ?v    XX126	6,@100754(12)
023766  000000 003150        9H    ????4    UUO00	0,3150
023767  121214 076500    **,'U     ?(`}     XX121	4,76500(14)
023770  000000 003161        9Q    ????8    UUO00	0,3161
023771  121214 076620    **,'V0    ?(`}H    XX121	4,76620(14)
023772  000000 003175        9]    ????>    UUO00	0,3175
023773  124246 670533    *BFW%;    ??6q-    XX124	5,670533(6)
023774  000000 003200        :     ????@    UUO00	0,3200
023775  126263 333311    *RS;;)    ?K?6d    XX126	5,@333311(3)
023776  000000 003224        :4    ????J    UUO00	0,3224
023777  126263 333310    *RS;;(    ?K?6d    XX126	5,@333310(3)
024000  000000 003225        :5    ????J    UUO00	0,3225
024001  113773 525300    )?[JK     ??]*`    XX113	17,@525300(13)
024002  000000 003231        :9    ????L    UUO00	0,3231
024003  113773 522200    )?[J2     ??]$@    XX113	17,@522200(13)
024004  000000 003232        ::    ????M    UUO00	0,3232
024005  125523 200604    *M30&$    ?5??B    XX125	12,@200604(3)
024006  000000 003233        :;    ????M    UUO00	0,3233
024007  124246 670520    *BFW%0    ??6q(    XX124	5,670520(6)
024010  000000 003235        :=    ????N    UUO00	0,3235
024011  112332 227640    )3:2^@    ?MR/P    XX112	6,@227640(12)
024012  000000 003236        :>    ????O    UUO00	0,3236
024013  134355 402300    +CM@3     ??l?`    ILDB	7,402300(15)
024014  000000 003237        :?    ????O    UUO00	0,3237
024015  134355 377200    +CM?Z     ??k~@    ILDB	7,377200(15)
024016  000000 003240        :@    ????P    UUO00	0,3240
024017  114451 005020    )DI H0    ??H??    XX114	11,5020(11)
024020  000000 003251        :I    ????T    UUO00	0,3251
024021  111752 707200    )/JXZ     ?>W?@    XX111	17,707200(12)
024022  000000 003251        :I    ????T    UUO00	0,3251
024023  114451 005034    )DI H<    ??H??    XX114	11,5034(11)
024024  000000 003257        :O    ????W    UUO00	0,3257
024025  114451 005140    )DI I@    ??H?0    XX114	11,5140(11)
024026  000000 003264        :T    ????Z    UUO00	0,3264
024027  114451 005210    )DI J(    ??H?D    XX114	11,5210(11)
024030  000000 003267        :W    ????[    UUO00	0,3267
024031  114451 005260    )DI JP    ??H?X    XX114	11,5260(11)
024032  000000 003300        ;     ????`    UUO00	0,3300
024033  114451 005400    )DI L     ??H??    XX114	11,5400(11)
024034  000000 003303        ;#    ????a    UUO00	0,3303
024035  114451 005330    )DI K8    ??H?l    XX114	11,5330(11)
024036  000000 003317        ;/    ????g    UUO00	0,3317
024037  114451 007040    )DI X@    ??H??    XX114	11,7040(11)
024040  000000 003336        ;>    ????o    UUO00	0,3336
024041  131432 115562    +,:)MR    ?1Q?9    XX131	10,@115562(12)
024042  000000 003352        ;J    ????u    UUO00	0,3352
024043  127310 602460    *[(P4P    ?lF??    XX127	6,602460(10)
024044  000000 003361        ;Q    ????x    UUO00	0,3361
024045  112264 170620    )2T/&0    ?K!qH    XX112	5,@170620(4)
024046  000000 003365        ;U    ????z    UUO00	0,3365
024047  123451 447622    *<ID^2    ?rLOI    XX123	11,447622(11)
024050  000000 003367        ;W    ????{    UUO00	0,3367
024051  134676 426400    +F^BT     ??t-?    ILDB	15,@426400(16)
024052  000000 003370        ;X    ????|    UUO00	0,3370
024053  123451 447624    *<ID^4    ?rLOJ    XX123	11,447624(11)
024054  000000 003416        <.    ?????    UUO00	0,3416
024055  112353 320011    )3K: )    ?N[ ?    XX112	7,320011(13)
024056  000000 003443        <C    ?????    UUO00	0,3443
024057  113773 530400    )?[K$     ??]1?    XX113	17,@530400(13)
024060  000000 003464        <T    ?????    UUO00	0,3464
024061  113773 533500    )?[K=     ??]7     XX113	17,@533500(13)
024062  000000 003465        <U    ?????    UUO00	0,3465
024063  112764 544700    )7TLG     ?_%I`    XX112	17,@544700(4)
024064  000000 003467        <W    ?????    UUO00	0,3467
024065  112764 545070    )7TLHX    ?_%J?    XX112	17,@545070(4)
024066  000000 003471        <Y    ?????    UUO00	0,3471
024067  114451 007136    )DI Y>    ??H?/    XX114	11,7136(11)
024070  000000 003504        =$    ????"    UUO00	0,3504
024071  130142 436720    +!BCW0    ???=h    XX130	3,436720(2)
024072  000000 003524        =4    ????*    UUO00	0,3524
024073  111752 710070    )/JY X    ?>W??    XX111	17,710070(12)
024074  000000 003527        =7    ????+    UUO00	0,3527
024075  130142 437040    +!BCX@    ???>?    XX130	3,437040(2)
024076  000000 003550        =H    ????4    UUO00	0,3550
024077  130142 437730    +!BC_8    ????l    XX130	3,437730(2)
024100  000000 003555        =M    ????6    UUO00	0,3555
024101  130142 436770    +!BCWX    ???=|    XX130	3,436770(2)
024102  000000 003561        =Q    ????8    UUO00	0,3561
024103  125626 410400    *N6A$     ?94??    XX125	14,@410400(6)
024104  000000 003602        >"    ????A    UUO00	0,3602
024105  112315 103760    )3-(?P    ?Li?x    XX112	6,103760(15)
024106  000000 003603        >#    ????A    UUO00	0,3603
024107  121264 337200    **T;Z     ?+#>@    XX121	5,@337200(4)
024110  000000 003604        >$    ????B    UUO00	0,3604
024111  114545 133100    )EE+9     ??)6     XX114	13,133100(5)
024112  000000 003605        >%    ????B    UUO00	0,3605
024113  131560 705730    +-PXO8    ?7??l    XX131	13,@705730
024114  000000 003606        >&    ????C    UUO00	0,3606
024115  130166 116740    +!V)W@    ??1?p    XX130	3,@116740(6)
024116  000000 003607        >'    ????C    UUO00	0,3607
024117  130146 420307    +!FB#'    ??4 c    XX130	3,420307(6)
024120  000000 003610        >(    ????D    UUO00	0,3610
024121  032624 272066    #6470V    ?Y"t?    UUO32	14,@272066(4)
024122  777002 772000    _X"_0     ?`?t?    BLKI	770,772000(2)
024123  127136 671200    *Y>W*     ?evr@    XX127	2,@671200(16)
024124  000000 003611        >)    ????D    UUO00	0,3611
024125  121264 301416    **T8,.    ?+#??    XX121	5,@301416(4)
024126  000000 003612        >*    ????E    UUO00	0,3612
024127  126316 333300    *S.;;     ?Ls6`    XX126	6,333300(16)
024130  000000 003613        >+    ????E    UUO00	0,3613
024131  121215 114546    **-)EF    ?(i?3    XX121	4,114546(15)
024132  000000 003614        >,    ????F    UUO00	0,3614
024133  131556 733330    +-N[;8    ?6w6l    XX131	13,733330(16)
024134  000000 003615        >-    ????F    UUO00	0,3615
024135  130226 505200    +"6HJ     ??5?@    XX130	4,@505200(6)
024136  000000 003620        >0    ????H    UUO00	0,3620
024137  114555 747740    )EM\_@    ??oOp    XX114	13,747740(15)
024140  000000 003621        >1    ????H    UUO00	0,3621
024141  134773 600001    +G[P !    ??^??    ILDB	17,@600001(13)
024142  000000 003624        >4    ????J    UUO00	0,3624
024143  110512 712310    )%*Y3(    ??W?d    XX110	12,712310(12)
024144  000000 003642        >B    ????Q    UUO00	0,3642
024145  127673 761000    *^[^(     ?{_b?    XX127	15,@761000(13)
024146  000000 003646        >F    ????S    UUO00	0,3646
024147  125462 351040    *LR=(@    ?3?R?    XX125	11,@351040(2)
024150  000000 003656        >N    ????W    UUO00	0,3656
024151  121215 113670    **-)>X    ?(i?\    XX121	4,113670(15)
024152  000000 003670        >X    ????\    UUO00	0,3670
024153  121215 114010    **-)@(    ?(i??    XX121	4,114010(15)
024154  000000 003673        >[    ????]    UUO00	0,3673
024155  121215 113620    **-)>0    ?(i?H    XX121	4,113620(15)
024156  000000 003717        ?/    ????g    UUO00	0,3717
024157  121215 113740    **-)?@    ?(i?p    XX121	4,113740(15)
024160  000000 003720        ?0    ????h    UUO00	0,3720
024161  125521 734540    *M1[E@    ?5?90    XX125	12,@734540(1)
024162  000000 007676        ^^    ????_    UUO00	0,7676
024163  131323 451040    ++3E(@    ?-?R?    XX131	6,@451040(3)
024164  000000 007676        ^^    ????_    UUO00	0,7676
024165  113035 242504    )8=45$    ?ajE"    XX113	0,@242504(15)
024166  000000 013676       !>^    ????_    UUO00	0,13676
024167  122024 406504    *04@U$    ?A$?"    XX122	0,@406504(4)
024170  000000 013702       !?"    ????a    UUO00	0,13702
024171  134773 600003    +G[P #    ??^??    ILDB	17,@600003(13)
024172  000000 014702       !G"    ????a    UUO00	0,14702
024173  110517 017140    )%/!Y@    ??x?0    XX110	12,17140(17)
024174  000000 000004         $    ?????    UUO00	0,4
024175  121121 567360    *)1N[P    ?%?nx    XX121	2,@567360(1)
024176  000000 000020         0    ?????    UUO00	0,20
024177  130222 344562    +"2<ER    ???I9    XX130	4,@344562(2)
024200  000000 002461        4Q    ?????    UUO00	0,2461
024201  013035 423773    !8=B?[    ?al'}    UUO13	0,@423773(15)
024202  002457 001631     4O .9    ?Rx?L    UUO02	11,1631(17)
024203  111117 400000    ))/@      ?$|??    XX111	2,400000(17)
024204  000000 000005         %    ?????    UUO00	0,5
024205  112211 166315    )2).S-    ?HIlf    XX112	4,166315(11)
024206  000000 002243        2C    ????Q    UUO00	0,2243
024207  112211 166260    )2).RP    ?HIlX    XX112	4,166260(11)
024210  000000 002244        2D    ????R    UUO00	0,2244
024211  113035 365356    )8=>KN    ?akjw    XX113	0,@365356(15)
024212  000000 002272        2Z    ????]    UUO00	0,2272
024213  113035 344370    )8=<CX    ?akH|    XX113	0,@344370(15)
024214  000000 002302        3"    ????a    UUO00	0,2302
024215  113035 344366    )8=<CV    ?akH{    XX113	0,@344366(15)
024216  000000 002305        3%    ????b    UUO00	0,2305
024217  113035 344367    )8=<CW    ?akH{    XX113	0,@344367(15)
024220  000000 002306        3&    ????c    UUO00	0,2306
024221  124246 635740    *BFSO@    ??6;p    XX124	5,635740(6)
024222  000000 002312        3*    ????e    UUO00	0,2312
024223  113035 344362    )8=<CR    ?akHy    XX113	0,@344362(15)
024224  000000 002315        3-    ????f    UUO00	0,2315
024225  113035 344363    )8=<CS    ?akHy    XX113	0,@344363(15)
024226  000000 002332        3:    ????m    UUO00	0,2332
024227  113035 344365    )8=<CU    ?akHz    XX113	0,@344365(15)
024230  000000 002337        3?    ????o    UUO00	0,2337
024231  113035 344372    )8=<CZ    ?akH}    XX113	0,@344372(15)
024232  000000 002343        3C    ????q    UUO00	0,2343
024233  113035 344364    )8=<CT    ?akHz    XX113	0,@344364(15)
024234  000000 002351        3I    ????t    UUO00	0,2351
024235  113173 313270    )9[9:X    ?g[?\    XX113	3,@313270(13)
024236  000000 002355        3M    ????v    UUO00	0,2355
024237  113035 344371    )8=<CY    ?akH|    XX113	0,@344371(15)
024240  000000 002360        3P    ????x    UUO00	0,2360
024241  111454 414610    ),LAF(    ?2d?D    XX111	11,414610(14)
024242  000000 002362        3R    ????y    UUO00	0,2362
024243  121121 201110    *)10)(    ?%??$    XX121	2,@201110(1)
024244  000000 002370        3X    ????|    UUO00	0,2370
024245  113172 563173    )9ZN9[    ?gUf=    XX113	3,@563173(12)
024246  000000 002371        3Y    ????|    UUO00	0,2371
024247  113172 563243    )9ZN:C    ?gUfQ    XX113	3,@563243(12)
024250  000000 002373        3[    ????}    UUO00	0,2373
024251  113035 350174    )8==!\    ?akP>    XX113	0,@350174(15)
024252  000000 002375        3]    ????~    UUO00	0,2375
024253  113035 347342    )8=<[B    ?akNq    XX113	0,@347342(15)
024254  000000 002413        4+    ?????    UUO00	0,2413
024255  113035 347343    )8=<[C    ?akNq    XX113	0,@347343(15)
024256  000000 002421        41    ?????    UUO00	0,2421
024257  112327 016300    )37!S     ?M8?`    XX112	6,@16300(7)
024260  000000 002450        4H    ?????    UUO00	0,2450
024261  113035 406644    )8=@VD    ?al?R    XX113	0,@406644(15)
024262  000000 002452        4J    ?????    UUO00	0,2452
024263  134773 600001    +G[P !    ??^??    ILDB	17,@600001(13)
024264  000000 002453        4K    ?????    UUO00	0,2453
024265  113035 350750    )8=='H    ?akQt    XX113	0,@350750(15)
024266  000000 001642        .B    ????Q    UUO00	0,1642
024267  534735 364000    KG=>@     W?kh?    HRLE	16,@364000(15)
024270  000000 001631        .9    ????L    UUO00	0,1631
024271  111453 501154    ),KH)L    ?2]?6    XX111	11,501154(13)
024272  000000 001641        .A    ????P    UUO00	0,1641
024273  010753 201544    !'K0-D    ??Z?2    UUO10	17,201544(13)
024274  001631 000100     .9 !     ?9H?     UUO01	14,@100(11)
024275  113550 016600    )=H!V     ?v@?@    XX113	13,16600(10)
024276  000000 000266        "V    ????[    UUO00	0,266
024277  123533 657200    *=;UZ     ?u^^@    XX123	12,@657200(13)
024300  000000 000264        "T    ????Z    UUO00	0,264
024301  112122 765000    )12^H     ?E?j?    XX112	2,@765000(2)
024302  000000 001610        .(    ????D    UUO00	0,1610
024303  114576 674200    )E^WB     ??vx@    XX114	13,@674200(16)
024304  000000 001235        *=    ????N    UUO00	0,1235
024305  127443 042274    *\C$2\    ?r?D^    XX127	11,42274(3)
024306  075000 000000    'H        ? ???    UUO75	0,0
024307  125465 515500    *LUIM     ?3-?     XX125	11,@515500(5)
024310  000000 000475        $]    ?????    UUO00	0,475
024311  114576 666000    )E^VP     ??vl?    XX114	13,@666000(16)
024312  000000 001232        *:    ????M    UUO00	0,1232
024313  513176 341370    I9^<+X    RgsB|    HLLZS	3,@341370(16)
024314  000000 000001         !    ?????    UUO00	0,1
024315  121607 033640    *.'#>@    ?887P    XX121	14,33640(7)
024316  000000 777777       ___    ?????    UUO00	0,777777
024317  124341 000120    *CA !0    ????(    XX124	7,120(1)
024320  000000 001227        *7    ????K    UUO00	0,1227
024321  112354 263060    )3L68P    ?Nbf?    XX112	7,263060(14)
024322  000000 000712        '*    ????e    UUO00	0,712
024323  125523 236000    *M33P     ?5?<?    XX125	12,@236000(3)
024324  000000 000151        !I    ????4    UUO00	0,151
024325  111453 504410    ),KHD(    ?2]??    XX111	11,504410(13)
024326  000000 001630        .8    ????L    UUO00	0,1630
024327  110473 434657    )$[CFO    ??\9W    XX110	11,@434657(13)
024330  000000 000320        #0    ????h    UUO00	0,320
024331  127203 242700    *Z#47     ?h?E`    XX127	4,242700(3)
024332  000000 001047        (G    ?????    UUO00	0,1047
024333  110715 543114    )'-L9,    ??mF&    XX110	16,543114(15)
024334  000000 000543        %C    ????1    UUO00	0,543
024335  127206 436200    *Z&CR     ?h4<@    XX127	4,436200(6)
024336  000000 001011        ()    ?????    UUO00	0,1011
024337  127203 431500    *Z#C-     ?h?3     XX127	4,431500(3)
024340  000000 001012        (*    ?????    UUO00	0,1012
024341  116772 111560    )WZ)-P    ?_Q?8    XX116	17,@111560(12)
024342  000000 000424        $4    ?????    UUO00	0,424
024343  124255 073500    *BM'=     ??hw     XX124	5,73500(15)
024344  000000 000464        $T    ?????    UUO00	0,464
024345  112137 252000    )1?50     ?EzT?    XX112	2,@252000(17)
024346  000000 000151        !I    ????4    UUO00	0,151
024347  127442 563030    *\BN88    ?r?f?    XX127	11,563030(2)
024350  000000 000452        $J    ?????    UUO00	0,452
024351  127203 302100    *Z#81     ?h??     XX127	4,302100(3)
024352  000000 001015        (-    ?????    UUO00	0,1015
024353  127275 762100    *Z]^1     ?kod     XX127	5,@762100(15)
024354  000000 001047        (G    ?????    UUO00	0,1047
024355  127443 031300    *\C#+     ?r?2`    XX127	11,31300(3)
024356  000000 000431        $9    ?????    UUO00	0,431
024357  112762 376462    )7R?TR    ?_?}?    XX112	17,@376462(2)
024360  000000 777401       _\!    ?????    UUO00	0,777401
024361  125473 501000    *L[H(     ?3]??    XX125	11,@501000(13)
024362  000000 001163        )S    ????9    UUO00	0,1163
024363  112333 415400    )3;AL     ?M\??    XX112	6,@415400(13)
024364  000000 001437        ,?    ?????    UUO00	0,1437
024365  125474 662000    *L\V0     ?3fd?    XX125	11,@662000(14)
024366  000000 000244        "D    ????R    UUO00	0,244
024367  121227 040050    **7$ H    ?)8@?    XX121	4,@40050(7)
024370  000000 000003         #    ?????    UUO00	0,3
024371  112534 600000    )5<P      ?Uf??    XX112	12,@600000(14)
024372  000000 000007         '    ?????    UUO00	0,7
024373  112137 447000    )1?DX     ?E|N?    XX112	2,@447000(17)
024374  000000 000163        !S    ????9    UUO00	0,163
024375  112136 660000    )1>V      ?Ev`?    XX112	2,@660000(16)
024376  000000 000145        !E    ????2    UUO00	0,145
024377  127442 562520    *\BN50    ?r?e(    XX127	11,562520(2)
024400  000000 000416        $.    ?????    UUO00	0,416
024401  125521 666200    *M1VR     ?5?l@    XX125	12,@666200(1)
024402  000000 001404        ,$    ?????    UUO00	0,1404
024403  116753 423340    )WKB;@    ?^\&p    XX116	17,423340(13)
024404  000000 000250        "H    ????T    UUO00	0,250
024405  127275 722700    *Z]Z7     ?ko%`    XX127	5,@722700(15)
024406  000000 001107        )'    ????#    UUO00	0,1107
024407  111726 100000    )/6(      ?=1??    XX111	16,@100000(6)
024410  000000 000006         &    ?????    UUO00	0,6
024411  116732 333530    )W:;=8    ?]S7,    XX116	16,@333530(12)
024412  000000 000556        %N    ????7    UUO00	0,556
024413  125505 402124    *M%@14    ?4,?*    XX125	12,402124(5)
024414  000000 000120        !0    ????(    UUO00	0,120
024415  124154 254600    *AL5F     ??bY@    XX124	3,254600(14)
024416  000000 001166        )V    ????;    UUO00	0,1166
024417  126553 267400    *UK6\     ?VZo?    XX126	13,267400(13)
024420  000000 000710        '(    ????d    UUO00	0,710
024421  127442 734600    *\B[F     ?r?9@    XX127	11,734600(2)
024422  000000 000774        '\    ????~    UUO00	0,774
024423  127442 562400    *\BN4     ?r?e?    XX127	11,562400(2)
024424  000000 000345        #E    ????r    UUO00	0,345
024425  124155 156463    *AM-TS    ??i]?    XX124	3,156463(15)
024426  000000 000663        &S    ????Y    UUO00	0,663
024427  110736 355000    )'>=H     ??sZ?    XX110	16,@355000(16)
024430  000000 001440        ,@    ?????    UUO00	0,1440
024431  134426 114730    +D6)G8    ??1?l    ILDB	10,@114730(6)
024432  000000 001426        ,6    ?????    UUO00	0,1426
024433  125465 515740    *LUIO@    ?3-?p    XX125	11,@515740(5)
024434  000000 000515        %-    ????&    UUO00	0,515
024435  123533 676700    *=;WW     ?u^}`    XX123	12,@676700(13)
024436  000000 000262        "R    ????Y    UUO00	0,262
024437  112356 314000    )3N9@     ?Ns??    XX112	7,314000(16)
024440  000000 001420        ,0    ?????    UUO00	0,1420
024441  127443 041400    *\C$,     ?r?C?    XX127	11,41400(3)
024442  000000 001352        +J    ????u    UUO00	0,1352
024443  112137 644000    )1?T@     ?E~H?    XX112	2,@644000(17)
024444  000000 000153        !K    ????5    UUO00	0,153
024445  121117 150000    *)/-      ?$yP?    XX121	2,150000(17)
024446  000000 001107        )'    ????#    UUO00	0,1107
024447  127206 001700    *Z& /     ?h0?`    XX127	4,1700(6)
024450  000000 000567        %W    ????;    UUO00	0,567
024451  124255 070400    *BM'$     ??hq?    XX124	5,70400(15)
024452  000000 000473        $[    ?????    UUO00	0,473
024453  125505 403100    *M%@9     ?4,?     XX125	12,403100(5)
024454  000000 000004         $    ?????    UUO00	0,4
024455  110473 361532    )$[>-:    ??[c-    XX110	11,@361532(13)
024456  000000 000341        #A    ????p    UUO00	0,341
024457  126501 222510    *U!25(    ?T?%$    XX126	12,222510(1)
024460  000000 001111        ))    ????$    UUO00	0,1111
024461  127443 041520    *\C$-0    ?r?C(    XX127	11,41520(3)
024462  074000 000000    '@        ?????    UUO74	0,0
024463  121264 300240    **T8"@    ?+#?P    XX121	5,@300240(4)
024464  000000 001343        +C    ????q    UUO00	0,1343
024465  125462 377060    *LR?XP    ?3?~?    XX125	11,@377060(2)
024466  000000 001537        -?    ????/    UUO00	0,1537
024467  127301 673700    *[!W?     ?l?w`    XX127	6,673700(1)
024470  000000 001007        ('    ?????    UUO00	0,1007
024471  111117 400000    ))/@      ?$|??    XX111	2,400000(17)
024472  000000 000005         %    ?????    UUO00	0,5
024473  124150 726115    *AHZQ-    ??G,&    XX124	3,726115(10)
024474  000000 001140        )@    ????0    UUO00	0,1140
024475  113126 340500    )96<%     ?e3A     XX113	2,@340500(6)
024476  000000 001444        ,D    ?????    UUO00	0,1444
024477  125465 515670    *LUINX    ?3-?\    XX125	11,@515670(5)
024500  000000 000520        %0    ????(    UUO00	0,520
024501  121122 440002    *)2D "    ?%?@?    XX121	2,@440002(2)
024502  000000 001331        +9    ????l    UUO00	0,1331
024503  126706 600000    *W&P      ?\6??    XX126	16,600000(6)
024504  000000 000010         (    ?????    UUO00	0,10
024505  111562 334200    )-R;B     ?7?8@    XX111	13,@334200(2)
024506  000000 740000       \      ???@?    UUO00	0,740000
024507  127136 663000    *Y>V8     ?evf?    XX127	2,@663000(16)
024510  000000 001445        ,E    ?????    UUO00	0,1445
024511  117631 620600    )^9R&     ?yN!@    XX117	14,@620600(11)
024512  000000 000212        "*    ????E    UUO00	0,212
024513  110464 230000    )$T3      ??"0?    XX110	11,@230000(4)
024514  000000 000003         #    ?????    UUO00	0,3
024515  134557 607156    +EOPYN    ??~?7    ILDB	13,607156(17)
024516  000000 001255        *M    ????V    UUO00	0,1255
024517  124155 156477    *AM-T_    ??i]?    XX124	3,156477(15)
024520  000000 000634        &<    ????N    UUO00	0,634
024521  112167 114040    )1W)@@    ?G9??    XX112	3,@114040(7)
024522  000000 001435        ,=    ?????    UUO00	0,1435
024523  127442 720200    *\BZ"     ?r? @    XX127	11,720200(2)
024524  000000 000716        '.    ????g    UUO00	0,716
024525  124340 755320    *C@]K0    ???Zh    XX124	7,755320
024526  000000 001226        *6    ????K    UUO00	0,1226
024527  134557 607142    +EOPYB    ??~?1    ILDB	13,607142(17)
024530  000000 001262        *R    ????Y    UUO00	0,1262
024531  126555 625100    *UMRI     ?Vn*     XX126	13,625100(15)
024532  000000 000631        &9    ????L    UUO00	0,631
024533  127442 526300    *\BJS     ?r?,`    XX127	11,526300(2)
024534  000000 000607        &'    ????C    UUO00	0,607
024535  121725 406565    */5@UU    ?=,?:    XX121	16,@406565(5)
024536  000000 001247        *G    ????S    UUO00	0,1247
024537  124340 726530    *C@ZU8    ???-,    XX124	7,726530
024540  000000 001516        -.    ????'    UUO00	0,1516
024541  122723 271200    *737*     ?]?r@    XX122	16,@271200(3)
024542  000000 001443        ,C    ?????    UUO00	0,1443
024543  127442 562640    *\BN6@    ?r?eP    XX127	11,562640(2)
024544  000000 000437        $?    ?????    UUO00	0,437
024545  124255 054000    *BM%@     ??hX?    XX124	5,54000(15)
024546  000000 000460        $P    ?????    UUO00	0,460
024547  121215 114411    **-)D)    ?(i??    XX121	4,114411(15)
024550  000000 000024         4    ?????    UUO00	0,24
024551  122723 263000    *7368     ?]?f?    XX122	16,@263000(3)
024552  000000 001442        ,B    ?????    UUO00	0,1442
024553  114611 545601    )F)LN!    ??MK@    XX114	14,545601(11)
024554  000000 001004        ($    ?????    UUO00	0,1004
024555  127443 032000    *\C#0     ?r?4?    XX127	11,32000(3)
024556  000000 000445        $E    ?????    UUO00	0,445
024557  123533 610054    *=;Q L    ?u^??    XX123	12,@610054(13)
024560  000000 000262        "R    ????Y    UUO00	0,262
024561  113546 701125    )=FX)5    ?v7?*    XX113	13,701125(6)
024562  000000 001014        (,    ?????    UUO00	0,1014
024563  131432 115560    +,:)MP    ?1Q?8    XX131	10,@115560(12)
024564  000000 001410        ,(    ?????    UUO00	0,1410
024565  127443 041570    *\C$-X    ?r?C<    XX127	11,41570(3)
024566  000000 001360        +P    ????x    UUO00	0,1360
024567  127275 776500    *Z]_U     ?ko}     XX127	5,@776500(15)
024570  000000 000240        "@    ????P    UUO00	0,240
024571  124154 626074    *ALRP\    ??f,?    XX124	3,626074(14)
024572  000000 001112        )*    ????%    UUO00	0,1112
024573  124050 315620    *@H9N0    ??C?H    XX124	1,315620(10)
024574  000000 001206        *&    ????C    UUO00	0,1206
024575  110715 543120    )'-L90    ??mF(    XX110	16,543120(15)
024576  000000 000534        %<    ????.    UUO00	0,534
024577  127301 116200    *[!)R     ?l??@    XX127	6,116200(1)
024600  000000 001006        (&    ?????    UUO00	0,1006
024601  125466 265000    *LV6H     ?32j?    XX125	11,@265000(6)
024602  000000 001517        -/    ????'    UUO00	0,1517
024603  124153 251460    *AK5,P    ??ZS?    XX124	3,251460(13)
024604  000000 001230        *8    ????L    UUO00	0,1230
024605  114576 677300    )E^W[     ??v~`    XX114	13,@677300(16)
024606  000000 001231        *9    ????L    UUO00	0,1231
024607  124340 727350    *C@Z[H    ???.t    XX124	7,727350
024610  000000 001446        ,F    ?????    UUO00	0,1446
024611  114544 175000    )ED/H     ??!z?    XX114	13,175000(4)
024612  000000 000100        !     ????     UUO00	0,100
024613  115355 042000    )KM$0     ?.hD?    XX115	7,42000(15)
024614  000000 000112        !*    ????%    UUO00	0,112
024615  127442 562760    *\BN7P    ?r?ex    XX127	11,562760(2)
024616  000000 000455        $M    ?????    UUO00	0,455
024617  114530 220000    )E82      ??B ?    XX114	12,@220000(10)
024620  000000 001265        *U    ????Z    UUO00	0,1265
024621  112167 114110    )1W)A(    ?G9?$    XX112	3,@114110(7)
024622  000000 001436        ,>    ?????    UUO00	0,1436
024623  113773 514000    )?[I@     ??]??    XX113	17,@514000(13)
024624  000000 000234        "<    ????N    UUO00	0,234
024625  127442 731500    *\B[-     ?r?3     XX127	11,731500(2)
024626  000000 000751        'I    ????t    UUO00	0,751
024627  116244 702300    )RDX3     ?J'?`    XX116	5,702300(4)
024630  000000 000713        '+    ????e    UUO00	0,713
024631  127277 540200    *Z_L"     ?k}@@    XX127	5,@540200(17)
024632  000000 001005        (%    ?????    UUO00	0,1005
024633  121122 440003    *)2D #    ?%?@?    XX121	2,@440003(2)
024634  000000 001276        *^    ????_    UUO00	0,1276
024635  127353 560000    *[KN      ?n]`?    XX127	7,560000(13)
024636  000000 000011         )    ?????    UUO00	0,11
024637  125521 724130    *M1ZA8    ?5?(,    XX125	12,@724130(1)
024640  000000 001373        +[    ????}    UUO00	0,1373
024641  127364 261050    *[T6(H    ?o"b?    XX127	7,@261050(4)
024642  000000 000006         &    ?????    UUO00	0,6
024643  114400 166600    )D .V     ???m@    XX114	10,166600
024644  000000 000420        $0    ?????    UUO00	0,420
024645  113546 702120    )=FX10    ?v7?(    XX113	13,702120(6)
024646  000000 001013        (+    ?????    UUO00	0,1013
024647  124154 626070    *ALRPX    ??f,?    XX124	3,626070(14)
024650  000000 001117        )/    ????'    UUO00	0,1117
024651  112320 013570    )30!=X    ?M??<    XX112	6,@13570
024652  000000 000226        "6    ????K    UUO00	0,226
024653  124050 315500    *@H9M     ??C?     XX124	1,315500(10)
024654  000000 001203        *#    ????A    UUO00	0,1203
024655  123533 660140    *=;V!@    ?u^`0    XX123	12,@660140(13)
024656  000000 000462        $R    ?????    UUO00	0,462
024657  127310 602460    *[(P4P    ?lF??    XX127	6,602460(10)
024660  000000 001433        ,;    ?????    UUO00	0,1433
024661  113034 205100    )8<0I     ?ab?     XX113	0,@205100(14)
024662  000000 000670        &X    ????\    UUO00	0,670
024663  127442 737700    *\B[_     ?r??`    XX127	11,737700(2)
024664  000000 000765        'U    ????z    UUO00	0,765
024665  127205 060200    *Z%&"     ?h(`@    XX127	4,60200(5)
024666  000000 001010        ((    ?????    UUO00	0,1010
024667  123311 212337    *;)13?    ?lJ?o    XX123	6,212337(11)
024670  000000 001164        )T    ????:    UUO00	0,1164
024671  113550 016720    )=H!W0    ?v@?h    XX113	13,16720(10)
024672  000000 000274        "\    ????^    UUO00	0,274
024673  126633 423000    *V;B8     ?Y\&?    XX126	14,@423000(13)
024674  000000 000012         *    ?????    UUO00	0,12
024675  116753 423342    )WKB;B    ?^\&q    XX116	17,423342(13)
024676  000000 000256        "N    ????W    UUO00	0,256
024677  126505 577032    *U%OX:    ?T-~?    XX126	12,577032(5)
024700  000000 001200        *     ????@    UUO00	0,1200
024701  127442 557300    *\BM[     ?r?^`    XX127	11,557300(2)
024702  000000 000617        &/    ????G    UUO00	0,617
024703  124340 731510    *C@[-(    ???3$    XX124	7,731510
024704  000000 001225        *5    ????J    UUO00	0,1225
024705  123533 644656    *=;TFN    ?u^IW    XX123	12,@644656(13)
024706  000000 000265        "U    ????Z    UUO00	0,265
024707  110736 366300    )'>>S     ??sl`    XX110	16,@366300(16)
024710  000000 001441        ,A    ?????    UUO00	0,1441
024711  125510 366200    *M(>R     ?4Cl@    XX125	12,366200(10)
024712  000000 001161        )Q    ????8    UUO00	0,1161
024713  121264 300310    **T8#(    ?+#?d    XX121	5,@300310(4)
024714  000000 001370        +X    ????|    UUO00	0,1370
024715  114152 000000    )AJ       ??P??    XX114	3,0(12)
024716  000000 000014         ,    ?????    UUO00	0,14
024717  121121 221500    *)12-     ?%?#     XX121	2,@221500(1)
024720  000000 000013         +    ?????    UUO00	0,13
024721  112764 544700    )7TLG     ?_%I`    XX112	17,@544700(4)
024722  000000 001424        ,4    ?????    UUO00	0,1424
024723  127442 562710    *\BN7(    ?r?ed    XX127	11,562710(2)
024724  000000 000444        $D    ?????    UUO00	0,444
024725  116557 642374    )UOT3\    ?V~D~    XX116	13,642374(17)
024726  000000 000526        %6    ????+    UUO00	0,526
024727  127442 726400    *\BZT     ?r?-?    XX127	11,726400(2)
024730  000000 000741        'A    ????p    UUO00	0,741
024731  124154 626075    *ALRP]    ??f,?    XX124	3,626075(14)
024732  000000 001133        );    ????-    UUO00	0,1133
024733  115344 610000    )KDQ      ?.&??    XX115	7,610000(4)
024734  000000 000100        !     ????     UUO00	0,100
024735  123533 677640    *=;W^@    ?u^?P    XX123	12,@677640(13)
024736  000000 000460        $P    ?????    UUO00	0,460
024737  127364 337566    *[T;]V    ?o#?;    XX127	7,@337566(4)
024740  000000 000554        %L    ????6    UUO00	0,554
024741  113034 206300    )8<0S     ?ab?`    XX113	0,@206300(14)
024742  000000 001110        )(    ????$    UUO00	0,1110
024743  124057 534050    *@OK@H    ??}8?    XX124	1,534050(17)
024744  000000 000003         #    ?????    UUO00	0,3
024745  125475 022060    *L]"0P    ?3h$?    XX125	11,@22060(15)
024746  000000 000240        "@    ????P    UUO00	0,240
024747  125511 366600    *M)>V     ?4Km@    XX125	12,366600(11)
024750  000000 001151        )I    ????4    UUO00	0,1151
024751  124255 065300    *BM&K     ??hj`    XX124	5,65300(15)
024752  000000 000463        $S    ?????    UUO00	0,463
024753  125507 010200    *M'!"     ?48?@    XX125	12,10200(7)
024754  000000 001162        )R    ????9    UUO00	0,1162
024755  121122 440004    *)2D $    ?%?@?    XX121	2,@440004(2)
024756  000000 001311        +)    ????d    UUO00	0,1311
024757  112332 227640    )3:2^@    ?MR/P    XX112	6,@227640(12)
024760  000000 000246        "F    ????S    UUO00	0,246
024761  124341 015012    *CA!H*    ?????    XX124	7,15012(1)
024762  000000 001222        *2    ????I    UUO00	0,1222
024763  127442 523200    *\BJ:     ?r?&@    XX127	11,523200(2)
024764  000000 000776        '^    ?????    UUO00	0,776
024765  125511 176600    *M)/V     ?4I}@    XX125	12,176600(11)
024766  000000 001165        )U    ????:    UUO00	0,1165
024767  124155 156462    *AM-TR    ??i]?    XX124	3,156462(15)
024770  000000 000673        &[    ????]    UUO00	0,673
024771  127351 341507    *[I<-'    ?nKC#    XX127	7,341507(11)
024772  000000 000711        ')    ????d    UUO00	0,711
024773  115345 202000    )KE00     ?.*??    XX115	7,202000(5)
024774  000000 000132        !:    ????-    UUO00	0,132
024775  125753 244466    *OK4DV    ?>ZI?    XX125	17,244466(13)
024776  000000 000215        "-    ????F    UUO00	0,215
024777  127252 616000    *ZJQP     ?jV??    XX127	5,616000(12)
025000  000000 000343        #C    ????q    UUO00	0,343
025001  121122 440000    *)2D      ?%?@?    XX121	2,@440000(2)
025002  000000 001267        *W    ????[    UUO00	0,1267
025003  125511 506530    *M)HU8    ?4M?,    XX125	12,506530(11)
025004  000000 000523        %3    ????)    UUO00	0,523
025005  127442 726520    *\BZU0    ?r?-(    XX127	11,726520(2)
025006  000000 000746        'F    ????s    UUO00	0,746
025007  052260 547440    %2PL\@    ?K?O?    UUO52	5,@547440
025010  400000 000000    @         @????    SETZ	0,0
025011  052260 547463    %2PL\S    ?K?O?    UUO52	5,@547463
025012  401000 000000    @(        @ ???    SETZI	0,0
025013  052260 547467    %2PL\W    ?K?O?    UUO52	5,@547467
025014  402000 000000    @0        @@???    SETZM	0,0
025015  052260 547454    %2PL\L    ?K?O?    UUO52	5,@547454
025016  403000 000000    @8        @`???    SETZB	0,0
025017  052320 235340    %303K@    ?M?:p    UUO52	6,@235340
025020  700300 000000    X#        p????    CONSZ	0,0
025021  052320 234450    %303DH    ?M?9?    UUO52	6,@234450
025022  700340 000000    X#@       p????    CONSO	0,0
025023  052717 441670    %7/D.X    ?\|C\    UUO52	16,441670(17)
025024  700040 000000    X @       p????    DATAI	0,0
025025  052717 442250    %7/D2H    ?\|DT    UUO52	16,442250(17)
025026  700140 000000    X!@       p????    DATAO	0,0
025027  051453 454300    %,KEC     ?2\X`    UUO51	11,454300(13)
025030  700000 000000    X         p????    BLKI	0,0
025031  051453 477100    %,KGY     ?2\~     UUO51	11,477100(13)
025032  700100 000000    X!        p????    BLKO	0,0
025033  052320 173300    %30/;     ?M?v`    UUO52	6,@173300
025034  700240 000000    X"@       p????    CONI	0,0
025035  052320 216100    %301Q     ?M??     UUO52	6,@216100
025036  700200 000000    X"        p????    CONO	0,0
025037  064145 630000    &AES      ??.0?    UUO64	3,630000(5)
025040  000400 000000     $        ?????    UUO00	10,0
025041  064327 442000    &C7D0     ??<D?    UUO64	6,@442000(7)
025042  010000 000000    !         ?????    UUO10	0,0
025043  064330 034000    &C8#@     ??@8?    UUO64	6,@34000(10)
025044  010400 000000    !$        ?????    UUO10	10,0
025045  052347 440000    %3GD      ?N<@?    UUO52	7,440000(7)
025046  011400 000000    !,        ?0???    UUO11	10,0
025047  067364 207000    &[T0X     ?o"??    UUO67	7,@207000(4)
025050  012000 000000    !0        ?@???    UUO12	0,0
025051  061226 766000    &*6^P     ?)7l?    UUO61	4,@766000(6)
025052  012400 000000    !4        ?P???    UUO12	10,0
025053  053035 301000    %8=8(     ?ak??    UUO53	0,@301000(15)
025054  013000 000000    !8        ?`???    UUO13	0,0
025055  052733 550000    %7;M      ?]]P?    UUO52	16,@550000(13)
025056  020000 000000    "         ?????    UUO20	0,0
025057  070165 411000    '!UA(     ??,??    UUO70	3,@411000(5)
025060  021000 000000    "(        ? ???    UUO21	0,0
025061  070171 331000    '!Y;(     ??K2?    UUO70	3,@331000(11)
025062  021400 000000    ",        ?0???    UUO21	10,0
025063  052742 663300    %7BV;     ?^?f`    UUO52	17,663300(2)
025064  030000 000000    #         ?????    UUO30	0,0
025065  052742 666400    %7BVT     ?^?m?    UUO52	17,666400(2)
025066  030400 000000    #$        ?????    UUO30	10,0
025067  067421 242000    &\140     ?q?D?    UUO67	10,@242000(1)
025070  031000 000000    #(        ? ???    UUO31	0,0
025071  075334 270000    'K<7      ?-bp?    UUO75	6,@270000(14)
025072  000000 776631       _V9    ???}L    UUO00	0,776631
025073  075265 230000    'JU3      ?+*0?    UUO75	5,@230000(5)
025074  000000 776626       _V6    ???}K    UUO00	0,776626
025075  012754 626000    !7LRP     ?^f,?    UUO12	17,626000(14)
025076  000000 000000              ?????    UUO00	0,0
025077  052754 626000    %7LRP     ?^f,?    UUO52	17,626000(14)
025100  000000 774000       _@     ???x?    UUO00	0,774000
025101  075022 154000    'H2-@     ?!?X?    UUO75	0,@154000(2)
025102  000000 776632       _V:    ???}M    UUO00	0,776632
025103  075033 764000    'H;^@     ?!_h?    UUO75	0,@764000(13)
025104  000000 776635       _V=    ???}N    UUO00	0,776635
025105  075045 574000    'HEO@     ?"-x?    UUO75	1,574000(5)
025106  000000 776640       _V@    ???}P    UUO00	0,776640
025107  075057 404000    'HO@@     ?"|??    UUO75	1,404000(17)
025110  000000 776643       _VC    ???}Q    UUO00	0,776643
025111  075071 214000    'HY1@     ?#J??    UUO75	1,@214000(11)
025112  000000 776646       _VF    ???}S    UUO00	0,776646
025113  075103 024000    'I#"@     ?$?(?    UUO75	2,24000(3)
025114  000000 776651       _VI    ???}T    UUO00	0,776651
025115  075114 634000    'I,S@     ?$f8?    UUO75	2,634000(14)
025116  000000 776654       _VL    ???}V    UUO00	0,776654
025117  075126 444000    'I6D@     ?%4H?    UUO75	2,@444000(6)
025120  000000 776657       _VO    ???}W    UUO00	0,776657
025121  754626 333522    ]F6;=2    {?37)    CONO	544,@333522(6)
025122  777144 773000    _YD_8     ?f'v?    DATAO	770,773000(4)
025123  261040 000002    6(@  "    ,"???    PUSH	1,2
025124  336000 773033    ;P _8;    7@?v?    SKIPN	0,773033
025125  334100 776037    ;A _P?    7??|?    SKIPA	2,776037
025126  205100 604000    0I P@     !$???    MOVSI	2,604000
025127  202100 776013    01 _P+     D?|?    MOVEM	2,776013
025130  325100 773025    :I _85    5$?v?    JUMPGE	2,773025
025131  550240 776532    M"@_U:    Z??}-    HRRZ	5,776532
025132  275240 000352    7J@ #J    /*??u    SUBI	5,352
025133  542240 773034    L2@_8<    XJ?v?    HRRM	5,773034
025134  200100 777117    0! _Y/     ??~'    MOVE	2,777117
025135  202105 000000    01%        D(??    MOVEM	2,0(5)
025136  505105 000000    HI%       Q$(??    HRLI	2,0(5)
025137  541105 000001    L)%  !    X$(??    HRRI	2,1(5)
025140  251105 000347    5)% #G    *$(?s    BLT	2,347(5)
025141  211100 000013    1)   +    "$???    MOVNI	2,13
025142  202100 776714    01 _W,     D?}f    MOVEM	2,776714
025143  260040 773225    6 @_:5    ,??vJ    PUSHJ	1,773225
025144  201240 773131    0*@_99     *?v,    MOVEI	5,773131
025145  202240 773667    02@_>W     J?w[    MOVEM	5,773667
025146  460240 773022    F"@_82    L??v?    SETCM	5,773022
025147  212240 776602    12@_V"    "J?}A    MOVNM	5,776602
025150  262040 000002    60@  "    ,B???    POP	1,2
025151  263040 000000    68@       ,b???    POPJ	1,0
025152  777777 777777    ______    ?????    CONSO	774,@777777(17)
025153  777704 763261    __$^:Q    ?|'fX    CONSZ	774,763261(4)
025154  000000 000014         ,    ?????    UUO00	0,14
025155  000600 763257     & ^:O    ???fW    UUO00	14,763257
025156  777777 777777    ______    ?????    CONSO	774,@777777(17)
025157  777431 763006    _\9^8&    ?qOf?    BLKI	774,@763006(11)
025160  261040 000005    6(@  %    ,"???    PUSH	1,5
025161  405240 000177    @J@ !_    A*???    ANDI	5,177
025162  301240 000040    8*@  @    0*???    CAIL	5,40
025163  303240 000132    8:@ !:    0j??-    CAILE	5,132
025164  254000 773051    5@ _8I    +??v?    JRST	0,773051
025165  136240 773032    +R@_8:    ?J?v?    IDPB	5,773032
025166  350000 773031    =  _89    :??v?    AOS	0,773031
025167  541240 777766    L*@__V    X*??{    HRRI	5,777766
025170  335000 000005    ;H   %    7 ???    SKIPGE	0,5
025171  202240 773031    02@_89     J?v?    MOVEM	5,773031
025172  262040 000005    60@  %    ,B???    POP	1,5
025173  263040 000000    68@       ,b???    POPJ	1,0
025174  261040 000006    6(@  &    ,"???    PUSH	1,6
025175  301240 000040    8*@  @    0*???    CAIL	5,40
025176  303240 000140    8:@ !@    0j??0    CAILE	5,140
025177  254000 773104    5@ _9$    +??v"    JRST	0,773104
025200  201300 000036    0+   >     ,???    MOVEI	6,36
025201  136300 773032    +S _8:    ?L?v?    IDPB	6,773032
025202  200305 772743    0#%_7C     ?/uq    MOVE	6,772743(5)
025203  136300 773032    +S _8:    ?L?v?    IDPB	6,773032
025204  201240 000035    0*@  =     *???    MOVEI	5,35
025205  262040 000006    60@  &    ,B???    POP	1,6
025206  254000 773042    5@ _8B    +??v?    JRST	0,773042
025207  201240 000034    0*@  <     *???    MOVEI	5,34
025210  261040 000005    6(@  %    ,"???    PUSH	1,5
025211  254000 773042    5@ _8B    +??v?    JRST	0,773042
025212  260040 773064    6 @_8T    ,??v?    PUSHJ	1,773064
025213  211240 777745    1*@__E    "*??r    MOVNI	5,777745
025214  261040 000005    6(@  %    ,"???    PUSH	1,5
025215  254000 773042    5@ _8B    +??v?    JRST	0,773042
025216  201240 000035    0*@  =     *???    MOVEI	5,35
025217  261040 000005    6(@  %    ,"???    PUSH	1,5
025220  254000 773042    5@ _8B    +??v?    JRST	0,773042
025221  000000 000053         K    ?????    UUO00	0,53
025222  000000 000052         J    ?????    UUO00	0,52
025223  000000 000054         L    ?????    UUO00	0,54
025224  000000 000046         F    ?????    UUO00	0,46
025225  000000 000051         I    ?????    UUO00	0,51
025226  000000 000050         H    ?????    UUO00	0,50
025227  260040 773120    6 @_90    ,??v(    PUSHJ	1,773120
025230  260040 773111    6 @_9)    ,??v$    PUSHJ	1,773111
025231  260040 773120    6 @_90    ,??v(    PUSHJ	1,773120
025232  262040 000006    60@  &    ,B???    POP	1,6
025233  254000 773047    5@ _8G    +??v?    JRST	0,773047
025234  231240 000010    3*@  (    &*???    IDIVI	5,10
025235  506301 000000    HS!       QL???    HRLM	6,0(1)
025236  332000 000005    ;0   %    6@???    SKIPE	0,5
025237  260040 773111    6 @_9)    ,??v$    PUSHJ	1,773111
025240  554241 000000    MBA       [????    HLRZ	5,0(1)
025241  271240 000060    7*@  P    .*???    ADDI	5,60
025242  254000 773035    5@ _8=    +??v?    JRST	0,773035
025243  201300 000036    0+   >     ,???    MOVEI	6,36
025244  136300 773032    +S _8:    ?L?v?    IDPB	6,773032
025245  201300 000050    0+   H     ,???    MOVEI	6,50
025246  136300 773032    +S _8:    ?L?v?    IDPB	6,773032
025247  201300 000035    0+   =     ,???    MOVEI	6,35
025250  136300 773032    +S _8:    ?L?v?    IDPB	6,773032
025251  263040 000000    68@       ,b???    POPJ	1,0
025252  350240 776714    ="@_W,    :??}f    AOS	5,776714
025253  303240 000012    8:@  *    0j???    CAILE	5,12
025254  211240 000012    1*@  *    "*???    MOVNI	5,12
025255  202240 776714    02@_W,     J?}f    MOVEM	5,776714
025256  271240 000012    7*@  *    .*???    ADDI	5,12
025257  221240 000013    2*@  +    $*???    IMULI	5,13
025260  270240 773034    7"@_8<    .??v?    ADD	5,773034
025261  505240 000600    HJ@ &     Q*??@    HRLI	5,600
025262  202240 773032    02@_8:     J?v?    MOVEM	5,773032
025263  202240 776715    02@_W-     J?}f    MOVEM	5,776715
025264  200100 776714    0! _W,     ??}f    MOVE	2,776714
025265  260040 773067    6 @_8W    ,??v?    PUSHJ	1,773067
025266  322100 773145    :1 _9E    4D?v2    JUMPE	2,773145
025267  366100 773146    >Q _9F    =D?v3    SOJN	2,773146
025270  260040 773070    6 @_8X    ,??v?    PUSHJ	1,773070
025271  200240 776714    0"@_W,     ??}f    MOVE	5,776714
025272  270240 776544    7"@_UD    .??}2    ADD	5,776544
025273  261040 000005    6(@  %    ,"???    PUSH	1,5
025274  260040 776126    6 @_Q6    ,??|+    PUSHJ	1,776126
025275  256740 776756    5W@_WN    +^?}w    XCT	17,776756
025276  256000 776756    5P _WN    +@?}w    XCT	0,776756
025277  337000 773031    ;X _89    7`?v?    SKIPG	0,773031
025300  254000 773153    5@ _9K    +??v5    JRST	0,773153
025301  262040 000002    60@  "    ,B???    POP	1,2
025302  260040 775747    6 @_OG    ,??{s    PUSHJ	1,775747
025303  254000 773175    5@ _9]    +??v>    JRST	0,773175
025304  260040 776047    6 @_PG    ,??|?    PUSHJ	1,776047
025305  260040 773073    6 @_8[    ,??v?    PUSHJ	1,773073
025306  200240 773032    0"@_8:     ??v?    MOVE	5,773032
025307  603240 770000    P:@_      `j?p?    TLNE	5,770000
025310  254000 773162    5@ _9R    +??v9    JRST	0,773162
025311  274240 776715    7B@_W-    /??}f    SUB	5,776715
025312  571245 777765    O*E__U    ^*/?z    HRREI	5,777765(5)
025313  321240 773162    :*@_9R    4*?v9    JUMPL	5,773162
025314  260040 773216    6 @_:.    ,??vG    PUSHJ	1,773216
025315  352000 773027    =0 _87    :@?v?    AOSE	0,773027
025316  254000 773171    5@ _9Y    +??v<    JRST	0,773171
025317  254000 773127    5@ _97    +??v+    JRST	0,773127
025320  256640 776756    5V@_WN    +Z?}w    XCT	15,776756
025321  254000 773162    5@ _9R    +??v9    JRST	0,773162
025322  370001 000000    ? !       >????    SOS	0,0(1)
025323  370001 000000    ? !       >????    SOS	0,0(1)
025324  336000 773033    ;P _8;    7@?v?    SKIPN	0,773033
025325  263040 000000    68@       ,b???    POPJ	1,0
025326  261040 776017    6(@_P/    ,"?|?    PUSH	1,776017
025327  201750 776556    0/H_UN     >G}7    MOVEI	17,776556(10)
025330  251750 776565    5/H_UU    *>G}:    BLT	17,776565(10)
025331  256010 776576    5P(_U^    +@G}?    XCT	0,776576(10)
025332  641240 000040    T*@  @    h*???    TLC	5,40
025333  202240 776013    02@_P+     J?|?    MOVEM	5,776013
025334  431400 000023    C,   3    F0???    XORI	10,23
025335  205750 776556    0OH_UN    !>G}7    MOVSI	17,776556(10)
025336  251740 000007    5/@  '    *>???    BLT	17,7
025337  262040 776017    60@_P/    ,B?|?    POP	1,776017
025340  263040 000000    68@       ,b???    POPJ	1,0
025341  713340 000200    Y;@ "     rn??@    CONSO	130,200
025342  254000 773222    5@ _:2    +??vI    JRST	0,773222
025343  713100 773030    Y9 _88    rd?v?    BLKO	130,773030
025344  260040 773225    6 @_:5    ,??vJ    PUSHJ	1,773225
025345  256000 776013    5P _P+    +@?|?    XCT	0,776013
025346  254000 773203    5@ _:#    +??vA    JRST	0,773203
025347  263040 000000    68@       ,b???    POPJ	1,0
025350  202240 773030    02@_88     J?v?    MOVEM	5,773030
025351  201240 000040    0*@  @     *???    MOVEI	5,40
025352  367240 773227    >Z@_:7    =j?vK    SOJG	5,773227
025353  713200 000100    Y:  !     rh??     CONO	130,100
025354  713140 777120    Y9@_Y0    rf?~(    DATAO	130,777120
025355  200240 773034    0"@_8<     ??v?    MOVE	5,773034
025356  250240 773030    5"@_88    *??v?    EXCH	5,773030
025357  476000 773027    GP _87    O@?v?    SETOM	0,773027
025360  263040 000000    68@       ,b???    POPJ	1,0
025361  205140 777773    0I@__[    !&??}    MOVSI	3,777773
025362  200103 773250    0!#_:H     ??vT    MOVE	2,773250(3)
025363  404110 776567    @A(_UW    A?G};    AND	2,776567(10)
025364  616243 773250    QRC_:H    cJ?vT    TDNN	5,773250(3)
025365  434240 000002    CB@  "    G????    IOR	5,2
025366  253140 773237    59@_:?    *f?vO    AOBJN	3,773237
025367  402000 776521    @0 _U1    @@?}(    SETZM	0,776521
025370  621000 100000    R( (      d ???    TLZ	0,100000
025371  402000 776516    @0 _U.    @@?}'    SETZM	0,776516
025372  254000 776203    5@ _R#    +??|A    JRST	0,776203
025373  777000 000000    _X        ?`???    BLKI	770,0
025374  000740 000000     '@       ?????    UUO00	17,0
025375  000020 000000      0       ?????    UUO00	0,@0
025376  000017 000000      /       ??x??    UUO00	0,0(17)
025377  000000 777777       ___    ?????    UUO00	0,777777
025400  260040 773270    6 @_:X    ,??v\    PUSHJ	1,773270
025401  260040 773307    6 @_;'    ,??vc    PUSHJ	1,773307
025402  202240 776525    02@_U5     J?}*    MOVEM	5,776525
025403  260040 773307    6 @_;'    ,??vc    PUSHJ	1,773307
025404  316240 776525    9R@_U5    3J?}*    CAMN	5,776525
025405  254000 773265    5@ _:U    +??vZ    JRST	0,773265
025406  260040 773303    6 @_;#    ,??va    PUSHJ	1,773303
025407  254000 773260    5@ _:P    +??vX    JRST	0,773260
025410  200240 776570    0"@_UX     ??}<    MOVE	5,776570
025411  402000 776517    @0 _U/    @@?}'    SETZM	0,776517
025412  254000 776203    5@ _R#    +??|A    JRST	0,776203
025413  626000 000001    RP   !    e@???    TRZN	0,1
025414  254000 773301    5@ _;!    +??v`    JRST	0,773301
025415  201340 000040    0+@  @     .???    MOVEI	7,40
025416  200300 776517    0# _U/     ??}'    MOVE	6,776517
025417  306300 000006    8S   &    1L???    CAIN	6,6
025420  542340 773303    L3@_;#    XN?va    HRRM	7,773303
025421  306300 000007    8S   '    1L???    CAIN	6,7
025422  513000 773303    I8 _;#    R`?va    HLLZS	0,773303
025423  137300 777121    +[ _Y1    ?l?~(    DPB	6,777121
025424  200300 773313    0# _;+     ??ve    MOVE	6,773313
025425  263040 000000    68@       ,b???    POPJ	1,0
025426  275240 000000    7J@       /*???    SUBI	5,0
025427  136240 000006    +R@  &    ?J???    IDPB	5,6
025430  541300 776570    L+ _UX    X,?}<    HRRI	6,776570
025431  263040 000000    68@       ,b???    POPJ	1,0
025432  260040 773353    6 @_;K    ,??vu    PUSHJ	1,773353
025433  302240 000177    82@ !_    0J???    CAIE	5,177
025434  263040 000000    68@       ,b???    POPJ	1,0
025435  254000 774126    5@ _A6    +??x+    JRST	0,774126
025436  440700 776570    D' _UX    H??}<    ANDCB	16,776570
025437  626000 000001    RP   !    e@???    TRZN	0,1
025440  254000 775302    5@ _K"    +??za    JRST	0,775302
025441  336300 776517    ;S _U/    7L?}'    SKIPN	6,776517
025442  254000 774126    5@ _A6    +??x+    JRST	0,774126
025443  542300 775365    L3 _KU    XL?zz    HRRM	6,775365
025444  201340 000040    0+@  @     .???    MOVEI	7,40
025445  306300 000006    8S   &    1L???    CAIN	6,6
025446  202340 773327    03@_;7     N?vk    MOVEM	7,773327
025447  306300 000007    8S   '    1L???    CAIN	6,7
025450  402000 773327    @0 _;7    @@?vk    SETZM	0,773327
025451  254000 775302    5@ _K"    +??za    JRST	0,775302
025452  000000 000000              ?????    UUO00	0,0
025453  260040 773332    6 @_;:    ,??vm    PUSHJ	1,773332
025454  260040 773332    6 @_;:    ,??vm    PUSHJ	1,773332
025455  201240 000040    0*@  @     *???    MOVEI	5,40
025456  254000 773431    5@ _<9    +??w?    JRST	0,773431
025457  740000 776075    \  _P]    x??|?    BLKI	400,776075
025460  200240 773334    0"@_;<     ??vn    MOVE	5,773334
025461  135240 777122    +J@_Y2    ?*?~)    LDB	5,777122
025462  261040 773334    6(@_;<    ,"?vn    PUSH	1,773334
025463  254000 773431    5@ _<9    +??w?    JRST	0,773431
025464  336000 776713    ;P _W+    7@?}e    SKIPN	0,776713
025465  260040 773471    6 @_<Y    ,??w?    PUSHJ	1,773471
025466  263040 000000    68@       ,b???    POPJ	1,0
025467  302240 000002    82@  "    0J???    CAIE	5,2
025470  306240 000005    8R@  %    1J???    CAIN	5,5
025471  254000 773440    5@ _<@    +??w?    JRST	0,773440
025472  302240 000026    82@  6    0J???    CAIE	5,26
025473  306240 000027    8R@  7    1J???    CAIN	5,27
025474  254000 773440    5@ _<@    +??w?    JRST	0,773440
025475  254000 774677    5@ _F_    +??y_    JRST	0,774677
025476  332000 776713    ;0 _W+    6@?}e    SKIPE	0,776713
025477  254020 776713    5@0_W+    +??}e    JRST	0,@776713
025500  134240 777777    +B@___    ?????    ILDB	5,777777
025501  326240 773364    :R@_;T    5J?vz    JUMPN	5,773364
025502  402000 777777    @0 ___    @@???    SETZM	0,777777
025503  712340 000040    Y3@  @    rN???    CONSO	120,40
025504  260040 773177    6 @_9_    ,??v?    PUSHJ	1,773177
025505  260040 773471    6 @_<Y    ,??w?    PUSHJ	1,773471
025506  255000 000000    5H        + ???    JFCL	0,0
025507  302240 000175    82@ !]    0J??>    CAIE	5,175
025510  306240 000176    8R@ !^    1J???    CAIN	5,176
025511  201240 000033    0*@  ;     *???    MOVEI	5,33
025512  332010 776574    ;0(_U\    6@G}>    SKIPE	0,776574(10)
025513  254030 776574    5@8_U\    +?G}>    JRST	0,@776574(10)
025514  301240 000011    8*@  )    0*???    CAIL	5,11
025515  303240 000015    8:@  -    0j???    CAILE	5,15
025516  254000 773405    5@ _<%    +??w?    JRST	0,773405
025517  332000 776530    ;0 _U8    6@?},    SKIPE	0,776530
025520  263040 000000    68@       ,b???    POPJ	1,0
025521  261040 000005    6(@  %    ,"???    PUSH	1,5
025522  201240 000015    0*@  -     *???    MOVEI	5,15
025523  260040 773440    6 @_<@    ,??w?    PUSHJ	1,773440
025524  201240 000012    0*@  *     *???    MOVEI	5,12
025525  260040 773440    6 @_<@    ,??w?    PUSHJ	1,773440
025526  262040 000005    60@  %    ,B???    POP	1,5
025527  263040 000000    68@       ,b???    POPJ	1,0
025530  260040 773440    6 @_<@    ,??w?    PUSHJ	1,773440
025531  336000 776527    ;P _U7    7@?}+    SKIPN	0,776527
025532  263040 000000    68@       ,b???    POPJ	1,0
025533  302240 000015    82@  -    0J???    CAIE	5,15
025534  254000 773414    5@ _<,    +??w?    JRST	0,773414
025535  712600 000010    Y6   (    rX???    CONO	124,10
025536  263040 000000    68@       ,b???    POPJ	1,0
025537  261040 000005    6(@  %    ,"???    PUSH	1,5
025540  306240 000012    8R@  *    1J???    CAIN	5,12
025541  201240 000440    0*@ $@     *???    MOVEI	5,440
025542  306240 000014    8R@  ,    1J???    CAIN	5,14
025543  201240 000441    0*@ $A     *???    MOVEI	5,441
025544  306240 000033    8R@  ;    1J???    CAIN	5,33
025545  201240 000044    0*@  D     *???    MOVEI	5,44
025546  275240 000040    7J@  @    /*???    SUBI	5,40
025547  712700 000010    Y7   (    r\???    CONSZ	124,10
025550  260040 773177    6 @_9_    ,??v?    PUSHJ	1,773177
025551  712540 000005    Y5@  %    rV???    DATAO	124,5
025552  262040 000005    60@  %    ,B???    POP	1,5
025553  263040 000000    68@       ,b???    POPJ	1,0
025554  332000 773033    ;0 _8;    6@?v?    SKIPE	0,773033
025555  260040 773216    6 @_:.    ,??vG    PUSHJ	1,773216
025556  332010 776574    ;0(_U\    6@G}>    SKIPE	0,776574(10)
025557  254030 776574    5@8_U\    +?G}>    JRST	0,@776574(10)
025560  260040 773406    6 @_<&    ,??w?    PUSHJ	1,773406
025561  336000 776530    ;P _U8    7@?},    SKIPN	0,776530
025562  263040 000000    68@       ,b???    POPJ	1,0
025563  301240 000040    8*@  @    0*???    CAIL	5,40
025564  254000 773465    5@ _<U    +??w?    JRST	0,773465
025565  306240 000177    8R@ !_    1J???    CAIN	5,177
025566  263040 000000    68@       ,b???    POPJ	1,0
025567  301240 000011    8*@  )    0*???    CAIL	5,11
025570  303240 000015    8:@  -    0j???    CAILE	5,15
025571  306240 000007    8R@  '    1J???    CAIN	5,7
025572  254000 773465    5@ _<U    +??w?    JRST	0,773465
025573  261040 000005    6(@  %    ,"???    PUSH	1,5
025574  302240 000033    82@  ;    0J???    CAIE	5,33
025575  201240 000136    0*@ !>     *??/    MOVEI	5,136
025576  306240 000033    8R@  ;    1J???    CAIN	5,33
025577  201240 000044    0*@  D     *???    MOVEI	5,44
025600  260040 773465    6 @_<U    ,??w?    PUSHJ	1,773465
025601  262040 000005    60@  %    ,B???    POP	1,5
025602  306240 000033    8R@  ;    1J???    CAIN	5,33
025603  263040 000000    68@       ,b???    POPJ	1,0
025604  660240 000100    V"@ !     l???     TRO	5,100
025605  260040 773465    6 @_<U    ,??w?    PUSHJ	1,773465
025606  620240 000100    R"@ !     d???     TRZ	5,100
025607  263040 000000    68@       ,b???    POPJ	1,0
025610  712300 000020    Y3   0    rL???    CONSZ	120,20
025611  260040 773177    6 @_9_    ,??v?    PUSHJ	1,773177
025612  712140 000005    Y1@  %    rF???    DATAO	120,5
025613  263040 000000    68@       ,b???    POPJ	1,0
025614  712340 000040    Y3@  @    rN???    CONSO	120,40
025615  263040 000000    68@       ,b???    POPJ	1,0
025616  712040 000005    Y0@  %    rB???    DATAI	120,5
025617  405240 000177    @J@ !_    A*???    ANDI	5,177
025620  302240 000002    82@  "    0J???    CAIE	5,2
025621  254000 773501    5@ _=!    +??w     JRST	0,773501
025622  476000 776527    GP _U7    O@?}+    SETOM	0,776527
025623  712600 000010    Y6   (    rX???    CONO	124,10
025624  306240 000005    8R@  %    1J???    CAIN	5,5
025625  402000 776527    @0 _U7    @@?}+    SETZM	0,776527
025626  306240 000026    8R@  6    1J???    CAIN	5,26
025627  476000 776530    GP _U8    O@?},    SETOM	0,776530
025630  306240 000027    8R@  7    1J???    CAIN	5,27
025631  402000 776530    @0 _U8    @@?},    SETZM	0,776530
025632  254000 774677    5@ _F_    +??y_    JRST	0,774677
025633  200100 000005    0!   %     ????    MOVE	2,5
025634  327100 773517    :Y _=/    5d?w'    JUMPG	2,773517
025635  322100 773526    :1 _=6    4D?w+    JUMPE	2,773526
025636  213000 000002    18   "    "`???    MOVNS	0,2
025637  256640 776756    5V@_WN    +Z?}w    XCT	15,776756
025640  623100 400000    R9 @      dd???    TLZE	2,400000
025641  254000 773526    5@ _=6    +??w+    JRST	0,773526
025642  607100 000400    PY  $     ad???    TLNN	2,400
025643  256140 776756    5Q@_WN    +F?}w    XCT	3,776756
025644  201140 000000    0)@        &???    MOVEI	3,0
025645  315100 773613    9I _>+    3$?wE    CAMGE	2,773613
025646  254000 773546    5@ _=F    +??w3    JRST	0,773546
025647  311100 773601    9) _>!    2$?w@    CAML	2,773601
025650  344140 773546    <A@_=F    9??w3    AOJA	3,773546
025651  201200 000000    0*         (???    MOVEI	4,0
025652  225100 000400    2I  $     %$???    MULI	2,400
025653  244142 777535    4AB_]=    )???.    ASHC	3,777535(2)
025654  200100 000003    0!   #     ????    MOVE	2,3
025655  402010 776571    @0(_UY    @@G}<    SETZM	0,776571(10)
025656  260040 773566    6 @_=V    ,??w;    PUSHJ	1,773566
025657  256700 776756    5W _WN    +\?}w    XCT	16,776756
025660  211100 000010    1)   (    "$???    MOVNI	2,10
025661  270110 776571    7!(_UY    .?G}<    ADD	2,776571(10)
025662  200300 000004    0#   $     ????    MOVE	6,4
025663  200240 000006    0"@  &     ????    MOVE	5,6
025664  225240 000012    2J@  *    %*???    MULI	5,12
025665  260040 773575    6 @_=]    ,??w>    PUSHJ	1,773575
025666  332000 000006    ;0   &    6@???    SKIPE	0,6
025667  341100 773540    <) _=@    8$?w0    AOJL	2,773540
025670  263040 000000    68@       ,b???    POPJ	1,0
025671  211200 000006    1*   &    "(???    MOVNI	4,6
025672  201340 000000    0+@        .???    MOVEI	7,0
025673  271347 000001    7+G  !    ..8??    ADDI	7,1(7)
025674  256003 773614    5P#_>,    +@?wF    XCT	0,773614(3)
025675  374000 000007    ?@   '    ?????    SOSA	0,7
025676  164123 773615    .A3_>-    ???wF    FMPR	2,@773615(3)
025677  346200 773550    <R _=H    9H?w4    AOJN	4,773550
025700  211143 777776    1)C__^    "&???    MOVNI	3,777776(3)
025701  261040 000003    6(@  #    ,"???    PUSH	1,3
025702  260040 773527    6 @_=7    ,??w+    PUSHJ	1,773527
025703  201240 000105    0*@ !%     *??"    MOVEI	5,105
025704  260040 773431    6 @_<9    ,??w?    PUSHJ	1,773431
025705  262040 000005    60@  %    ,B???    POP	1,5
025706  137240 777123    +Z@_Y3    ?j?~)    DPB	5,777123
025707  256540 776756    5U@_WN    +V?}w    XCT	13,776756
025710  200100 000007    0!   '     ????    MOVE	2,7
025711  322100 773574    :1 _=\    4D?w>    JUMPE	2,773574
025712  231100 000012    3)   *    &$???    IDIVI	2,12
025713  350010 776571    = (_UY    :?G}<    AOS	0,776571(10)
025714  506141 000000    HQA       QF???    HRLM	3,0(1)
025715  322100 773574    :1 _=\    4D?w>    JUMPE	2,773574
025716  260040 773566    6 @_=V    ,??w;    PUSHJ	1,773566
025717  554241 000000    MBA       [????    HLRZ	5,0(1)
025720  271240 000260    7*@ "P    .*??X    ADDI	5,260
025721  254000 773431    5@ _<9    +??w?    JRST	0,773431
025722  353473 426555    =<[BUM    :s\-6    AOSLE	11,@426555(13)
025723  266434 157116    6T<-Y.    -Qa^'    JSA	10,@157116(14)
025724  233575 360400    3=]>$     &wka?    IDIVB	13,@360400(15)
025725  216470 400000    1TX@      #SD??    MOVMM	11,@400000(10)
025726  207620 000000    0^0       !y???    MOVSS	14,@0
025727  204500 000000    0E        !????    MOVS	12,0
025730  201400 000000    0,         0???    MOVEI	10,0
025731  026637 304365    "V?8CU    ?Y{?z    UUO26	14,@304365(17)
025732  113715 126246    )?-*RF    ?|i,S    XX113	16,126246(15)
025733  146527 461670    ,U7F.X    ?U<c\    FADMR	12,@461670(7)
025734  163643 334273    .>C;B[    ?z?8]    FMPB	15,334273(3)
025735  172507 534122    /5'KA2    ?T=8)    FDVM	12,534122(7)
025736  175631 463146    /N9F9F    ?9Lf3    FDVLR	14,@463146(11)
025737  313104 773614    99$_>,    2d'wF    CAMLE	2,773614(4)
025740  315104 773605    9I$_>%    3$'wB    CAMGE	2,773605(4)
025741  000004 773614      $_>,    ??'wF    UUO00	0,773614(4)
025742  000000 000000              ?????    UUO00	0,0
025743  254000 774131    5@ _A9    +??x,    JRST	0,774131
025744  740000 775343    \  _KC    x??zq    BLKI	400,775343
025745  740000 773465    \  _<U    x??w?    BLKI	400,773465
025746  316110 776572    9Q(_UZ    3DG}=    CAMN	2,776572(10)
025747  316110 776572    9Q(_UZ    3DG}=    CAMN	2,776572(10)
025750  316110 776572    9Q(_UZ    3DG}=    CAMN	2,776572(10)
025751  616342 000000    QSB       cN???    TDNN	7,0(2)
025752  616342 000000    QSB       cN???    TDNN	7,0(2)
025753  440700 774337    D' _C?    H??xo    ANDCB	16,774337
025754  030110 776566    #!(_UV    ??G};    UUO30	2,776566(10)
025755  221100 774433    2) _D;    $$?y?    IMULI	2,774433
025756  000000 000001         !    ?????    UUO00	0,1
025757  022013 357461    "0+=\Q    ?@[_?    UUO22	0,357461(13)
025760  777770 773667    __X_>W    ??Gw[    CONSO	774,@773667(10)
025761  740000 773162    \  _9R    x??v9    BLKI	400,773162
025762  740000 776107    \  _Q'    x??|#    BLKI	400,776107
025763  740000 776132    \  _Q:    x??|-    BLKI	400,776132
025764  740000 776015    \  _P-    x??|?    BLKI	400,776015
025765  316110 776572    9Q(_UZ    3DG}=    CAMN	2,776572(10)
025766  000000 000067         W    ?????    UUO00	0,67
025767  000000 000067         W    ?????    UUO00	0,67
025770  000000 000067         W    ?????    UUO00	0,67
025771  156064 236025    -PT3P5    ?C"<?    FSBMR	1,@236025(4)
025772  777776 773776    __^_?^    ??ww?    CONSO	774,@773776(16)
025773  770362 763360    _#R^;P    ~??fx    CONSO	700,@763360(2)
025774  000000 773776       _?^    ???w?    UUO00	0,773776
025775  760742 722731    ^'BZ79    |??%l    CONSO	604,722731(2)
025776  776400 774000    _T _@     ?P?x?    BLKI	764,774000
025777  402000 776713    @0 _W+    @@?}e    SETZM	0,776713
026000  402000 776574    @0 _U\    @@?}>    SETZM	0,776574
026001  264000 776716    6@ _W.    -??}g    JSR	0,776716
026002  260040 776450    6 @_TH    ,??}?    PUSHJ	1,776450
026003  335000 773777    ;H _?_    7 ?w?    SKIPGE	0,773777
026004  254000 777076    5@ _X^    +??~?    JRST	0,777076
026005  201040 773617    0(@_>/     "?wG    MOVEI	1,773617
026006  260040 773000    6 @_8     ,??v?    PUSHJ	1,773000
026007  621000 000010    R(   (    d ???    TLZ	0,10
026010  260040 776756    6 @_WN    ,??}w    PUSHJ	1,776756
026011  200240 777124    0"@_Y4     ??~*    MOVE	5,777124
026012  251240 776705    5*@_W%    **?}b    BLT	5,776705
026013  201040 773617    0(@_>/     "?wG    MOVEI	1,773617
026014  402000 776520    @0 _U0    @@?}(    SETZM	0,776520
026015  200240 776531    0"@_U9     ??},    MOVE	5,776531
026016  202240 776532    02@_U:     J?}-    MOVEM	5,776532
026017  630000 777125    S  _Y5    f??~*    TDZ	0,777125
026020  630000 777126    S  _Y6    f??~+    TDZ	0,777126
026021  402000 776516    @0 _U.    @@?}'    SETZM	0,776516
026022  402000 776521    @0 _U1    @@?}(    SETZM	0,776521
026023  201240 000001    0*@  !     *???    MOVEI	5,1
026024  202240 776712    02@_W*     J?}e    MOVEM	5,776712
026025  621000 040200    R( $"     d ?@@    TLZ	0,40200
026026  621000 420044    R( B D    d ? ?    TLZ	0,420044
026027  402000 776522    @0 _U2    @@?})    SETZM	0,776522
026030  402000 776541    @0 _UA    @@?}0    SETZM	0,776541
026031  205240 036411    0J@#T)    !*?=?    MOVSI	5,36411
026032  202250 776570    02H_UX     JG}<    MOVEM	5,776570(10)
026033  402000 776523    @0 _U3    @@?})    SETZM	0,776523
026034  402000 776517    @0 _U/    @@?}'    SETZM	0,776517
026035  260040 773353    6 @_;K    ,??vu    PUSHJ	1,773353
026036  603000 000040    P8   @    ``???    TLNE	0,40
026037  254000 774045    5@ _@E    +??x?    JRST	0,774045
026040  307240 000132    8Z@ !:    1j??-    CAIG	5,132
026041  305240 000101    8J@ !!    1*??     CAIGE	5,101
026042  254000 774045    5@ _@E    +??x?    JRST	0,774045
026043  254000 774506    5@ _E&    +??y#    JRST	0,774506
026044  200100 000005    0!   %     ????    MOVE	2,5
026045  306240 000177    8R@ !_    1J???    CAIN	5,177
026046  254000 774126    5@ _A6    +??x+    JRST	0,774126
026047  303240 000137    8:@ !?    0j??/    CAILE	5,137
026050  254000 774126    5@ _A6    +??x+    JRST	0,774126
026051  231100 000003    3)   #    &$???    IDIVI	2,3
026052  135203 777030    +J#_X8    ?(?~?    LDB	4,777030(3)
026053  305200 001042    8J  (B    1(???    CAIGE	4,1042
026054  254004 774000    5@$_@     +?'x?    JRST	0,774000(4)
026055  200240 776522    0"@_U2     ??})    MOVE	5,776522
026056  627000 000020    RX   0    e`???    TLZN	0,20
026057  254000 774604    5@ _F$    +??yB    JRST	0,774604
026060  260040 774656    6 @_FN    ,??yW    PUSHJ	1,774656
026061  254000 774134    5@ _A<    +??x.    JRST	0,774134
026062  623000 000002    R8   "    d`???    TLZE	0,2
026063  210240 000005    1"@  %    "????    MOVN	5,5
026064  607000 000004    PX   $    a`???    TLNN	0,4
026065  302200 001051    82  (I    0H???    CAIE	4,1051
026066  254000 774071    5@ _@Y    +??x?    JRST	0,774071
026067  254000 775051    5@ _HI    +??z?    JRST	0,775051
026070  250240 776712    5"@_W*    *??}e    EXCH	5,776712
026071  607000 040000    PX $      a`?@?    TLNN	0,40000
026072  223240 776712    2:@_W*    $j?}e    IMULB	5,776712
026073  623000 040000    R8 $      d`?@?    TLZE	0,40000
026074  233240 776712    3:@_W*    &j?}e    IDIVB	5,776712
026075  305200 001045    8J  (E    1(???    CAIGE	4,1045
026076  254004 774000    5@$_@     +?'x?    JRST	0,774000(4)
026077  273240 776521    7:@_U1    .j?}(    ADDB	5,776521
026100  305200 001102    8J  )"    1(??!    CAIGE	4,1102
026101  254004 774000    5@$_@     +?'x?    JRST	0,774000(4)
026102  270240 776516    7"@_U.    .??}'    ADD	5,776516
026103  603000 100000    P8 (      ``???    TLNE	0,100000
026104  500240 776516    H"@_U.    P??}'    HLL	5,776516
026105  202240 776516    02@_U.     J?}'    MOVEM	5,776516
026106  607000 000001    PX   !    a`???    TLNN	0,1
026107  200250 776567    0"H_UW     ?G};    MOVE	5,776567(10)
026110  402000 000002    @0   "    @@???    SETZM	0,2
026111  200300 776532    0# _U:     ??}-    MOVE	6,776532
026112  316300 776531    9S _U9    3L?},    CAMN	6,776531
026113  254000 774117    5@ _A/    +??x'    JRST	0,774117
026114  303200 001164    8:  )T    0h??:    CAILE	4,1164
026115  254000 774126    5@ _A6    +??x+    JRST	0,774126
026116  307200 001106    8Z  )&    1h??#    CAIG	4,1106
026117  254004 774000    5@$_@     +?'x?    JRST	0,774000(4)
026120  261040 774711    6(@_G)    ,"?yd    PUSH	1,774711
026121  336000 776520    ;P _U0    7@?}(    SKIPN	0,776520
026122  254004 774000    5@$_@     +?'x?    JRST	0,774000(4)
026123  201240 000125    0*@ !5     *??*    MOVEI	5,125
026124  254000 774127    5@ _A7    +??x+    JRST	0,774127
026125  201240 000077    0*@  _     *???    MOVEI	5,77
026126  201040 773617    0(@_>/     "?wG    MOVEI	1,773617
026127  260040 773431    6 @_<9    ,??w?    PUSHJ	1,773431
026130  201040 773617    0(@_>/     "?wG    MOVEI	1,773617
026131  260040 773330    6 @_;8    ,??vl    PUSHJ	1,773330
026132  254000 774014    5@ _@,    +??x?    JRST	0,774014
026133  200100 776532    0! _U:     ??}-    MOVE	2,776532
026134  260040 774662    6 @_FR    ,??yY    PUSHJ	1,774662
026135  306200 001045    8R  (E    1H???    CAIN	4,1045
026136  607000 000010    PX   (    a`???    TLNN	0,10
026137  254000 774177    5@ _A_    +??x?    JRST	0,774177
026140  135240 777127    +J@_Y7    ?*?~+    LDB	5,777127
026141  326240 774124    :R@_A4    5J?x*    JUMPN	5,774124
026142  302200 001045    82  (E    0H???    CAIE	4,1045
026143  256140 776756    5Q@_WN    +F?}w    XCT	3,776756
026144  210100 777130    1! _Y8    "??~,    MOVN	2,777130
026145  273100 776532    79 _U:    .d?}-    ADDB	2,776532
026146  260040 773000    6 @_8     ,??v?    PUSHJ	1,773000
026147  200240 776541    0"@_UA     ??}0    MOVE	5,776541
026150  661240 040000    V*@$      l*?@?    TLO	5,40000
026151  202242 000000    02B        J???    MOVEM	5,0(2)
026152  550240 776545    M"@_UE    Z??}2    HRRZ	5,776545
026153  603000 000002    P8   "    ``???    TLNE	0,2
026154  661240 400000    V*@@      l*???    TLO	5,400000
026155  202242 000001    02B  !     J???    MOVEM	5,1(2)
026156  401240 000000    @*@       @*???    SETZI	5,0
026157  254000 774063    5@ _@S    +??x?    JRST	0,774063
026160  260040 776756    6 @_WN    ,??}w    PUSHJ	1,776756
026161  200100 776531    0! _U9     ??},    MOVE	2,776531
026162  325100 774010    :I _@(    5$?x?    JUMPGE	2,774010
026163  200242 000000    0"B        ????    MOVE	5,0(2)
026164  334300 776531    ;C _U9    7??},    SKIPA	6,776531
026165  270300 777130    7# _Y8    .??~,    ADD	6,777130
026166  312246 000000    92F       2J0??    CAME	5,0(6)
026167  254000 774166    5@ _AV    +??x;    JRST	0,774166
026170  312100 000006    91   &    2D???    CAME	2,6
026171  254000 774175    5@ _A]    +??x>    JRST	0,774175
026172  260040 776424    6 @_T4    ,??}?    PUSHJ	1,776424
026173  260040 776756    6 @_WN    ,??}w    PUSHJ	1,776756
026174  270100 777130    7! _Y8    .??~,    ADD	2,777130
026175  254000 774163    5@ _AS    +??x9    JRST	0,774163
026176  200240 774203    0"@_B#     ??xA    MOVE	5,774203
026177  201300 776541    0+ _UA     ,?}0    MOVEI	6,776541
026200  200100 777131    0! _Y9     ??~,    MOVE	2,777131
026201  260040 776425    6 @_T5    ,??}?    PUSHJ	1,776425
026202  136240 000002    +R@  "    ?J???    IDPB	5,2
026203  202040 774341    00@_CA     B?xp    MOVEM	1,774341
026204  624000 000004    R@   $    e????    TRZA	0,4
026205  660000 000004    V    $    l????    TRO	0,4
026206  242240 777745    42@__E    (J??r    LSH	5,777745
026207  202250 776566    02H_UV     JG};    MOVEM	5,776566(10)
026210  200240 777131    0"@_Y9     ??~,    MOVE	5,777131
026211  202240 774336    02@_C>     J?xo    MOVEM	5,774336
026212  620000 000010    R    (    d????    TRZ	0,10
026213  403100 000006    @9   &    @d???    SETZB	2,6
026214  200340 774342    0#@_CB     ??xq    MOVE	7,774342
026215  134240 000007    +B@  '    ?????    ILDB	5,7
026216  303240 000040    8:@  @    0j???    CAILE	5,40
026217  301240 000073    8*@  [    0*???    CAIL	5,73
026220  365100 774216    >I _B.    =$?xG    SOJGE	2,774216
026221  327100 774216    :Y _B.    5d?xG    JUMPG	2,774216
026222  275240 000040    7J@  @    /*???    SUBI	5,40
026223  322240 774253    :2@_BK    4J?xU    JUMPE	5,774253
026224  327240 774236    :Z@_B>    5j?xO    JUMPG	5,774236
026225  137240 777132    +Z@_Y:    ?j?~-    DPB	5,777132
026226  620240 777774    R"@__\    d???~    TRZ	5,777774
026227  350000 000005    =    %    :????    AOS	0,5
026230  137240 777133    +Z@_Y;    ?j?~-    DPB	5,777133
026231  606000 000004    PP   $    a@???    TRNN	0,4
026232  254000 774311    5@ _C)    +??xd    JRST	0,774311
026233  135100 774335    +I _C=    ?$?xn    LDB	2,774335
026234  254000 774216    5@ _B.    +??xG    JRST	0,774216
026235  571245 777745    O*E__E    ^*/?r    HRREI	5,777745(5)
026236  321240 774245    :*@_BE    4*?xR    JUMPL	5,774245
026237  200300 000005    0#   %     ????    MOVE	6,5
026240  231300 000004    3+   $    &,???    IDIVI	6,4
026241  200347 774342    0#G_CB     ??xq    MOVE	7,774342(7)
026242  271346 000000    7+F       ..0??    ADDI	7,0(6)
026243  254000 774216    5@ _B.    +??xG    JRST	0,774216
026244  602000 000004    P0   $    `@???    TRNE	0,4
026245  254000 774331    5@ _C9    +??xl    JRST	0,774331
026246  134300 774336    +C _C>    ???xo    ILDB	6,774336
026247  302305 000133    83% !;    0L(?-    CAIE	6,133(5)
026250  254000 774257    5@ _BO    +??xW    JRST	0,774257
026251  254000 774216    5@ _B.    +??xG    JRST	0,774216
026252  602000 000004    P0   $    `@???    TRNE	0,4
026253  263040 000000    68@       ,b???    POPJ	1,0
026254  134300 774336    +C _C>    ???xo    ILDB	6,774336
026255  322300 774325    :3 _C5    4L?xj    JUMPE	6,774325
026256  262040 000002    60@  "    ,B???    POP	1,2
026257  262040 000007    60@  '    ,B???    POP	1,7
026260  262040 774335    60@_C=    ,B?xn    POP	1,774335
026261  262040 774336    60@_C>    ,B?xo    POP	1,774336
026262  350000 000002    =    "    :????    AOS	0,2
026263  137100 774335    +Y _C=    ?d?xn    DPB	2,774335
026264  135100 774335    +I _C=    ?$?xn    LDB	2,774335
026265  326100 774313    :Q _C+    5D?xe    JUMPN	2,774313
026266  312040 774341    90@_CA    2B?xp    CAME	1,774341
026267  254000 774257    5@ _BO    +??xW    JRST	0,774257
026270  205240 400000    0J@@      !*???    MOVSI	5,400000
026271  436240 776541    CR@_UA    GJ?}0    IORM	5,776541
026272  260040 774656    6 @_FN    ,??yW    PUSHJ	1,774656
026273  254000 774124    5@ _A4    +??x*    JRST	0,774124
026274  261040 000002    6(@  "    ,"???    PUSH	1,2
026275  260040 774661    6 @_FQ    ,??yX    PUSHJ	1,774661
026276  256340 776756    5S@_WN    +N?}w    XCT	7,776756
026277  312100 776572    91 _UZ    2D?}=    CAME	2,776572
026300  256100 776756    5Q _WN    +D?}w    XCT	2,776756
026301  262040 000002    60@  "    ,B???    POP	1,2
026302  202100 776572    01 _UZ     D?}=    MOVEM	2,776572
026303  274100 777130    7A _Y8    /??~,    SUB	2,777130
026304  200302 000000    0#"        ????    MOVE	6,0(2)
026305  603300 740000    P; \      `l?@?    TLNE	6,740000
026306  254000 774303    5@ _C#    +??xa    JRST	0,774303
026307  254000 774061    5@ _@Q    +??x?    JRST	0,774061
026310  201100 000000    0)         $???    MOVEI	2,0
026311  137100 774335    +Y _C=    ?d?xn    DPB	2,774335
026312  316040 774341    9P@_CA    3B?xp    CAMN	1,774341
026313  254000 774320    5@ _C0    +??xh    JRST	0,774320
026314  135241 777776    +JA__^    ?*???    LDB	5,777776(1)
026315  312241 000000    92A       2J???    CAME	5,0(1)
026316  254000 774263    5@ _BS    +??xY    JRST	0,774263
026317  261040 774336    6(@_C>    ,"?xo    PUSH	1,774336
026320  261040 774335    6(@_C=    ,"?xn    PUSH	1,774335
026321  261040 000007    6(@  '    ,"???    PUSH	1,7
026322  261040 000002    6(@  "    ,"???    PUSH	1,2
026323  254000 774216    5@ _B.    +??xG    JRST	0,774216
026324  200040 774341    0 @_CA     ??xp    MOVE	1,774341
026325  200250 776566    0"H_UV     ?G};    MOVE	5,776566(10)
026326  242240 000033    42@  ;    (J???    LSH	5,33
026327  254000 774063    5@ _@S    +??x?    JRST	0,774063
026330  660000 000010    V    (    l????    TRO	0,10
026331  201245 000133    0*E !;     *(?-    MOVEI	5,133(5)
026332  260040 773431    6 @_<9    ,??w?    PUSHJ	1,773431
026333  254000 774216    5@ _B.    +??xG    JRST	0,774216
026334  000210 776566     "(_UV    ??G};    UUO00	4,776566(10)
026335  440700 774337    D' _C?    H??xo    ANDCB	16,774337
026336  422130 342232    B18<2:    DECDM    ANDCMM	2,@342232(10)
026337  500000 000000    H         P????    HLL	0,0
026340  000000 773617       _>/    ???wG    UUO00	0,773617
026341  441100 774346    D) _CF    H$?xs    ANDCBI	2,774346
026342  331100 774346    ;) _CF    6$?xs    SKIPL	2,774346
026343  221100 774346    2) _CF    $$?xs    IMULI	2,774346
026344  111100 774346    )) _CF    ?$?xs    XX111	2,774346
026345  032040 106171    #0@(QY    ?B??<    UUO32	1,106171
026346  375447 050533    ?LG%%;    ?28Q-    SOSGE	11,50533(7)
026347  064557 040016    &EO$ .    ??x@?    UUO64	13,40016(17)
026350  040040 040145    $ @$!E    ???@2    UUO40	1,40145
026351  046041 044132    $PA$A:    ?B?H-    UUO46	1,44132(1)
026352  046063 042132    $PS$1:    ?C?D-    UUO46	1,@42132(3)
026353  046055 060132    $PM&!:    ?Bh`-    UUO46	1,60132(15)
026354  046044 066010    $PD&P(    ?B l?    UUO46	1,66010(4)
026355  135062 001040    +HR (@    ?#???    LDB	1,@1040(2)
026356  054040 055040    %@@%H@    ???Z?    UUO54	1,55040
026357  042040 002040    $0@ 0@    ?B???    UUO42	1,2040
026360  040046 063373    $ F&;[    ??0f}    UUO40	1,63373(6)
026361  051042 060040    %(B& @    ?"?`?    UUO51	1,60040(2)
026362  051161 054044    %)Q%@D    ?'?X?    UUO51	3,@54044(1)
026363  143051 166044    ,8I.PD    ?bIl?    FADB	1,166044(11)
026364  060143 016173    &!C!Q[    ????=    UUO60	3,16173(3)
026365  055057 066222    %HO&R2    ?"xlI    UUO55	1,66222(17)
026366  240247 355256    4"G=JN    (?;ZW    ASH	5,355256(7)
026367  314010 041044    9@($(D    3?@B?    CAMA	0,41044(10)
026370  044214 063065    $B,&8U    ??`f?    UUO44	4,63065(14)
026371  042001 040051    $0!$ I    ?@?@?    UUO42	0,40051(1)
026372  040141 143011    $!A,8)    ???F?    UUO40	3,143011(1)
026373  045232 063232    $J:&::    ?)PfM    UUO45	4,@63232(12)
026374  056232 055001    %R:%H!    ?IPZ?    UUO56	4,@55001(12)
026375  040216 141063    $".,(S    ??qB?    UUO40	4,141063(16)
026376  040010 051243    $ (%*C    ??@RQ    UUO40	0,51243(10)
026377  055065 054214    %HU%B,    ?#(XF    UUO55	1,@54214(5)
026400  010051 252044    ! I50D    ??JT?    UUO10	1,252044(11)
026401  051066 214002    %(V1@"    ?#2??    UUO51	1,@214002(6)
026402  045070 043366    $HX$;V    ?#@F{    UUO45	1,@43366(10)
026403  042054 064040    $0L&@@    ?B`h?    UUO42	1,64040(14)
026404  270041 057042    7 A%XB    .??^?    ADD	1,57042(1)
026405  052311 052062    %3)%0R    ?LHT?    UUO52	6,52062(11)
026406  063265 052046    &:U%0F    ?k(T?    UUO63	5,@52046(5)
026407  043137 070043    $9?' C    ?exp?    UUO43	2,@70043(17)
026410  265040 000155    6H@ !M    -"??6    JSP	1,155
026411  443002 316060    D8"9PP    H`???    ANDCBB	0,316060(2)
026412  065063 050346    &HS%#F    ?#?Ps    UUO65	1,@50346(3)
026413  324060 057060    :@P%XP    5??^?    JUMPA	1,@57060
026414  352052 063062    =0J&8R    :BPf?    AOSE	1,63062(12)
026415  040052 063155    $ J&9M    ??Pf6    UUO40	1,63155(12)
026416  052063 041040    %0S$(@    ?C?B?    UUO52	1,@41040(3)
026417  052062 341000    %0R<(     ?C?B?    UUO52	1,@341000(2)
026420  052040 040000    %0@$      ?B?@?    UUO52	1,40000
026421  040347 001041    $#G (A    ??8??    UUO40	7,1041(7)
026422  365062 057064    >HR%XT    =#?^?    SOJGE	1,@57064(2)
026423  371054 063050    ?(L&8H    >"`f?    SOSL	1,63050(14)
026424  371040 010040    ?(@! @    >"???    SOSL	1,10040
026425  043040 021043    $8@"(C    ?b?"?    UUO43	1,21043
026426  041413 420041    $,+B A    ?0\ ?    UUO41	10,420041(13)
026427  405063 057014    @HS%X,    A#?^?    ANDI	1,@57014(3)
026430  052431 063431    %49&<9    ?QHg?    UUO52	10,@63431(11)
026431  014051 431055    !@IC(M    ??L2?    UUO14	1,431055(11)
026432  431014 052065    C(,%0U    F `T?    XORI	0,52065(14)
026433  055430 063053    %L8&8K    ?1@f?    UUO55	10,@63053(10)
026434  051060 002040    %(P 0@    ?#???    UUO51	1,@2040
026435  137045 040054    +XE$ L    ?b(@?    DPB	1,40054(5)
026436  434341 047434    CCA$\<    G??O?    IOR	7,47434(1)
026437  056040 047040    %P@$X@    ?B?N?    UUO56	1,47040
026440  013500 041056    != $(N    ?t?B?    UUO13	12,41056
026441  044503 451500    $E#E-     ???S     UUO44	12,451500(3)
026442  451500 070057    E- ' O    J4?p?    SETCAI	12,70057
026443  062503 051462    &5#%,R    ?T?S?    UUO62	12,51462(3)
026444  451045 061254    E(E&*L    J"(bV    SETCAI	1,61254(5)
026445  500462 500462    H$RH$R    P????    HLL	11,@500462(2)
026446  462063 045064    F0S$HT    LC?J?    SETCMM	1,@45064(3)
026447  013072 214214    !8Z1B,    ?cR?F    UUO13	1,@214214(12)
026450  043515 055214    $=-%J,    ?thZF    UUO43	12,55214(15)
026451  043511 041214    $=)$*,    ?tHBF    UUO43	12,41214(11)
026452  214214 043213    1B,$:+    #?`FE    MOVM	4,43213(14)
026453  214507 507513    1E'H]+    #?=?%    MOVM	12,507513(7)
026454  513521 057214    I=1%Z,    Ru?^F    HLLZS	12,@57214(1)
026455  024543 010062    "EC! R    ?????    UUO24	13,10062(3)
026456  541054 062550    L(L&5H    X"`e4    HRRI	1,62550(14)
026457  010054 547062    ! LLXR    ??eN?    UUO10	1,547062(14)
026460  054015 232072    %@-30Z    ??j4?    UUO54	0,232072(15)
026461  232057 232223    30O323    &Bz4I    IDIVM	1,232223(17)
026462  014566 000044    !EV  D    ??0??    UUO14	13,@44(6)
026463  572063 572000    O0SO0     ^C?t?    HRREM	1,@572000(3)
026464  062572 054021    &5Z%@1    ?WPX?    UUO62	13,@54021(12)
026465  056602 072602    %V"'6"    ?X?uA    UUO56	14,72602(2)
026466  043602 057005    $>"%X%    ?x?^?    UUO43	14,57005(2)
026467  040434 341443    $$<<,C    ??cC?    UUO40	10,@341443(14)
026470  405240 000017    @J@  /    A*???    ANDI	5,17
026471  603000 020040    P8 " @    ``? ?    TLNE	0,20040
026472  254000 774536    5@ _E>    +??y/    JRST	0,774536
026473  200200 776522    0" _U2     ??})    MOVE	4,776522
026474  242200 000003    42   #    (H???    LSH	4,3
026475  270200 000005    7"   %    .????    ADD	4,5
026476  202200 776522    02 _U2     H?})    MOVEM	4,776522
026477  200200 776523    0" _U3     ??})    MOVE	4,776523
026500  221200 000012    2*   *    $(???    IMULI	4,12
026501  270200 000005    7"   %    .????    ADD	4,5
026502  202200 776523    02 _U3     H?})    MOVEM	4,776523
026503  344240 774522    <B@_E2    9??y)    AOJA	5,774522
026504  201245 000070    0*E  X     *(??    MOVEI	5,70(5)
026505  641000 020004    T( " $    h ? ?    TLC	0,20004
026506  627000 030024    RX # 4    e`?0?    TLZN	0,30024
026507  302240 000105    82@ !%    0J??"    CAIE	5,105
026510  665000 000020    VH   0    m ???    TLOA	0,20
026511  665000 010000    VH !      m ???    TLOA	0,10000
026512  254000 774521    5@ _E1    +??y(    JRST	0,774521
026513  627000 000002    RX   "    e`???    TLZN	0,2
026514  334300 776522    ;C _U2    7??})    SKIPA	6,776522
026515  210300 776522    1# _U2    "??})    MOVN	6,776522
026516  202300 776533    03 _U;     L?}-    MOVEM	6,776533
026517  402000 776523    @0 _U3    @@?})    SETZM	0,776523
026520  275240 000066    7J@  V    /*???    SUBI	5,66
026521  661000 000005    V(   %    l ???    TLO	0,5
026522  201200 000050    0*   H     (???    MOVEI	4,50
026523  250210 776570    5"(_UX    *?G}<    EXCH	4,776570(10)
026524  232210 776570    32(_UX    &HG}<    IDIVM	4,776570(10)
026525  220250 776570    2"H_UX    $?G}<    IMUL	5,776570(10)
026526  272240 776541    72@_UA    .J?}0    ADDM	5,776541
026527  254000 774036    5@ _@>    +??x?    JRST	0,774036
026530  250240 776517    5"@_U/    *??}'    EXCH	5,776517
026531  221240 000012    2*@  *    $*???    IMULI	5,12
026532  272240 776517    72@_U/    .J?}'    ADDM	5,776517
026533  660000 000001    V    !    l????    TRO	0,1
026534  254000 774036    5@ _@>    +??x?    JRST	0,774036
026535  603000 000040    P8   @    ``???    TLNE	0,40
026536  254000 774531    5@ _E9    +??y,    JRST	0,774531
026537  201300 000006    0+   &     ,???    MOVEI	6,6
026540  350000 774542    =  _EB    :??y1    AOS	0,774542
026541  201340 000000    0+@        .???    MOVEI	7,0
026542  205100 201400    0I 0,     !$???    MOVSI	2,201400
026543  622340 000001    R3@  !    dN???    TRZE	7,1
026544  164106 773605    .A&_>%    ??7wB    FMPR	2,773605(6)
026545  322340 774551    :3@_EI    4N?y4    JUMPE	7,774551
026546  242340 777777    43@___    (N???    LSH	7,777777
026547  367300 774544    >[ _ED    =l?y2    SOJG	6,774544
026550  205305 211000    0K%1(     !,*??    MOVSI	6,211000(5)
026551  161100 000006    .)   &    ?$???    FMPL	2,6
026552  336000 776537    ;P _U?    7@?}/    SKIPN	0,776537
026553  254000 774574    5@ _E\    +??y>    JRST	0,774574
026554  135340 777134    +K@_Y<    ?.?~.    LDB	7,777134
026555  135300 777135    +K _Y=    ?,?~.    LDB	6,777135
026556  621100 377000    R) ?X     d$?~?    TLZ	2,377000
026557  274340 000006    7C@  &    /????    SUB	7,6
026560  244107 000000    4A'       )?8??    ASHC	2,0(7)
026561  270140 776540    7!@_U@    .??}0    ADD	3,776540
026562  623140 400000    R9@@      df???    TLZE	3,400000
026563  350000 000002    =    "    :????    AOS	0,2
026564  200340 776537    0#@_U?     ??}/    MOVE	7,776537
026565  621340 377000    R+@?X     d.?~?    TLZ	7,377000
026566  270100 000007    7!   '    .????    ADD	2,7
026567  607100 001000    PY  (     ad???    TLNN	2,1000
026570  374000 000006    ?@   &    ?????    SOSA	0,6
026571  244100 777777    4A ___    )????    ASHC	2,777777
026572  132106 000001    +1&  !    ?D0??    FSC	2,1(6)
026573  202100 776537    01 _U?     D?}/    MOVEM	2,776537
026574  202140 776540    01@_U@     F?}0    MOVEM	3,776540
026575  322100 774602    :1 _F"    4D?yA    JUMPE	2,774602
026576  603140 200000    P9@0      `f???    TLNE	3,200000
026577  350000 000002    =    "    :????    AOS	0,2
026600  661100 000400    V)  $     l$???    TLO	2,400
026601  202100 776522    01 _U2     D?})    MOVEM	2,776522
026602  344240 774522    <B@_E2    9??y)    AOJA	5,774522
026603  607000 010000    PX !      a`???    TLNN	0,10000
026604  254000 774063    5@ _@S    +??x?    JRST	0,774063
026605  302200 001047    82  (G    0H???    CAIE	4,1047
026606  306200 001046    8R  (F    1H???    CAIN	4,1046
026607  662000 004000    V0  @     l@???    TROE	0,4000
026610  624000 004000    R@  @     e????    TRZA	0,4000
026611  254004 774000    5@$_@     +?'x?    JRST	0,774000(4)
026612  200340 776523    0#@_U3     ??})    MOVE	7,776523
026613  201300 773604    0+ _>$     ,?wB    MOVEI	6,773604
026614  623000 000002    R8   "    d`???    TLZE	0,2
026615  201300 773613    0+ _>+     ,?wE    MOVEI	6,773613
026616  334240 776533    ;B@_U;    7??}-    SKIPA	5,776533
026617  242340 777777    43@___    (N???    LSH	7,777777
026620  622340 000001    R3@  !    dN???    TRZE	7,1
026621  164246 000000    .BF       ??0??    FMPR	5,0(6)
026622  322340 774063    :3@_@S    4N?x?    JUMPE	7,774063
026623  364300 774620    >C _F0    =??yH    SOJA	6,774620
026624  200240 776544    0"@_UD     ??}2    MOVE	5,776544
026625  603000 000004    P8   $    ``???    TLNE	0,4
026626  200240 776523    0"@_U3     ??})    MOVE	5,776523
026627  202240 776522    02@_U2     J?})    MOVEM	5,776522
026630  667000 020005    VX " %    m`? ?    TLON	0,20005
026631  201240 000000    0*@        *???    MOVEI	5,0
026632  231240 000400    3*@ $     &*???    IDIVI	5,400
026633  332000 000005    ;0   %    6@???    SKIPE	0,5
026634  641240 243000    T*@48     h*?F?    TLC	5,243000
026635  641300 233000    T+ 38     h,?6?    TLC	6,233000
026636  141240 000006    ,*@  &    ?*???    FADL	5,6
026637  202240 776537    02@_U?     J?}/    MOVEM	5,776537
026640  202300 776540    03 _U@     L?}0    MOVEM	6,776540
026641  513000 774542    I8 _EB    R`?y1    HLLZS	0,774542
026642  201240 000045    0*@  E     *???    MOVEI	5,45
026643  254000 774523    5@ _E3    +??y)    JRST	0,774523
026644  334250 776567    ;BH_UW    7?G};    SKIPA	5,776567(10)
026645  201240 776626    0*@_V6     *?}K    MOVEI	5,776626
026646  202240 776522    02@_U2     J?})    MOVEM	5,776522
026647  661000 000005    V(   %    l ???    TLO	0,5
026650  621000 400040    R( @ @    d ???    TLZ	0,400040
026651  254000 774036    5@ _@>    +??x?    JRST	0,774036
026652  663000 000040    V8   @    l`???    TLOE	0,40
026653  661000 400000    V( @      l ???    TLO	0,400000
026654  254000 774036    5@ _@>    +??x?    JRST	0,774036
026655  200100 776572    0! _UZ     ??}=    MOVE	2,776572
026656  525300 237777    JK 3__    U,???    HRLOI	6,237777
026657  254000 774666    5@ _FV    +??y[    JRST	0,774666
026660  270100 777130    7! _Y8    .??~,    ADD	2,777130
026661  331000 000002    ;(   "    6 ???    SKIPL	0,2
026662  200120 773777    0!0_?_     ??w?    MOVE	2,@773777
026663  316100 776572    9Q _UZ    3D?}=    CAMN	2,776572
026664  263040 000000    68@       ,b???    POPJ	1,0
026665  200242 000000    0"B        ????    MOVE	5,0(2)
026666  430240 776541    C"@_UA    F??}0    XOR	5,776541
026667  607240 740000    PZ@\      aj?@?    TLNN	5,740000
026670  665300 100000    VK (      m,???    TLOA	6,100000
026671  612240 000006    Q2@  &    bJ???    TDNE	5,6
026672  254000 774661    5@ _FQ    +??yX    JRST	0,774661
026673  607240 340000    PZ@<      aj?@?    TLNN	5,340000
026674  254000 774661    5@ _FQ    +??yX    JRST	0,774661
026675  200242 000001    0"B  !     ????    MOVE	5,1(2)
026676  350001 000000    = !       :????    AOS	0,0(1)
026677  263040 000000    68@       ,b???    POPJ	1,0
026700  607000 000020    PX   0    a`???    TLNN	0,20
026701  254000 774712    5@ _G*    +??ye    JRST	0,774712
026702  260040 774656    6 @_FN    ,??yW    PUSHJ	1,774656
026703  254000 774726    5@ _G6    +??yk    JRST	0,774726
026704  201240 000002    0*@  "     *???    MOVEI	5,2
026705  603000 400000    P8 @      ``???    TLNE	0,400000
026706  201240 000001    0*@  !     *???    MOVEI	5,1
026707  137240 777136    +Z@_Y>    ?j?~/    DPB	5,777136
026710  254000 774131    5@ _A9    +??x,    JRST	0,774131
026711  607000 000001    PX   !    a`???    TLNN	0,1
026712  607000 400000    PX @      a`???    TLNN	0,400000
026713  254000 774126    5@ _A6    +??x+    JRST	0,774126
026714  200100 776515    0! _U-     ??}&    MOVE	2,776515
026715  202120 773777    010_?_     E?w?    MOVEM	2,@773777
026716  552100 776531    M1 _U9    ZD?},    HRRZM	2,776531
026717  202100 776572    01 _UZ     D?}=    MOVEM	2,776572
026720  515240 600000    IJ@P      S*???    HRLZI	5,600000
026721  412242 000000    A2B       BJ???    ANDCAM	5,0(2)
026722  253100 774724    59 _G4    *d?yj    AOBJN	2,774724
026723  253100 774722    59 _G2    *d?yi    AOBJN	2,774722
026724  254000 774010    5@ _@(    +??x?    JRST	0,774010
026725  200100 776531    0! _U9     ??},    MOVE	2,776531
026726  325100 774124    :I _A4    5$?x*    JUMPGE	2,774124
026727  260040 774657    6 @_FO    ,??yW    PUSHJ	1,774657
026730  254000 774131    5@ _A9    +??x,    JRST	0,774131
026731  260040 774734    6 @_G<    ,??yn    PUSHJ	1,774734
026732  254000 774730    5@ _G8    +??yl    JRST	0,774730
026733  200140 777130    0!@_Y8     ??~,    MOVE	3,777130
026734  273140 776531    79@_U9    .f?},    ADDB	3,776531
026735  200203 777776    0"#__^     ????    MOVE	4,777776(3)
026736  202202 000000    02"        H???    MOVEM	4,0(2)
026737  200203 777777    0"#___     ????    MOVE	4,777777(3)
026740  202202 000001    02"  !     H???    MOVEM	4,1(2)
026741  263040 000000    68@       ,b???    POPJ	1,0
026742  200110 776573    0!(_U[     ?G}=    MOVE	2,776573(10)
026743  201240 000002    0*@  "     *???    MOVEI	5,2
026744  137240 777136    +Z@_Y>    ?j?~/    DPB	5,777136
026745  200242 000001    0"B  !     ????    MOVE	5,1(2)
026746  260040 775770    6 @_OX    ,??{|    PUSHJ	1,775770
026747  254000 774131    5@ _A9    +??x,    JRST	0,774131
026750  254000 774131    5@ _A9    +??x,    JRST	0,774131
026751  603000 000040    P8   @    ``???    TLNE	0,40
026752  254000 775032    5@ _H:    +??z?    JRST	0,775032
026753  200200 776545    0" _UE     ??}2    MOVE	4,776545
026754  552200 776542    M2 _UB    ZH?}1    HRRZM	4,776542
026755  663000 001000    V8  (     l`???    TLOE	0,1000
026756  254000 774126    5@ _A6    +??x+    JRST	0,774126
026757  603000 001000    P8  (     ``???    TLNE	0,1000
026760  607000 000020    PX   0    a`???    TLNN	0,20
026761  254000 774126    5@ _A6    +??x+    JRST	0,774126
026762  260040 774656    6 @_FN    ,??yW    PUSHJ	1,774656
026763  254000 774771    5@ _GY    +??y|    JRST	0,774771
026764  315100 776515    9I _U-    3$?}&    CAMGE	2,776515
026765  254000 775002    5@ _H"    +??z?    JRST	0,775002
026766  201240 000001    0*@  !     *???    MOVEI	5,1
026767  137240 777136    +Z@_Y>    ?j?~/    DPB	5,777136
026770  210100 777130    1! _Y8    "??~,    MOVN	2,777130
026771  273120 773777    790_?_    .e?w?    ADDB	2,@773777
026772  550240 776531    M"@_U9    Z??},    HRRZ	5,776531
026773  275240 000002    7J@  "    /*???    SUBI	5,2
026774  504240 776531    HB@_U9    Q??},    HRL	5,776531
026775  542240 776531    L2@_U9    XJ?},    HRRM	5,776531
026776  335000 776531    ;H _U9    7 ?},    SKIPGE	0,776531
026777  251242 777777    5*B___    **???    BLT	5,777777(2)
027000  260040 773000    6 @_8     ,??v?    PUSHJ	1,773000
027001  200240 776542    0"@_UB     ??}1    MOVE	5,776542
027002  202242 000001    02B  !     J???    MOVEM	5,1(2)
027003  205240 040000    0J@$      !*?@?    MOVSI	5,40000
027004  437240 776541    CZ@_UA    Gj?}0    IORB	5,776541
027005  202242 000000    02B        J???    MOVEM	5,0(2)
027006  200100 776531    0! _U9     ??},    MOVE	2,776531
027007  325100 774131    :I _A9    5$?x,    JUMPGE	2,774131
027010  200240 776541    0"@_UA     ??}0    MOVE	5,776541
027011  312242 000000    92B       2J???    CAME	5,0(2)
027012  254000 775030    5@ _H8    +??z?    JRST	0,775030
027013  200140 776542    0!@_UB     ??}1    MOVE	3,776542
027014  335002 000001    ;H"  !    7 ???    SKIPGE	0,1(2)
027015  213000 000003    18   #    "`???    MOVNS	0,3
027016  261040 000002    6(@  "    ,"???    PUSH	1,2
027017  200102 000001    0!"  !     ????    MOVE	2,1(2)
027020  260040 775747    6 @_OG    ,??{s    PUSHJ	1,775747
027021  254000 774126    5@ _A6    +??x+    JRST	0,774126
027022  270140 000005    7!@  %    .????    ADD	3,5
027023  542140 000005    L1@  %    XF???    HRRM	3,5
027024  260040 775741    6 @_OA    ,??{p    PUSHJ	1,775741
027025  262040 000002    60@  "    ,B???    POP	1,2
027026  260040 774734    6 @_G<    ,??yn    PUSHJ	1,774734
027027  270100 777130    7! _Y8    .??~,    ADD	2,777130
027030  254000 775010    5@ _H(    +??z?    JRST	0,775010
027031  200120 773777    0!0_?_     ??w?    MOVE	2,@773777
027032  325100 774124    :I _A4    5$?x*    JUMPGE	2,774124
027033  200242 000000    0"B        ????    MOVE	5,0(2)
027034  270100 777130    7! _Y8    .??~,    ADD	2,777130
027035  312240 776541    92@_UA    2J?}0    CAME	5,776541
027036  254000 775033    5@ _H;    +??z?    JRST	0,775033
027037  202100 776572    01 _UZ     D?}=    MOVEM	2,776572
027040  254000 774131    5@ _A9    +??x,    JRST	0,774131
027041  665000 000300    VH  #     m ??`    TLOA	0,300
027042  661000 040100    V( $!     l ?@     TLO	0,40100
027043  254000 774027    5@ _@7    +??x?    JRST	0,774027
027044  254000 775047    5@ _HG    +??z?    JRST	0,775047
027045  661000 000002    V(   "    l ???    TLO	0,2
027046  661000 000100    V(  !     l ??     TLO	0,100
027047  254000 774024    5@ _@4    +??x?    JRST	0,774024
027050  311040 777137    9(@_Y?    2"?~/    CAML	1,777137
027051  254000 774126    5@ _A6    +??x+    JRST	0,774126
027052  261040 000000    6(@       ,"???    PUSH	1,0
027053  261040 776516    6(@_U.    ,"?}'    PUSH	1,776516
027054  261040 776521    6(@_U1    ,"?}(    PUSH	1,776521
027055  261040 776712    6(@_W*    ,"?}e    PUSH	1,776712
027056  350000 776520    =  _U0    :??}(    AOS	0,776520
027057  254000 774020    5@ _@0    +??x?    JRST	0,774020
027060  205200 000020    0J   0    !(???    MOVSI	4,20
027061  437200 776516    CZ _U.    Gh?}'    IORB	4,776516
027062  661000 000001    V(   !    l ???    TLO	0,1
027063  254000 774024    5@ _@4    +??x?    JRST	0,774024
027064  607000 200000    PX 0      a`???    TLNN	0,200000
027065  542240 775077    L2@_H_    XJ?z?    HRRM	5,775077
027066  200100 000005    0!   %     ????    MOVE	2,5
027067  513000 000005    I8   %    R`???    HLLZS	0,5
027070  135300 777140    +K _Y@    ?,?~0    LDB	6,777140
027071  231300 000007    3+   '    &,???    IDIVI	6,7
027072  242106 000027    41&  7    (D0??    LSH	2,27(6)
027073  270240 000002    7"@  "    .????    ADD	5,2
027074  270240 776516    7"@_U.    .??}'    ADD	5,776516
027075  663000 200000    V8 0      l`???    TLOE	0,200000
027076  505240 000000    HJ@       Q*???    HRLI	5,0
027077  202240 776516    02@_U.     J?}'    MOVEM	5,776516
027100  254000 775103    5@ _I#    +??z!    JRST	0,775103
027101  603000 000001    P8   !    ``???    TLNE	0,1
027102  661000 100000    V( (      l ???    TLO	0,100000
027103  621000 000102    R(  !"    d ??!    TLZ	0,102
027104  254000 774023    5@ _@3    +??x?    JRST	0,774023
027105  204240 776516    0B@_U.    !??}'    MOVS	5,776516
027106  375000 776520    ?H _U0    ? ?}(    SOSGE	0,776520
027107  254000 774126    5@ _A6    +??x+    JRST	0,774126
027110  262040 776712    60@_W*    ,B?}e    POP	1,776712
027111  262040 776521    60@_U1    ,B?}(    POP	1,776521
027112  262040 776516    60@_U.    ,B?}'    POP	1,776516
027113  262040 000000    60@       ,B???    POP	1,0
027114  661000 000001    V(   !    l ???    TLO	0,1
027115  603000 000100    P8  !     ``??     TLNE	0,100
027116  663000 000004    V8   $    l`???    TLOE	0,4
027117  254000 775123    5@ _I3    +??z)    JRST	0,775123
027120  202240 776522    02@_U2     J?})    MOVEM	5,776522
027121  254000 774031    5@ _@9    +??x?    JRST	0,774031
027122  273240 776516    7:@_U.    .j?}'    ADDB	5,776516
027123  254000 774030    5@ _@8    +??x?    JRST	0,774030
027124  374000 776544    ?@ _UD    ???}2    SOSA	0,776544
027125  260040 775210    6 @_J(    ,??zD    PUSHJ	1,775210
027126  370000 776544    ?  _UD    >??}2    SOS	0,776544
027127  260040 775251    6 @_JI    ,??zT    PUSHJ	1,775251
027130  627000 000040    RX   @    e`???    TLZN	0,40
027131  254000 775142    5@ _IB    +??z1    JRST	0,775142
027132  200100 776546    0! _UF     ??}3    MOVE	2,776546
027133  200242 776547    0"B_UG     ??}3    MOVE	5,776547(2)
027134  375000 000002    ?H   "    ? ???    SOSGE	0,2
027135  201100 000006    0)   &     $???    MOVEI	2,6
027136  202100 776546    01 _UF     D?}3    MOVEM	2,776546
027137  552240 776544    M2@_UD    ZJ?}2    HRRZM	5,776544
027140  254004 774000    5@$_@     +?'x?    JRST	0,774000(4)
027141  260040 776756    6 @_WN    ,??}w    PUSHJ	1,776756
027142  350240 776544    ="@_UD    :??}2    AOS	5,776544
027143  552240 776544    M2@_UD    ZJ?}2    HRRZM	5,776544
027144  552240 776545    M2@_UE    ZJ?}2    HRRZM	5,776545
027145  260040 776126    6 @_Q6    ,??|+    PUSHJ	1,776126
027146  201240 000057    0*@  O     *???    MOVEI	5,57
027147  603000 004000    P8  @     ``???    TLNE	0,4000
027150  201240 000041    0*@  A     *???    MOVEI	5,41
027151  260040 773431    6 @_<9    ,??w?    PUSHJ	1,773431
027152  621000 000010    R(   (    d ???    TLZ	0,10
027153  260040 773330    6 @_;8    ,??vl    PUSHJ	1,773330
027154  200100 776545    0! _UE     ??}2    MOVE	2,776545
027155  260040 775747    6 @_OG    ,??{s    PUSHJ	1,775747
027156  254000 774126    5@ _A6    +??x+    JRST	0,774126
027157  661000 000010    V(   (    l ???    TLO	0,10
027160  603000 004000    P8  @     ``???    TLNE	0,4000
027161  254000 774014    5@ _@,    +??x?    JRST	0,774014
027162  254000 776047    5@ _PG    +??|?    JRST	0,776047
027163  260040 775251    6 @_JI    ,??zT    PUSHJ	1,775251
027164  201200 001127    0*  )7     (??+    MOVEI	4,1127
027165  623000 000040    R8   @    d`???    TLZE	0,40
027166  254000 775133    5@ _I;    +??z-    JRST	0,775133
027167  254000 774010    5@ _@(    +??x?    JRST	0,774010
027170  623000 000040    R8   @    d`???    TLZE	0,40
027171  254000 773255    5@ _:M    +??vV    JRST	0,773255
027172  664000 002400    V@  4     m????    TROA	0,2400
027173  620000 000400    R   $     d????    TRZ	0,400
027174  664000 002000    V@  0     m????    TROA	0,2000
027175  665000 004000    VH  @     m ???    TLOA	0,4000
027176  621000 004000    R(  @     d ???    TLZ	0,4000
027177  603000 000001    P8   !    ``???    TLNE	0,1
027200  260040 775210    6 @_J(    ,??zD    PUSHJ	1,775210
027201  552240 776545    M2@_UE    ZJ?}2    HRRZM	5,776545
027202  254000 775153    5@ _IK    +??z5    JRST	0,775153
027203  623000 000040    R8   @    d`???    TLZE	0,40
027204  254000 775242    5@ _JB    +??zQ    JRST	0,775242
027205  260040 775251    6 @_JI    ,??zT    PUSHJ	1,775251
027206  254000 775202    5@ _J"    +??zA    JRST	0,775202
027207  316240 776544    9R@_UD    3J?}2    CAMN	5,776544
027210  263040 000000    68@       ,b???    POPJ	1,0
027211  350100 776546    =! _UF    :??}3    AOS	2,776546
027212  301100 000007    8)   '    0$???    CAIL	2,7
027213  403100 776546    @9 _UF    @d?}3    SETZB	2,776546
027214  250240 776544    5"@_UD    *??}2    EXCH	5,776544
027215  202242 776547    02B_UG     J?}3    MOVEM	5,776547(2)
027216  200240 776544    0"@_UD     ??}2    MOVE	5,776544
027217  553000 776544    M8 _UD    Z`?}2    HRRZS	0,776544
027220  263040 000000    68@       ,b???    POPJ	1,0
027221  627000 000040    RX   @    e`???    TLZN	0,40
027222  254000 775174    5@ _I\    +??z>    JRST	0,775174
027223  260040 773270    6 @_:X    ,??v\    PUSHJ	1,773270
027224  260040 773307    6 @_;'    ,??vc    PUSHJ	1,773307
027225  301240 000040    8*@  @    0*???    CAIL	5,40
027226  303240 000140    8:@ !@    0j??0    CAILE	5,140
027227  254000 773265    5@ _:U    +??vZ    JRST	0,773265
027230  260040 773303    6 @_;#    ,??va    PUSHJ	1,773303
027231  254000 775225    5@ _J5    +??zJ    JRST	0,775225
027232  607000 000001    PX   !    a`???    TLNN	0,1
027233  254000 774161    5@ _AQ    +??x8    JRST	0,774161
027234  261040 000005    6(@  %    ,"???    PUSH	1,5
027235  201240 000057    0*@  O     *???    MOVEI	5,57
027236  260040 773431    6 @_<9    ,??w?    PUSHJ	1,773431
027237  262040 000005    60@  %    ,B???    POP	1,5
027240  254000 775177    5@ _I_    +??z?    JRST	0,775177
027241  202250 776567    02H_UW     JG};    MOVEM	5,776567(10)
027242  260040 776305    6 @_S%    ,??|b    PUSHJ	1,776305
027243  254000 774126    5@ _A6    +??x+    JRST	0,774126
027244  200100 000005    0!   %     ????    MOVE	2,5
027245  260040 775747    6 @_OG    ,??{s    PUSHJ	1,775747
027246  254000 774126    5@ _A6    +??x+    JRST	0,774126
027247  254000 773244    5@ _:D    +??vR    JRST	0,773244
027250  603000 000010    P8   (    ``???    TLNE	0,10
027251  607000 000001    PX   !    a`???    TLNN	0,1
027252  254000 775734    5@ _O<    +??{n    JRST	0,775734
027253  200100 776531    0! _U9     ??},    MOVE	2,776531
027254  202300 776531    03 _U9     L?},    MOVEM	6,776531
027255  325100 775734    :I _O<    5$?{n    JUMPGE	2,775734
027256  550202 000001    M""  !    Z????    HRRZ	4,1(2)
027257  316200 776545    9R _UE    3H?}2    CAMN	4,776545
027260  260040 774734    6 @_G<    ,??yn    PUSHJ	1,774734
027261  270100 777130    7! _Y8    .??~,    ADD	2,777130
027262  254000 775256    5@ _JN    +??zW    JRST	0,775256
027263  664000 002400    V@  4     m????    TROA	0,2400
027264  620000 000400    R   $     d????    TRZ	0,400
027265  660000 002000    V   0     l????    TRO	0,2000
027266  254000 776047    5@ _PG    +??|?    JRST	0,776047
027267  202250 776567    02H_UW     JG};    MOVEM	5,776567(10)
027270  242240 777742    42@__B    (J??q    LSH	5,777742
027271  620240 000003    R"@  #    d????    TRZ	5,3
027272  260040 776401    6 @_T!    ,??}?    PUSHJ	1,776401
027273  260040 773332    6 @_;:    ,??vm    PUSHJ	1,773332
027274  201310 776567    0+(_UW     ,G};    MOVEI	6,776567(10)
027275  254000 776424    5@ _T4    +??}?    JRST	0,776424
027276  201100 002407    0)  4'     $???    MOVEI	2,2407
027277  271100 774516    7) _E.    .$?y'    ADDI	2,774516
027300  271100 001415    7)  ,-    .$???    ADDI	2,1415
027301  271100 777301    7) _[!    .$?~`    ADDI	2,777301
027302  271100 777453    7) _\K    .$???    ADDI	2,777453
027303  271100 776401    7) _T!    .$?}?    ADDI	2,776401
027304  265200 775320    6J _K0    -(?zh    JSP	4,775320
027305  623000 000001    R8   !    d`???    TLZE	0,1
027306  254000 775313    5@ _K+    +??ze    JRST	0,775313
027307  201100 777527    0) _]7     $??+    MOVEI	2,777527
027310  271100 776401    7) _T!    .$?}?    ADDI	2,776401
027311  265200 775320    6J _K0    -(?zh    JSP	4,775320
027312  363240 774126    >:@_A6    <j?x+    SOJLE	5,774126
027313  201105 777767    0)%__W     $/?{    MOVEI	2,777767(5)
027314  271100 000002    7)   "    .$???    ADDI	2,2
027315  271100 000010    7)   (    .$???    ADDI	2,10
027316  265200 775320    6J _K0    -(?zh    JSP	4,775320
027317  201204 002472    0*$ 4Z     ( ??    MOVEI	4,2472(4)
027320  231200 000005    3*   %    &(???    IDIVI	4,5
027321  552104 776703    M1$_W#    ZD'}a    HRRZM	2,776703(4)
027322  325000 774023    :H _@3    5 ?x?    JUMPGE	0,774023
027323  552104 776706    M1$_W&    ZD'}c    HRRZM	2,776706(4)
027324  254000 774131    5@ _A9    +??x,    JRST	0,774131
027325  505240 254000    HJ@5@     Q*?X?    HRLI	5,254000
027326  641000 400001    T( @ !    h ???    TLC	0,400001
027327  647000 400001    TX @ !    i`???    TLCN	0,400001
027330  202240 776625    02@_V5     J?}J    MOVEM	5,776625
027331  663000 000001    V8   !    l`???    TLOE	0,1
027332  254000 775337    5@ _K?    +??zo    JRST	0,775337
027333  332240 776625    ;2@_V5    6J?}J    SKIPE	5,776625
027334  607000 000001    PX   !    a`???    TLNN	0,1
027335  254000 774126    5@ _A6    +??x+    JRST	0,774126
027336  202240 776570    02@_UX     J?}<    MOVEM	5,776570
027337  260040 776756    6 @_WN    ,??}w    PUSHJ	1,776756
027340  260040 776501    6 @_U!    ,??}     PUSHJ	1,776501
027341  260040 775637    6 @_N?    ,??{O    PUSHJ	1,775637
027342  265240 776740    6J@_W@    -*?}p    JSP	5,776740
027343  256000 776570    5P _UX    +@?}<    XCT	0,776570
027344  254000 774000    5@ _@     +??x?    JRST	0,774000
027345  264000 776716    6@ _W.    -??}g    JSR	0,776716
027346  260040 776450    6 @_TH    ,??}?    PUSHJ	1,776450
027347  260040 776756    6 @_WN    ,??}w    PUSHJ	1,776756
027350  254000 774010    5@ _@(    +??x?    JRST	0,774010
027351  603000 000040    P8   @    ``???    TLNE	0,40
027352  254000 773314    5@ _;,    +??vf    JRST	0,773314
027353  202250 776567    02H_UW     JG};    MOVEM	5,776567(10)
027354  402000 776525    @0 _U5    @@?}*    SETZM	0,776525
027355  200300 000005    0#   %     ????    MOVE	6,5
027356  301300 000200    8+  "     0,??@    CAIL	6,200
027357  254000 775363    5@ _KS    +??zy    JRST	0,775363
027360  336000 773327    ;P _;7    7@?vk    SKIPN	0,773327
027361  242300 000001    43   !    (L???    LSH	6,1
027362  201240 000000    0*@        *???    MOVEI	5,0
027363  322300 774700    :3 _G     4L?y`    JUMPE	6,774700
027364  246240 000007    4R@  '    )J???    LSHC	5,7
027365  336000 776525    ;P _U5    7@?}*    SKIPN	0,776525
027366  322240 775363    :2@_KS    4J?zy    JUMPE	5,775363
027367  476000 776525    GP _U5    O@?}*    SETOM	0,776525
027370  270240 773327    7"@_;7    .??vk    ADD	5,773327
027371  260040 773431    6 @_<9    ,??w?    PUSHJ	1,773431
027372  254000 775363    5@ _KS    +??zy    JRST	0,775363
027373  462000 773033    F0 _8;    L@?v?    SETCMM	0,773033
027374  254000 773000    5@ _8     +??v?    JRST	0,773000
027375  000000 000000              ?????    UUO00	0,0
027376  266240 775426    6R@_L6    -J?{?    JSA	5,775426
027377  461150 552646    F)HM6F    L&EUS    SETCMI	3,552646(10)
027400  777777 775402    ____L"    ???{?    CONSO	774,@775402(17)
027401  266240 775426    6R@_L6    -J?{?    JSA	5,775426
027402  266240 770433    6R@_$;    -J?q?    JSA	5,770433
027403  777777 775405    ____L%    ???{?    CONSO	774,@775405(17)
027404  266240 775426    6R@_L6    -J?{?    JSA	5,775426
027405  266240 770441    6R@_$A    -J?q?    JSA	5,770441
027406  777777 775410    ____L(    ???{?    CONSO	774,@775410(17)
027407  266240 775426    6R@_L6    -J?{?    JSA	5,775426
027410  266240 770447    6R@_$G    -J?q?    JSA	5,770447
027411  777777 775413    ____L+    ???{?    CONSO	774,@775413(17)
027412  266240 775426    6R@_L6    -J?{?    JSA	5,775426
027413  266240 770455    6R@_$M    -J?q?    JSA	5,770455
027414  777777 775416    ____L.    ???{?    CONSO	774,@775416(17)
027415  266240 775426    6R@_L6    -J?{?    JSA	5,775426
027416  266240 770463    6R@_$S    -J?q?    JSA	5,770463
027417  777777 775421    ____L1    ???{?    CONSO	774,@775421(17)
027420  266240 775426    6R@_L6    -J?{?    JSA	5,775426
027421  266240 770471    6R@_$Y    -J?q?    JSA	5,770471
027422  777777 775424    ____L4    ???{?    CONSO	774,@775424(17)
027423  266240 775426    6R@_L6    -J?{?    JSA	5,775426
027424  266240 770477    6R@_$_    -J?q?    JSA	5,770477
027425  777427 775427    _\7_L7    ?q?{?    BLKI	774,@775427(7)
027426  542240 775456    L2@_LN    XJ?{?    HRRM	5,775456
027427  201245 001233    0*E *;     *(?M    MOVEI	5,1233(5)
027430  542240 775437    L2@_L?    XJ?{?    HRRM	5,775437
027431  201245 000001    0*E  !     *(??    MOVEI	5,1(5)
027432  542240 775441    L2@_LA    XJ?{?    HRRM	5,775441
027433  200245 776542    0"E_UB     ?/}1    MOVE	5,776542(5)
027434  502240 775462    H2@_LR    PJ?{?    HLLM	5,775462
027435  250240 775426    5"@_L6    *??{?    EXCH	5,775426
027436  332000 776633    ;0 _V;    6@?}M    SKIPE	0,776633
027437  256020 775437    5P0_L?    +A?{?    XCT	0,@775437
027440  377000 776634    ?X _V<    ?`?}N    SOSG	0,776634
027441  254000 775463    5@ _LS    +??{?    JRST	0,775463
027442  202240 776670    02@_VX     J?}\    MOVEM	5,776670
027443  135240 777141    +J@_YA    ?*?~0    LDB	5,777141
027444  301240 000264    8*@ "T    0*??Z    CAIL	5,264
027445  303240 000266    8:@ "V    0j??[    CAILE	5,266
027446  606240 000700    PR@ '     aJ??`    TRNN	5,700
027447  254000 775540    5@ _M@    +??{0    JRST	0,775540
027450  302240 000260    82@ "P    0J??X    CAIE	5,260
027451  306240 000256    8R@ "N    1J??W    CAIN	5,256
027452  254000 775540    5@ _M@    +??{0    JRST	0,775540
027453  200240 776670    0"@_VX     ??}\    MOVE	5,776670
027454  254120 775462    5A0_LR    +??{?    JRST	2,@775462
027455  256000 775400    5P _L     +@?{?    XCT	0,775400
027456  254020 775426    5@0_L6    +??{?    JRST	0,@775426
027457  350000 775426    =  _L6    :??{?    AOS	0,775426
027460  254020 775426    5@0_L6    +??{?    JRST	0,@775426
027461  000000 775456       _LN    ???{?    UUO00	0,775456
027462  264000 776716    6@ _W.    -??}g    JSR	0,776716
027463  260040 776450    6 @_TH    ,??}?    PUSHJ	1,776450
027464  370240 775437    ?"@_L?    >??{?    SOS	5,775437
027465  553000 000005    M8   %    Z`???    HRRZS	0,5
027466  260040 776130    6 @_Q8    ,??|,    PUSHJ	1,776130
027467  201240 000076    0*@  ^     *???    MOVEI	5,76
027470  260040 773431    6 @_<9    ,??w?    PUSHJ	1,773431
027471  337020 775441    ;X0_LA    7a?{?    SKIPG	0,@775441
027472  260040 773431    6 @_<9    ,??w?    PUSHJ	1,773431
027473  200240 775426    0"@_L6     ??{?    MOVE	5,775426
027474  502240 776626    H2@_V6    PJ?}K    HLLM	5,776626
027475  201245 777777    0*E___     */??    MOVEI	5,777777(5)
027476  260040 776126    6 @_Q6    ,??|+    PUSHJ	1,776126
027477  550260 775437    M"P_L?    Z??{?    HRRZ	5,@775437
027500  542240 775531    L2@_M9    XJ?{,    HRRM	5,775531
027501  554260 775437    MBP_L?    [??{?    HLRZ	5,@775437
027502  322240 775510    :2@_M(    4J?{$    JUMPE	5,775510
027503  260040 773330    6 @_;8    ,??vl    PUSHJ	1,773330
027504  554260 775437    MBP_L?    [??{?    HLRZ	5,@775437
027505  260040 775210    6 @_J(    ,??zD    PUSHJ	1,775210
027506  260040 775144    6 @_ID    ,??z2    PUSHJ	1,775144
027507  550100 775437    M! _L?    Z??{?    HRRZ	2,775437
027510  275100 776632    7I _V:    /$?}M    SUBI	2,776632
027511  231100 000003    3)   #    &$???    IDIVI	2,3
027512  201140 000001    0)@  !     &???    MOVEI	3,1
027513  242142 000000    41B       (F???    LSH	3,0(2)
027514  616140 776662    QQ@_VR    cF?}Y    TDNN	3,776662
027515  254000 774131    5@ _A9    +??x,    JRST	0,774131
027516  260040 773341    6 @_;A    ,??vp    PUSHJ	1,773341
027517  254000 775527    5@ _M7    +??{+    JRST	0,775527
027520  254000 774131    5@ _A9    +??x,    JRST	0,774131
027521  607000 000001    PX   !    a`???    TLNN	0,1
027522  201240 000001    0*@  !     *???    MOVEI	5,1
027523  202260 775441    02P_LA     K?{?    MOVEM	5,@775441
027524  550100 775437    M! _L?    Z??{?    HRRZ	2,775437
027525  260040 775724    6 @_O4    ,??{j    PUSHJ	1,775724
027526  260040 776756    6 @_WN    ,??}w    PUSHJ	1,776756
027527  260040 776501    6 @_U!    ,??}     PUSHJ	1,776501
027530  551100 775345    M) _KE    Z$?zr    HRRZI	2,775345
027531  260040 775747    6 @_OG    ,??{s    PUSHJ	1,775747
027532  254000 774126    5@ _A6    +??x+    JRST	0,774126
027533  202240 776516    02@_U.     J?}'    MOVEM	5,776516
027534  260040 775637    6 @_N?    ,??{O    PUSHJ	1,775637
027535  200240 776516    0"@_U.     ??}'    MOVE	5,776516
027536  254000 775543    5@ _MC    +??{1    JRST	0,775543
027537  200240 776670    0"@_VX     ??}\    MOVE	5,776670
027540  264000 776716    6@ _W.    -??}g    JSR	0,776716
027541  200260 775456    0"P_LN     ??{?    MOVE	5,@775456
027542  200100 775426    0! _L6     ??{?    MOVE	2,775426
027543  201200 000100    0*  !      (??     MOVEI	4,100
027544  202200 776571    02 _UY     H?}<    MOVEM	4,776571
027545  254000 775554    5@ _ML    +??{6    JRST	0,775554
027546  202100 000040    01   @     D???    MOVEM	2,40
027547  201100 000041    0)   A     $???    MOVEI	2,41
027550  371000 776571    ?( _UY    > ?}<    SOSL	0,776571
027551  260040 775747    6 @_OG    ,??{s    PUSHJ	1,775747
027552  254000 775610    5@ _N(    +??{D    JRST	0,775610
027553  202240 776570    02@_UX     J?}<    MOVEM	5,776570
027554  242240 777745    42@__E    (J??r    LSH	5,777745
027555  306240 000254    8R@ "L    1J??V    CAIN	5,254
027556  254000 775604    5@ _N$    +??{B    JRST	0,775604
027557  515740 776663    IO@_VS    S>?}Y    HRLZI	17,776663
027560  251740 000017    5/@  /    *>???    BLT	17,17
027561  201260 776570    0*P_UX     +?}<    MOVEI	5,@776570
027562  137240 777142    +Z@_YB    ?j?~1    DPB	5,777142
027563  135300 777143    +K _YC    ?,?~1    LDB	6,777143
027564  135240 777144    +J@_YD    ?*?~2    LDB	5,777144
027565  201040 773617    0(@_>/     "?wG    MOVEI	1,773617
027566  306240 000260    8R@ "P    1J??X    CAIN	5,260
027567  254000 775614    5@ _N,    +??{F    JRST	0,775614
027570  306240 000264    8R@ "T    1J??Z    CAIN	5,264
027571  254000 775624    5@ _N4    +??{J    JRST	0,775624
027572  306240 000265    8R@ "U    1J??Z    CAIN	5,265
027573  254000 775633    5@ _N;    +??{M    JRST	0,775633
027574  306240 000266    8R@ "V    1J??[    CAIN	5,266
027575  254000 775620    5@ _N0    +??{H    JRST	0,775620
027576  200100 776570    0! _UX     ??}<    MOVE	2,776570
027577  606240 000700    PR@ '     aJ??`    TRNN	5,700
027600  254000 775547    5@ _MG    +??{3    JRST	0,775547
027601  306240 000256    8R@ "N    1J??W    CAIN	5,256
027602  254000 775551    5@ _MI    +??{4    JRST	0,775551
027603  201240 776570    0*@_UX     *?}<    MOVEI	5,776570
027604  542240 775456    L2@_LN    XJ?{?    HRRM	5,775456
027605  201240 775456    0*@_LN     *?{?    MOVEI	5,775456
027606  254000 776740    5@ _W@    +??}p    JRST	0,776740
027607  260040 776450    6 @_TH    ,??}?    PUSHJ	1,776450
027610  264000 776716    6@ _W.    -??}g    JSR	0,776716
027611  264000 775376    6@ _K^    -??z?    JSR	0,775376
027612  254000 774126    5@ _A6    +??x+    JRST	0,774126
027613  137300 777145    +[ _YE    ?l?~2    DPB	6,777145
027614  402000 776712    @0 _W*    @@?}e    SETZM	0,776712
027615  200240 776570    0"@_UX     ??}<    MOVE	5,776570
027616  254000 776741    5@ _WA    +??}p    JRST	0,776741
027617  200240 775426    0"@_L6     ??{?    MOVE	5,775426
027620  504240 776570    HB@_UX    Q??}<    HRL	5,776570
027621  250246 776663    5"F_VS    *?7}Y    EXCH	5,776663(6)
027622  254000 775626    5@ _N6    +??{K    JRST	0,775626
027623  200240 775426    0"@_L6     ??{?    MOVE	5,775426
027624  500240 776626    H"@_V6    P??}K    HLL	5,776626
027625  200100 776570    0! _UX     ??}<    MOVE	2,776570
027626  260040 775741    6 @_OA    ,??{p    PUSHJ	1,775741
027627  350000 776570    =  _UX    :??}<    AOS	0,776570
027630  200240 776570    0"@_UX     ??}<    MOVE	5,776570
027631  254000 776740    5@ _W@    +??}p    JRST	0,776740
027632  200200 775426    0" _L6     ??{?    MOVE	4,775426
027633  500200 776626    H" _V6    P??}K    HLL	4,776626
027634  202206 776663    02&_VS     H7}Y    MOVEM	4,776663(6)
027635  254000 775631    5@ _N9    +??{L    JRST	0,775631
027636  200140 775612    0!@_N*     ??{E    MOVE	3,775612
027637  332103 001234    ;1# *<    6D??N    SKIPE	2,1234(3)
027640  260040 775747    6 @_OG    ,??{s    PUSHJ	1,775747
027641  254000 775646    5@ _NF    +??{S    JRST	0,775646
027642  202243 000002    02C  "     J???    MOVEM	5,2(3)
027643  200240 000003    0"@  #     ????    MOVE	5,3
027644  260040 775741    6 @_OA    ,??{p    PUSHJ	1,775741
027645  271140 000003    7)@  #    .&???    ADDI	3,3
027646  317140 777146    9Y@_YF    3f?~3    CAMG	3,777146
027647  254000 775640    5@ _N@    +??{P    JRST	0,775640
027650  263040 000000    68@       ,b???    POPJ	1,0
027651  201140 776657    0)@_VO     &?}W    MOVEI	3,776657
027652  200243 776546    0"C_UF     ??}3    MOVE	5,776546(3)
027653  332103 000000    ;1#       6D???    SKIPE	2,0(3)
027654  260040 775741    6 @_OA    ,??{p    PUSHJ	1,775741
027655  275140 000003    7I@  #    /&???    SUBI	3,3
027656  301140 776632    8)@_V:    0&?}M    CAIL	3,776632
027657  254000 775653    5@ _NK    +??{U    JRST	0,775653
027660  263040 000000    68@       ,b???    POPJ	1,0
027661  623000 000001    R8   !    d`???    TLZE	0,1
027662  254000 775672    5@ _NZ    +??{]    JRST	0,775672
027663  622000 000001    R0   !    d@???    TRZE	0,1
027664  254000 775676    5@ _N^    +??{_    JRST	0,775676
027665  200240 777147    0"@_YG     ??~3    MOVE	5,777147
027666  402000 776632    @0 _V:    @@?}M    SETZM	0,776632
027667  251240 776661    5*@_VQ    **?}X    BLT	5,776661
027670  254000 774010    5@ _@(    +??x?    JRST	0,774010
027671  626000 000001    RP   !    e@???    TRZN	0,1
027672  254000 775710    5@ _O(    +??{d    JRST	0,775710
027673  200100 000005    0!   %     ????    MOVE	2,5
027674  660000 000002    V    "    l????    TRO	0,2
027675  200240 776517    0"@_U/     ??}'    MOVE	5,776517
027676  301240 000001    8*@  !    0*???    CAIL	5,1
027677  303240 000010    8:@  (    0j???    CAILE	5,10
027700  254000 774126    5@ _A6    +??x+    JRST	0,774126
027701  221240 000003    2*@  #    $*???    IMULI	5,3
027702  271240 776627    7*@_V7    .*?}K    ADDI	5,776627
027703  626000 000002    RP   "    e@???    TRZN	0,2
027704  254000 776203    5@ _R#    +??|A    JRST	0,776203
027705  250100 000005    5!   %    *????    EXCH	2,5
027706  254000 775721    5@ _O1    +??{h    JRST	0,775721
027707  201100 776632    0) _V:     $?}M    MOVEI	2,776632
027710  550202 000000    M""       Z????    HRRZ	4,0(2)
027711  302205 000000    82%       0H(??    CAIE	4,0(5)
027712  336002 000000    ;P"       7@???    SKIPN	0,0(2)
027713  254000 775721    5@ _O1    +??{h    JRST	0,775721
027714  271100 000003    7)   #    .$???    ADDI	2,3
027715  307100 776657    8Y _VO    1d?}W    CAIG	2,776657
027716  254000 775711    5@ _O)    +??{d    JRST	0,775711
027717  254000 774126    5@ _A6    +??x+    JRST	0,774126
027720  202242 000000    02B        J???    MOVEM	5,0(2)
027721  402002 000001    @0"  !    @@???    SETZM	0,1(2)
027722  402002 000002    @0"  "    @@???    SETZM	0,2(2)
027723  275100 776632    7I _V:    /$?}M    SUBI	2,776632
027724  231100 000003    3)   #    &$???    IDIVI	2,3
027725  201140 000001    0)@  !     &???    MOVEI	3,1
027726  242142 000000    41B       (F???    LSH	3,0(2)
027727  412140 776662    A1@_VR    BF?}Y    ANDCAM	3,776662
027730  603000 400000    P8 @      ``???    TLNE	0,400000
027731  436140 776662    CQ@_VR    GF?}Y    IORM	3,776662
027732  263040 000000    68@       ,b???    POPJ	1,0
027733  202250 776567    02H_UW     JG};    MOVEM	5,776567(10)
027734  200100 776545    0! _UE     ??}2    MOVE	2,776545
027735  623000 000010    R8   (    d`???    TLZE	0,10
027736  607000 000001    PX   !    a`???    TLNN	0,1
027737  263040 000000    68@       ,b???    POPJ	1,0
027740  606100 777760    PQ __P    aD??x    TRNN	2,777760
027741  254000 775745    5@ _OE    +??{r    JRST	0,775745
027742  202242 000000    02B        J???    MOVEM	5,0(2)
027743  263040 000000    68@       ,b???    POPJ	1,0
027744  202242 776663    02B_VS     J?}Y    MOVEM	5,776663(2)
027745  263040 000000    68@       ,b???    POPJ	1,0
027746  200240 776624    0"@_V4     ??}J    MOVE	5,776624
027747  305242 000000    8JB       1*???    CAIGE	5,0(2)
027750  263040 000000    68@       ,b???    POPJ	1,0
027751  200242 000000    0"B        ????    MOVE	5,0(2)
027752  606100 777760    PQ __P    aD??x    TRNN	2,777760
027753  200242 776663    0"B_VS     ??}Y    MOVE	5,776663(2)
027754  254000 774677    5@ _F_    +??y_    JRST	0,774677
027755  202240 776542    02@_UB     J?}1    MOVEM	5,776542
027756  661000 001000    V(  (     l ???    TLO	0,1000
027757  254000 775763    5@ _OS    +??{y    JRST	0,775763
027760  661000 002000    V(  0     l ???    TLO	0,2000
027761  552240 776543    M2@_UC    ZJ?}1    HRRZM	5,776543
027762  603000 000040    P8   @    ``???    TLNE	0,40
027763  254000 773236    5@ _:>    +??vO    JRST	0,773236
027764  607000 000001    PX   !    a`???    TLNN	0,1
027765  254000 774126    5@ _A6    +??x+    JRST	0,774126
027766  254000 774021    5@ _@1    +??x?    JRST	0,774021
027767  403300 000003    @;   #    @l???    SETZB	6,3
027770  205300 600000    0K P      !,???    MOVSI	6,600000
027771  200100 776572    0! _UZ     ??}=    MOVE	2,776572
027772  202110 776572    01(_UZ     DG}=    MOVEM	2,776572(10)
027773  205340 740000    0K@\      !.?@?    MOVSI	7,740000
027774  335000 000005    ;H   %    7 ???    SKIPGE	0,5
027775  205140 400000    0I@@      !&???    MOVSI	3,400000
027776  200200 777150    0" _YH     ??~4    MOVE	4,777150
027777  372335 414054    ?3=A@L    >Ml??    SOSE	6,@414054(15)
030000  000001 000000      !       ?????    UUO00	0,0(1)
030001  000001 000000      !       ?????    UUO00	0,0(1)
030002  000001 000000      !       ?????    UUO00	0,0(1)
030003  000001 000000      !       ?????    UUO00	0,0(1)
030004  000001 000000      !       ?????    UUO00	0,0(1)
030005  000001 000000      !       ?????    UUO00	0,0(1)
030006  000001 000000      !       ?????    UUO00	0,0(1)
030007  000001 000000      !       ?????    UUO00	0,0(1)
030010  000001 000000      !       ?????    UUO00	0,0(1)
030011  000001 000000      !       ?????    UUO00	0,0(1)
030012  000001 000000      !       ?????    UUO00	0,0(1)
030013  000001 000000      !       ?????    UUO00	0,0(1)
030014  000001 000000      !       ?????    UUO00	0,0(1)
030015  000001 000000      !       ?????    UUO00	0,0(1)
030016  000001 000000      !       ?????    UUO00	0,0(1)
030017  000001 000000      !       ?????    UUO00	0,0(1)
030020  000001 000000      !       ?????    UUO00	0,0(1)
030021  000001 000000      !       ?????    UUO00	0,0(1)
030022  000001 000000      !       ?????    UUO00	0,0(1)
030023  000001 000000      !       ?????    UUO00	0,0(1)
030024  000001 000000      !       ?????    UUO00	0,0(1)
030025  000001 000000      !       ?????    UUO00	0,0(1)
030026  000001 000000      !       ?????    UUO00	0,0(1)
030027  000001 000000      !       ?????    UUO00	0,0(1)
030030  000001 000000      !       ?????    UUO00	0,0(1)
030031  000001 000000      !       ?????    UUO00	0,0(1)
030032  000001 000000      !       ?????    UUO00	0,0(1)
030033  000001 000000      !       ?????    UUO00	0,0(1)
030034  000001 000000      !       ?????    UUO00	0,0(1)
030035  000001 000000      !       ?????    UUO00	0,0(1)
030036  000001 000000      !       ?????    UUO00	0,0(1)
030037  000001 000000      !       ?????    UUO00	0,0(1)
030040  000001 000000      !       ?????    UUO00	0,0(1)
030041  000001 000000      !       ?????    UUO00	0,0(1)
030042  000001 000000      !       ?????    UUO00	0,0(1)
030043  000001 000000      !       ?????    UUO00	0,0(1)
030044  000001 000000      !       ?????    UUO00	0,0(1)
030045  000001 000000      !       ?????    UUO00	0,0(1)
030046  000001 000000      !       ?????    UUO00	0,0(1)
030047  000001 000000      !       ?????    UUO00	0,0(1)
030050  000001 000000      !       ?????    UUO00	0,0(1)
030051  000001 000000      !       ?????    UUO00	0,0(1)
030052  000001 000000      !       ?????    UUO00	0,0(1)
030053  000001 000000      !       ?????    UUO00	0,0(1)
030054  000001 000000      !       ?????    UUO00	0,0(1)
030055  000001 000000      !       ?????    UUO00	0,0(1)
030056  000001 000000      !       ?????    UUO00	0,0(1)
030057  000001 000000      !       ?????    UUO00	0,0(1)
030060  000001 000000      !       ?????    UUO00	0,0(1)
030061  000001 000000      !       ?????    UUO00	0,0(1)
030062  000001 000000      !       ?????    UUO00	0,0(1)
030063  000001 000000      !       ?????    UUO00	0,0(1)
030064  000001 000000      !       ?????    UUO00	0,0(1)
030065  000001 000000      !       ?????    UUO00	0,0(1)
030066  000001 000000      !       ?????    UUO00	0,0(1)
030067  000001 000000      !       ?????    UUO00	0,0(1)
030070  000001 000000      !       ?????    UUO00	0,0(1)
030071  000001 000000      !       ?????    UUO00	0,0(1)
030072  000001 000000      !       ?????    UUO00	0,0(1)
030073  000001 000000      !       ?????    UUO00	0,0(1)
030074  000001 000000      !       ?????    UUO00	0,0(1)
030075  000001 000000      !       ?????    UUO00	0,0(1)
030076  000001 000000      !       ?????    UUO00	0,0(1)
030077  000001 000000      !       ?????    UUO00	0,0(1)
030100  000001 000000      !       ?????    UUO00	0,0(1)
030101  000001 000000      !       ?????    UUO00	0,0(1)
030102  000001 000000      !       ?????    UUO00	0,0(1)
030103  000001 000000      !       ?????    UUO00	0,0(1)
030104  000001 000000      !       ?????    UUO00	0,0(1)
030105  000001 000000      !       ?????    UUO00	0,0(1)
030106  000001 000000      !       ?????    UUO00	0,0(1)
030107  000001 000000      !       ?????    UUO00	0,0(1)
030110  000001 000000      !       ?????    UUO00	0,0(1)
030111  000001 000000      !       ?????    UUO00	0,0(1)
030112  000001 000000      !       ?????    UUO00	0,0(1)
030113  000001 000000      !       ?????    UUO00	0,0(1)
030114  000001 000000      !       ?????    UUO00	0,0(1)
030115  000001 000000      !       ?????    UUO00	0,0(1)
030116  000001 000000      !       ?????    UUO00	0,0(1)
030117  000001 000000      !       ?????    UUO00	0,0(1)
030120  000001 000000      !       ?????    UUO00	0,0(1)
030121  000001 000000      !       ?????    UUO00	0,0(1)
030122  000001 000000      !       ?????    UUO00	0,0(1)
030123  000001 000000      !       ?????    UUO00	0,0(1)
030124  000001 000000      !       ?????    UUO00	0,0(1)
030125  000001 000000      !       ?????    UUO00	0,0(1)
030126  000001 000000      !       ?????    UUO00	0,0(1)
030127  000001 000000      !       ?????    UUO00	0,0(1)
030130  000001 000000      !       ?????    UUO00	0,0(1)
030131  000001 000000      !       ?????    UUO00	0,0(1)
030132  000001 000000      !       ?????    UUO00	0,0(1)
030133  000001 000000      !       ?????    UUO00	0,0(1)
030134  000001 000000      !       ?????    UUO00	0,0(1)
030135  000001 000000      !       ?????    UUO00	0,0(1)
030136  000001 000000      !       ?????    UUO00	0,0(1)
030137  000001 000000      !       ?????    UUO00	0,0(1)
030140  000001 000000      !       ?????    UUO00	0,0(1)
030141  000001 000000      !       ?????    UUO00	0,0(1)
030142  000001 000000      !       ?????    UUO00	0,0(1)
030143  000001 000000      !       ?????    UUO00	0,0(1)
030144  000001 000000      !       ?????    UUO00	0,0(1)
030145  000001 000000      !       ?????    UUO00	0,0(1)
030146  000001 000000      !       ?????    UUO00	0,0(1)
030147  000001 000000      !       ?????    UUO00	0,0(1)
030150  000001 000000      !       ?????    UUO00	0,0(1)
030151  000001 000000      !       ?????    UUO00	0,0(1)
030152  000001 000000      !       ?????    UUO00	0,0(1)
030153  000001 000000      !       ?????    UUO00	0,0(1)
030154  000001 000000      !       ?????    UUO00	0,0(1)
030155  000001 000000      !       ?????    UUO00	0,0(1)
030156  000001 000000      !       ?????    UUO00	0,0(1)
030157  000001 000000      !       ?????    UUO00	0,0(1)
030160  000001 000000      !       ?????    UUO00	0,0(1)
030161  000001 000000      !       ?????    UUO00	0,0(1)
030162  000001 000000      !       ?????    UUO00	0,0(1)
030163  000001 000000      !       ?????    UUO00	0,0(1)
030164  000001 000000      !       ?????    UUO00	0,0(1)
030165  000001 000000      !       ?????    UUO00	0,0(1)
030166  000001 000000      !       ?????    UUO00	0,0(1)
030167  000001 000000      !       ?????    UUO00	0,0(1)
030170  000001 000000      !       ?????    UUO00	0,0(1)
030171  000001 000000      !       ?????    UUO00	0,0(1)
030172  000001 000000      !       ?????    UUO00	0,0(1)
030173  000001 000000      !       ?????    UUO00	0,0(1)
030174  000001 000000      !       ?????    UUO00	0,0(1)
030175  000001 000000      !       ?????    UUO00	0,0(1)
030176  000001 000000      !       ?????    UUO00	0,0(1)
030177  000001 000000      !       ?????    UUO00	0,0(1)
030200  000001 000000      !       ?????    UUO00	0,0(1)
030201  000001 000000      !       ?????    UUO00	0,0(1)
030202  000001 000000      !       ?????    UUO00	0,0(1)
030203  000001 000000      !       ?????    UUO00	0,0(1)
030204  000001 000000      !       ?????    UUO00	0,0(1)
030205  000001 000000      !       ?????    UUO00	0,0(1)
030206  000001 000000      !       ?????    UUO00	0,0(1)
030207  000001 000000      !       ?????    UUO00	0,0(1)
030210  000001 000000      !       ?????    UUO00	0,0(1)
030211  000001 000000      !       ?????    UUO00	0,0(1)
030212  000001 000000      !       ?????    UUO00	0,0(1)
030213  000001 000000      !       ?????    UUO00	0,0(1)
030214  000001 000000      !       ?????    UUO00	0,0(1)
030215  000001 000000      !       ?????    UUO00	0,0(1)
030216  000001 000000      !       ?????    UUO00	0,0(1)
030217  000001 000000      !       ?????    UUO00	0,0(1)
030220  000001 000000      !       ?????    UUO00	0,0(1)
030221  000001 000000      !       ?????    UUO00	0,0(1)
030222  000001 000000      !       ?????    UUO00	0,0(1)
030223  000001 000000      !       ?????    UUO00	0,0(1)
030224  000001 000000      !       ?????    UUO00	0,0(1)
030225  000001 000000      !       ?????    UUO00	0,0(1)
030226  000001 000000      !       ?????    UUO00	0,0(1)
030227  000001 000000      !       ?????    UUO00	0,0(1)
030230  000001 000000      !       ?????    UUO00	0,0(1)
030231  000001 000000      !       ?????    UUO00	0,0(1)
030232  000001 000000      !       ?????    UUO00	0,0(1)
030233  000001 000000      !       ?????    UUO00	0,0(1)
030234  000001 000000      !       ?????    UUO00	0,0(1)
030235  000001 000000      !       ?????    UUO00	0,0(1)
030236  000001 000000      !       ?????    UUO00	0,0(1)
030237  000001 000000      !       ?????    UUO00	0,0(1)
030240  000001 000000      !       ?????    UUO00	0,0(1)
030241  000001 000000      !       ?????    UUO00	0,0(1)
030242  000001 000000      !       ?????    UUO00	0,0(1)
030243  000001 000000      !       ?????    UUO00	0,0(1)
030244  000001 000000      !       ?????    UUO00	0,0(1)
030245  000001 000000      !       ?????    UUO00	0,0(1)
030246  000001 000000      !       ?????    UUO00	0,0(1)
030247  000001 000000      !       ?????    UUO00	0,0(1)
030250  000001 000000      !       ?????    UUO00	0,0(1)
030251  000001 000000      !       ?????    UUO00	0,0(1)
030252  000001 000000      !       ?????    UUO00	0,0(1)
030253  000001 000000      !       ?????    UUO00	0,0(1)
030254  000001 000000      !       ?????    UUO00	0,0(1)
030255  000001 000000      !       ?????    UUO00	0,0(1)
030256  000001 000000      !       ?????    UUO00	0,0(1)
030257  000001 000000      !       ?????    UUO00	0,0(1)
030260  000001 000000      !       ?????    UUO00	0,0(1)
030261  000001 000000      !       ?????    UUO00	0,0(1)
030262  000001 000000      !       ?????    UUO00	0,0(1)
030263  000001 000000      !       ?????    UUO00	0,0(1)
030264  000001 000000      !       ?????    UUO00	0,0(1)
030265  000001 000000      !       ?????    UUO00	0,0(1)
030266  000001 000000      !       ?????    UUO00	0,0(1)
030267  000001 000000      !       ?????    UUO00	0,0(1)
030270  000001 000000      !       ?????    UUO00	0,0(1)
030271  000001 000000      !       ?????    UUO00	0,0(1)
030272  000001 000000      !       ?????    UUO00	0,0(1)
030273  000001 000000      !       ?????    UUO00	0,0(1)
030274  000001 000000      !       ?????    UUO00	0,0(1)
030275  000001 000000      !       ?????    UUO00	0,0(1)
030276  000001 000000      !       ?????    UUO00	0,0(1)
030277  000001 000000      !       ?????    UUO00	0,0(1)
030300  000001 000000      !       ?????    UUO00	0,0(1)
030301  000001 000000      !       ?????    UUO00	0,0(1)
030302  000001 000000      !       ?????    UUO00	0,0(1)
030303  000001 000000      !       ?????    UUO00	0,0(1)
030304  000001 000000      !       ?????    UUO00	0,0(1)
030305  000001 000000      !       ?????    UUO00	0,0(1)
030306  000001 000000      !       ?????    UUO00	0,0(1)
030307  000001 000000      !       ?????    UUO00	0,0(1)
030310  000001 000000      !       ?????    UUO00	0,0(1)
030311  000001 000000      !       ?????    UUO00	0,0(1)
030312  000001 000000      !       ?????    UUO00	0,0(1)
030313  000001 000000      !       ?????    UUO00	0,0(1)
030314  000001 000000      !       ?????    UUO00	0,0(1)
030315  000001 000000      !       ?????    UUO00	0,0(1)
030316  000001 000000      !       ?????    UUO00	0,0(1)
030317  000001 000000      !       ?????    UUO00	0,0(1)
030320  000001 000000      !       ?????    UUO00	0,0(1)
030321  000001 000000      !       ?????    UUO00	0,0(1)
030322  000001 000000      !       ?????    UUO00	0,0(1)
030323  000001 000000      !       ?????    UUO00	0,0(1)
030324  000001 000000      !       ?????    UUO00	0,0(1)
030325  000001 000000      !       ?????    UUO00	0,0(1)
030326  000001 000000      !       ?????    UUO00	0,0(1)
030327  000001 000000      !       ?????    UUO00	0,0(1)
030330  000001 000000      !       ?????    UUO00	0,0(1)
030331  000001 000000      !       ?????    UUO00	0,0(1)
030332  000001 000000      !       ?????    UUO00	0,0(1)
030333  000001 000000      !       ?????    UUO00	0,0(1)
030334  000001 000000      !       ?????    UUO00	0,0(1)
030335  000001 000000      !       ?????    UUO00	0,0(1)
030336  000001 000000      !       ?????    UUO00	0,0(1)
030337  000001 000000      !       ?????    UUO00	0,0(1)
030340  000001 000000      !       ?????    UUO00	0,0(1)
030341  000001 000000      !       ?????    UUO00	0,0(1)
030342  000001 000000      !       ?????    UUO00	0,0(1)
030343  000001 000000      !       ?????    UUO00	0,0(1)
030344  000001 000000      !       ?????    UUO00	0,0(1)
030345  000001 000000      !       ?????    UUO00	0,0(1)
030346  000001 000000      !       ?????    UUO00	0,0(1)
030347  000001 000000      !       ?????    UUO00	0,0(1)
030350  000001 000000      !       ?????    UUO00	0,0(1)
030351  000001 000000      !       ?????    UUO00	0,0(1)
030352  000001 000000      !       ?????    UUO00	0,0(1)
030353  000001 000000      !       ?????    UUO00	0,0(1)
030354  000001 000000      !       ?????    UUO00	0,0(1)
030355  000001 000000      !       ?????    UUO00	0,0(1)
030356  000001 000000      !       ?????    UUO00	0,0(1)
030357  000001 000000      !       ?????    UUO00	0,0(1)
030360  000001 000000      !       ?????    UUO00	0,0(1)
030361  000001 000000      !       ?????    UUO00	0,0(1)
030362  000001 000000      !       ?????    UUO00	0,0(1)
030363  000001 000000      !       ?????    UUO00	0,0(1)
030364  000001 000000      !       ?????    UUO00	0,0(1)
030365  000001 000000      !       ?????    UUO00	0,0(1)
030366  000001 000000      !       ?????    UUO00	0,0(1)
030367  000001 000000      !       ?????    UUO00	0,0(1)
030370  000001 000000      !       ?????    UUO00	0,0(1)
030371  000001 000000      !       ?????    UUO00	0,0(1)
030372  000001 000000      !       ?????    UUO00	0,0(1)
030373  000001 000000      !       ?????    UUO00	0,0(1)
030374  000001 000000      !       ?????    UUO00	0,0(1)
030375  000001 000000      !       ?????    UUO00	0,0(1)
030376  000001 000000      !       ?????    UUO00	0,0(1)
030377  000001 000000      !       ?????    UUO00	0,0(1)
030400  000001 000000      !       ?????    UUO00	0,0(1)
030401  000001 000000      !       ?????    UUO00	0,0(1)
030402  000001 000000      !       ?????    UUO00	0,0(1)
030403  000001 000000      !       ?????    UUO00	0,0(1)
030404  000001 000000      !       ?????    UUO00	0,0(1)
030405  000001 000000      !       ?????    UUO00	0,0(1)
030406  000001 000000      !       ?????    UUO00	0,0(1)
030407  000001 000000      !       ?????    UUO00	0,0(1)
030410  000001 000000      !       ?????    UUO00	0,0(1)
030411  000001 000000      !       ?????    UUO00	0,0(1)
030412  000001 000000      !       ?????    UUO00	0,0(1)
030413  000001 000000      !       ?????    UUO00	0,0(1)
030414  000001 000000      !       ?????    UUO00	0,0(1)
030415  000001 000000      !       ?????    UUO00	0,0(1)
030416  000001 000000      !       ?????    UUO00	0,0(1)
030417  000001 000000      !       ?????    UUO00	0,0(1)
030420  000001 000000      !       ?????    UUO00	0,0(1)
030421  000001 000000      !       ?????    UUO00	0,0(1)
030422  000001 000000      !       ?????    UUO00	0,0(1)
030423  000001 000000      !       ?????    UUO00	0,0(1)
030424  000001 000000      !       ?????    UUO00	0,0(1)
030425  000001 000000      !       ?????    UUO00	0,0(1)
030426  000001 000000      !       ?????    UUO00	0,0(1)
030427  000001 000000      !       ?????    UUO00	0,0(1)
030430  000001 000000      !       ?????    UUO00	0,0(1)
030431  000001 000000      !       ?????    UUO00	0,0(1)
030432  000001 000000      !       ?????    UUO00	0,0(1)
030433  000001 000000      !       ?????    UUO00	0,0(1)
030434  000001 000000      !       ?????    UUO00	0,0(1)
030435  000001 000000      !       ?????    UUO00	0,0(1)
030436  000001 000000      !       ?????    UUO00	0,0(1)
030437  000001 000000      !       ?????    UUO00	0,0(1)
030440  000001 000000      !       ?????    UUO00	0,0(1)
030441  000001 000000      !       ?????    UUO00	0,0(1)
030442  000001 000000      !       ?????    UUO00	0,0(1)
030443  000001 000000      !       ?????    UUO00	0,0(1)
030444  000001 000000      !       ?????    UUO00	0,0(1)
030445  000001 000000      !       ?????    UUO00	0,0(1)
030446  000001 000000      !       ?????    UUO00	0,0(1)
030447  000001 000000      !       ?????    UUO00	0,0(1)
030450  000001 000000      !       ?????    UUO00	0,0(1)
030451  000001 000000      !       ?????    UUO00	0,0(1)
030452  000001 000000      !       ?????    UUO00	0,0(1)
030453  000001 000000      !       ?????    UUO00	0,0(1)
030454  000001 000000      !       ?????    UUO00	0,0(1)
030455  000001 000000      !       ?????    UUO00	0,0(1)
030456  000001 000000      !       ?????    UUO00	0,0(1)
030457  000001 000000      !       ?????    UUO00	0,0(1)
030460  000001 000000      !       ?????    UUO00	0,0(1)
030461  000001 000000      !       ?????    UUO00	0,0(1)
030462  000001 000000      !       ?????    UUO00	0,0(1)
030463  000001 000000      !       ?????    UUO00	0,0(1)
030464  000001 000000      !       ?????    UUO00	0,0(1)
030465  000001 000000      !       ?????    UUO00	0,0(1)
030466  000001 000000      !       ?????    UUO00	0,0(1)
030467  000001 000000      !       ?????    UUO00	0,0(1)
030470  000001 000000      !       ?????    UUO00	0,0(1)
030471  000001 000000      !       ?????    UUO00	0,0(1)
030472  000001 000000      !       ?????    UUO00	0,0(1)
030473  000001 000000      !       ?????    UUO00	0,0(1)
030474  000001 000000      !       ?????    UUO00	0,0(1)
030475  000001 000000      !       ?????    UUO00	0,0(1)
030476  000001 000000      !       ?????    UUO00	0,0(1)
030477  000001 000000      !       ?????    UUO00	0,0(1)
030500  000001 000000      !       ?????    UUO00	0,0(1)
030501  000001 000000      !       ?????    UUO00	0,0(1)
030502  000001 000000      !       ?????    UUO00	0,0(1)
030503  000001 000000      !       ?????    UUO00	0,0(1)
030504  000001 000000      !       ?????    UUO00	0,0(1)
030505  000001 000000      !       ?????    UUO00	0,0(1)
030506  000001 000000      !       ?????    UUO00	0,0(1)
030507  000001 000000      !       ?????    UUO00	0,0(1)
030510  000001 000000      !       ?????    UUO00	0,0(1)
030511  000001 000000      !       ?????    UUO00	0,0(1)
030512  000001 000000      !       ?????    UUO00	0,0(1)
030513  000001 000000      !       ?????    UUO00	0,0(1)
030514  000001 000000      !       ?????    UUO00	0,0(1)
030515  000001 000000      !       ?????    UUO00	0,0(1)
030516  000001 000000      !       ?????    UUO00	0,0(1)
030517  000001 000000      !       ?????    UUO00	0,0(1)
030520  000001 000000      !       ?????    UUO00	0,0(1)
030521  000001 000000      !       ?????    UUO00	0,0(1)
030522  000001 000000      !       ?????    UUO00	0,0(1)
030523  000001 000000      !       ?????    UUO00	0,0(1)
030524  000001 000000      !       ?????    UUO00	0,0(1)
030525  000001 000000      !       ?????    UUO00	0,0(1)
030526  000001 000000      !       ?????    UUO00	0,0(1)
030527  000001 000000      !       ?????    UUO00	0,0(1)
030530  000001 000000      !       ?????    UUO00	0,0(1)
030531  000001 000000      !       ?????    UUO00	0,0(1)
030532  000001 000000      !       ?????    UUO00	0,0(1)
030533  000001 000000      !       ?????    UUO00	0,0(1)
030534  000001 000000      !       ?????    UUO00	0,0(1)
030535  000001 000000      !       ?????    UUO00	0,0(1)
030536  000001 000000      !       ?????    UUO00	0,0(1)
030537  000001 000000      !       ?????    UUO00	0,0(1)
030540  000001 000000      !       ?????    UUO00	0,0(1)
030541  000001 000000      !       ?????    UUO00	0,0(1)
030542  000001 000000      !       ?????    UUO00	0,0(1)
030543  000001 000000      !       ?????    UUO00	0,0(1)
030544  000001 000000      !       ?????    UUO00	0,0(1)
030545  000001 000000      !       ?????    UUO00	0,0(1)
030546  000001 000000      !       ?????    UUO00	0,0(1)
030547  000001 000000      !       ?????    UUO00	0,0(1)
030550  000001 000000      !       ?????    UUO00	0,0(1)
030551  000001 000000      !       ?????    UUO00	0,0(1)
030552  000001 000000      !       ?????    UUO00	0,0(1)
030553  000001 000000      !       ?????    UUO00	0,0(1)
030554  000001 000000      !       ?????    UUO00	0,0(1)
030555  000001 000000      !       ?????    UUO00	0,0(1)
030556  000001 000000      !       ?????    UUO00	0,0(1)
030557  000001 000000      !       ?????    UUO00	0,0(1)
030560  000001 000000      !       ?????    UUO00	0,0(1)
030561  000001 000000      !       ?????    UUO00	0,0(1)
030562  000001 000000      !       ?????    UUO00	0,0(1)
030563  000001 000000      !       ?????    UUO00	0,0(1)
030564  000001 000000      !       ?????    UUO00	0,0(1)
030565  000001 000000      !       ?????    UUO00	0,0(1)
030566  000001 000000      !       ?????    UUO00	0,0(1)
030567  000001 000000      !       ?????    UUO00	0,0(1)
030570  000001 000000      !       ?????    UUO00	0,0(1)
030571  000001 000000      !       ?????    UUO00	0,0(1)
030572  000001 000000      !       ?????    UUO00	0,0(1)
030573  000001 000000      !       ?????    UUO00	0,0(1)
030574  000001 000000      !       ?????    UUO00	0,0(1)
030575  000001 000000      !       ?????    UUO00	0,0(1)
030576  000001 000000      !       ?????    UUO00	0,0(1)
030577  000001 000000      !       ?????    UUO00	0,0(1)
030600  000001 000000      !       ?????    UUO00	0,0(1)
030601  000001 000000      !       ?????    UUO00	0,0(1)
030602  000001 000000      !       ?????    UUO00	0,0(1)
030603  000001 000000      !       ?????    UUO00	0,0(1)
030604  000001 000000      !       ?????    UUO00	0,0(1)
030605  000001 000000      !       ?????    UUO00	0,0(1)
030606  000001 000000      !       ?????    UUO00	0,0(1)
030607  000001 000000      !       ?????    UUO00	0,0(1)
030610  000001 000000      !       ?????    UUO00	0,0(1)
030611  000001 000000      !       ?????    UUO00	0,0(1)
030612  000001 000000      !       ?????    UUO00	0,0(1)
030613  000001 000000      !       ?????    UUO00	0,0(1)
030614  000001 000000      !       ?????    UUO00	0,0(1)
030615  000001 000000      !       ?????    UUO00	0,0(1)
030616  000001 000000      !       ?????    UUO00	0,0(1)
030617  000001 000000      !       ?????    UUO00	0,0(1)
030620  000001 000000      !       ?????    UUO00	0,0(1)
030621  000001 000000      !       ?????    UUO00	0,0(1)
030622  000001 000000      !       ?????    UUO00	0,0(1)
030623  000001 000000      !       ?????    UUO00	0,0(1)
030624  000001 000000      !       ?????    UUO00	0,0(1)
030625  000001 000000      !       ?????    UUO00	0,0(1)
030626  000001 000000      !       ?????    UUO00	0,0(1)
030627  000001 000000      !       ?????    UUO00	0,0(1)
030630  000001 000000      !       ?????    UUO00	0,0(1)
030631  000001 000000      !       ?????    UUO00	0,0(1)
030632  000001 000000      !       ?????    UUO00	0,0(1)
030633  000001 000000      !       ?????    UUO00	0,0(1)
030634  000001 000000      !       ?????    UUO00	0,0(1)
030635  000001 000000      !       ?????    UUO00	0,0(1)
030636  000001 000000      !       ?????    UUO00	0,0(1)
030637  000001 000000      !       ?????    UUO00	0,0(1)
030640  000001 000000      !       ?????    UUO00	0,0(1)
030641  000001 000000      !       ?????    UUO00	0,0(1)
030642  000001 000000      !       ?????    UUO00	0,0(1)
030643  000001 000000      !       ?????    UUO00	0,0(1)
030644  000001 000000      !       ?????    UUO00	0,0(1)
030645  000001 000000      !       ?????    UUO00	0,0(1)
030646  000001 000000      !       ?????    UUO00	0,0(1)
030647  000001 000000      !       ?????    UUO00	0,0(1)
030650  000001 000000      !       ?????    UUO00	0,0(1)
030651  000001 000000      !       ?????    UUO00	0,0(1)
030652  000001 000000      !       ?????    UUO00	0,0(1)
030653  000001 000000      !       ?????    UUO00	0,0(1)
030654  000001 000000      !       ?????    UUO00	0,0(1)
030655  000001 000000      !       ?????    UUO00	0,0(1)
030656  000001 000000      !       ?????    UUO00	0,0(1)
030657  000001 000000      !       ?????    UUO00	0,0(1)
030660  000001 000000      !       ?????    UUO00	0,0(1)
030661  000001 000000      !       ?????    UUO00	0,0(1)
030662  000001 000000      !       ?????    UUO00	0,0(1)
030663  000001 000000      !       ?????    UUO00	0,0(1)
030664  000001 000000      !       ?????    UUO00	0,0(1)
030665  000001 000000      !       ?????    UUO00	0,0(1)
030666  000001 000000      !       ?????    UUO00	0,0(1)
030667  000001 000000      !       ?????    UUO00	0,0(1)
030670  000001 000000      !       ?????    UUO00	0,0(1)
030671  000001 000000      !       ?????    UUO00	0,0(1)
030672  000001 000000      !       ?????    UUO00	0,0(1)
030673  000001 000000      !       ?????    UUO00	0,0(1)
030674  000001 000000      !       ?????    UUO00	0,0(1)
030675  000001 000000      !       ?????    UUO00	0,0(1)
030676  000001 000000      !       ?????    UUO00	0,0(1)
030677  000001 000000      !       ?????    UUO00	0,0(1)
030700  000001 000000      !       ?????    UUO00	0,0(1)
030701  000001 000000      !       ?????    UUO00	0,0(1)
030702  000001 000000      !       ?????    UUO00	0,0(1)
030703  000001 000000      !       ?????    UUO00	0,0(1)
030704  000001 000000      !       ?????    UUO00	0,0(1)
030705  000001 000000      !       ?????    UUO00	0,0(1)
030706  000001 000000      !       ?????    UUO00	0,0(1)
030707  000001 000000      !       ?????    UUO00	0,0(1)
030710  000001 000000      !       ?????    UUO00	0,0(1)
030711  000001 000000      !       ?????    UUO00	0,0(1)
030712  000001 000000      !       ?????    UUO00	0,0(1)
030713  000001 000000      !       ?????    UUO00	0,0(1)
030714  000001 000000      !       ?????    UUO00	0,0(1)
030715  000001 000000      !       ?????    UUO00	0,0(1)
030716  000001 000000      !       ?????    UUO00	0,0(1)
030717  000001 000000      !       ?????    UUO00	0,0(1)
030720  000001 000000      !       ?????    UUO00	0,0(1)
030721  000001 000000      !       ?????    UUO00	0,0(1)
030722  000001 000000      !       ?????    UUO00	0,0(1)
030723  000001 000000      !       ?????    UUO00	0,0(1)
030724  000001 000000      !       ?????    UUO00	0,0(1)
030725  000001 000000      !       ?????    UUO00	0,0(1)
030726  000001 000000      !       ?????    UUO00	0,0(1)
030727  000001 000000      !       ?????    UUO00	0,0(1)
030730  000001 000000      !       ?????    UUO00	0,0(1)
030731  000001 000000      !       ?????    UUO00	0,0(1)
030732  000001 000000      !       ?????    UUO00	0,0(1)
030733  000001 000000      !       ?????    UUO00	0,0(1)
030734  000001 000000      !       ?????    UUO00	0,0(1)
030735  000001 000000      !       ?????    UUO00	0,0(1)
030736  000001 000000      !       ?????    UUO00	0,0(1)
030737  000001 000000      !       ?????    UUO00	0,0(1)
030740  000001 000000      !       ?????    UUO00	0,0(1)
030741  000001 000000      !       ?????    UUO00	0,0(1)
030742  000001 000000      !       ?????    UUO00	0,0(1)
030743  000001 000000      !       ?????    UUO00	0,0(1)
030744  000001 000000      !       ?????    UUO00	0,0(1)
030745  000001 000000      !       ?????    UUO00	0,0(1)
030746  000001 000000      !       ?????    UUO00	0,0(1)
030747  000001 000000      !       ?????    UUO00	0,0(1)
030750  000001 000000      !       ?????    UUO00	0,0(1)
030751  000001 000000      !       ?????    UUO00	0,0(1)
030752  000001 000000      !       ?????    UUO00	0,0(1)
030753  000001 000000      !       ?????    UUO00	0,0(1)
030754  000001 000000      !       ?????    UUO00	0,0(1)
030755  000001 000000      !       ?????    UUO00	0,0(1)
030756  000001 000000      !       ?????    UUO00	0,0(1)
030757  000001 000000      !       ?????    UUO00	0,0(1)
030760  000001 000000      !       ?????    UUO00	0,0(1)
030761  000001 000000      !       ?????    UUO00	0,0(1)
030762  000001 000000      !       ?????    UUO00	0,0(1)
030763  000001 000000      !       ?????    UUO00	0,0(1)
030764  000001 000000      !       ?????    UUO00	0,0(1)
030765  000001 000000      !       ?????    UUO00	0,0(1)
030766  000001 000000      !       ?????    UUO00	0,0(1)
030767  000001 000000      !       ?????    UUO00	0,0(1)
030770  000001 000000      !       ?????    UUO00	0,0(1)
030771  000001 000000      !       ?????    UUO00	0,0(1)
030772  000001 000000      !       ?????    UUO00	0,0(1)
030773  000001 000000      !       ?????    UUO00	0,0(1)
030774  000001 000000      !       ?????    UUO00	0,0(1)
030775  000001 000000      !       ?????    UUO00	0,0(1)
030776  000001 000000      !       ?????    UUO00	0,0(1)
030777  000001 000000      !       ?????    UUO00	0,0(1)
031000  000001 000000      !       ?????    UUO00	0,0(1)
031001  000001 000000      !       ?????    UUO00	0,0(1)
031002  000001 000000      !       ?????    UUO00	0,0(1)
031003  000001 000000      !       ?????    UUO00	0,0(1)
031004  000001 000000      !       ?????    UUO00	0,0(1)
031005  000001 000000      !       ?????    UUO00	0,0(1)
031006  000001 000000      !       ?????    UUO00	0,0(1)
031007  000001 000000      !       ?????    UUO00	0,0(1)
031010  000001 000000      !       ?????    UUO00	0,0(1)
031011  000001 000000      !       ?????    UUO00	0,0(1)
031012  000001 000000      !       ?????    UUO00	0,0(1)
031013  000001 000000      !       ?????    UUO00	0,0(1)
031014  000001 000000      !       ?????    UUO00	0,0(1)
031015  000001 000000      !       ?????    UUO00	0,0(1)
031016  000001 000000      !       ?????    UUO00	0,0(1)
031017  000001 000000      !       ?????    UUO00	0,0(1)
031020  000001 000000      !       ?????    UUO00	0,0(1)
031021  000001 000000      !       ?????    UUO00	0,0(1)
031022  000001 000000      !       ?????    UUO00	0,0(1)
031023  000001 000000      !       ?????    UUO00	0,0(1)
031024  000001 000000      !       ?????    UUO00	0,0(1)
031025  000001 000000      !       ?????    UUO00	0,0(1)
031026  000001 000000      !       ?????    UUO00	0,0(1)
031027  000001 000000      !       ?????    UUO00	0,0(1)
031030  000001 000000      !       ?????    UUO00	0,0(1)
031031  000001 000000      !       ?????    UUO00	0,0(1)
031032  000001 000000      !       ?????    UUO00	0,0(1)
031033  000001 000000      !       ?????    UUO00	0,0(1)
031034  000001 000000      !       ?????    UUO00	0,0(1)
031035  000001 000000      !       ?????    UUO00	0,0(1)
031036  000001 000000      !       ?????    UUO00	0,0(1)
031037  000001 000000      !       ?????    UUO00	0,0(1)
031040  000001 000000      !       ?????    UUO00	0,0(1)
031041  000001 000000      !       ?????    UUO00	0,0(1)
031042  000001 000000      !       ?????    UUO00	0,0(1)
031043  000001 000000      !       ?????    UUO00	0,0(1)
031044  000001 000000      !       ?????    UUO00	0,0(1)
031045  000001 000000      !       ?????    UUO00	0,0(1)
031046  000001 000000      !       ?????    UUO00	0,0(1)
031047  000001 000000      !       ?????    UUO00	0,0(1)
031050  000001 000000      !       ?????    UUO00	0,0(1)
031051  000001 000000      !       ?????    UUO00	0,0(1)
031052  000001 000000      !       ?????    UUO00	0,0(1)
031053  000001 000000      !       ?????    UUO00	0,0(1)
031054  000001 000000      !       ?????    UUO00	0,0(1)
031055  000001 000000      !       ?????    UUO00	0,0(1)
031056  000001 000000      !       ?????    UUO00	0,0(1)
031057  000001 000000      !       ?????    UUO00	0,0(1)
031060  000001 000000      !       ?????    UUO00	0,0(1)
031061  000001 000000      !       ?????    UUO00	0,0(1)
031062  000001 000000      !       ?????    UUO00	0,0(1)
031063  000001 000000      !       ?????    UUO00	0,0(1)
031064  000001 000000      !       ?????    UUO00	0,0(1)
031065  000001 000000      !       ?????    UUO00	0,0(1)
031066  000001 000000      !       ?????    UUO00	0,0(1)
031067  000001 000000      !       ?????    UUO00	0,0(1)
031070  000001 000000      !       ?????    UUO00	0,0(1)
031071  000001 000000      !       ?????    UUO00	0,0(1)
031072  000001 000000      !       ?????    UUO00	0,0(1)
031073  000001 000000      !       ?????    UUO00	0,0(1)
031074  000001 000000      !       ?????    UUO00	0,0(1)
031075  000001 000000      !       ?????    UUO00	0,0(1)
031076  000001 000000      !       ?????    UUO00	0,0(1)
031077  000001 000000      !       ?????    UUO00	0,0(1)
031100  000001 000000      !       ?????    UUO00	0,0(1)
031101  000001 000000      !       ?????    UUO00	0,0(1)
031102  000001 000000      !       ?????    UUO00	0,0(1)
031103  000001 000000      !       ?????    UUO00	0,0(1)
031104  000001 000000      !       ?????    UUO00	0,0(1)
031105  000001 000000      !       ?????    UUO00	0,0(1)
031106  000001 000000      !       ?????    UUO00	0,0(1)
031107  000001 000000      !       ?????    UUO00	0,0(1)
031110  000001 000000      !       ?????    UUO00	0,0(1)
031111  000001 000000      !       ?????    UUO00	0,0(1)
031112  000001 000000      !       ?????    UUO00	0,0(1)
031113  000001 000000      !       ?????    UUO00	0,0(1)
031114  000001 000000      !       ?????    UUO00	0,0(1)
031115  000001 000000      !       ?????    UUO00	0,0(1)
031116  000001 000000      !       ?????    UUO00	0,0(1)
031117  000001 000000      !       ?????    UUO00	0,0(1)
031120  000001 000000      !       ?????    UUO00	0,0(1)
031121  000001 000000      !       ?????    UUO00	0,0(1)
031122  000001 000000      !       ?????    UUO00	0,0(1)
031123  000001 000000      !       ?????    UUO00	0,0(1)
031124  000001 000000      !       ?????    UUO00	0,0(1)
031125  000001 000000      !       ?????    UUO00	0,0(1)
031126  000001 000000      !       ?????    UUO00	0,0(1)
031127  000001 000000      !       ?????    UUO00	0,0(1)
031130  000001 000000      !       ?????    UUO00	0,0(1)
031131  000001 000000      !       ?????    UUO00	0,0(1)
031132  000001 000000      !       ?????    UUO00	0,0(1)
031133  000001 000000      !       ?????    UUO00	0,0(1)
031134  000001 000000      !       ?????    UUO00	0,0(1)
031135  000001 000000      !       ?????    UUO00	0,0(1)
031136  000001 000000      !       ?????    UUO00	0,0(1)
031137  000001 000000      !       ?????    UUO00	0,0(1)
031140  000001 000000      !       ?????    UUO00	0,0(1)
031141  000001 000000      !       ?????    UUO00	0,0(1)
031142  000001 000000      !       ?????    UUO00	0,0(1)
031143  000001 000000      !       ?????    UUO00	0,0(1)
031144  000001 000000      !       ?????    UUO00	0,0(1)
031145  000001 000000      !       ?????    UUO00	0,0(1)
031146  000001 000000      !       ?????    UUO00	0,0(1)
031147  000001 000000      !       ?????    UUO00	0,0(1)
031150  000001 000000      !       ?????    UUO00	0,0(1)
031151  000001 000000      !       ?????    UUO00	0,0(1)
031152  000001 000000      !       ?????    UUO00	0,0(1)
031153  000001 000000      !       ?????    UUO00	0,0(1)
031154  000001 000000      !       ?????    UUO00	0,0(1)
031155  000001 000000      !       ?????    UUO00	0,0(1)
031156  000001 000000      !       ?????    UUO00	0,0(1)
031157  000001 000000      !       ?????    UUO00	0,0(1)
031160  000001 000000      !       ?????    UUO00	0,0(1)
031161  000001 000000      !       ?????    UUO00	0,0(1)
031162  000001 000000      !       ?????    UUO00	0,0(1)
031163  000001 000000      !       ?????    UUO00	0,0(1)
031164  000001 000000      !       ?????    UUO00	0,0(1)
031165  000001 000000      !       ?????    UUO00	0,0(1)
031166  000001 000000      !       ?????    UUO00	0,0(1)
031167  000001 000000      !       ?????    UUO00	0,0(1)
031170  000001 000000      !       ?????    UUO00	0,0(1)
031171  000001 000000      !       ?????    UUO00	0,0(1)
031172  000001 000000      !       ?????    UUO00	0,0(1)
031173  000001 000000      !       ?????    UUO00	0,0(1)
031174  000001 000000      !       ?????    UUO00	0,0(1)
031175  000001 000000      !       ?????    UUO00	0,0(1)
031176  000001 000000      !       ?????    UUO00	0,0(1)
031177  000001 000000      !       ?????    UUO00	0,0(1)
031200  000001 000000      !       ?????    UUO00	0,0(1)
031201  000001 000000      !       ?????    UUO00	0,0(1)
031202  000001 000000      !       ?????    UUO00	0,0(1)
031203  000001 000000      !       ?????    UUO00	0,0(1)
031204  000001 000000      !       ?????    UUO00	0,0(1)
031205  000001 000000      !       ?????    UUO00	0,0(1)
031206  000001 000000      !       ?????    UUO00	0,0(1)
031207  000001 000000      !       ?????    UUO00	0,0(1)
031210  000001 000000      !       ?????    UUO00	0,0(1)
031211  000001 000000      !       ?????    UUO00	0,0(1)
031212  000001 000000      !       ?????    UUO00	0,0(1)
031213  000001 000000      !       ?????    UUO00	0,0(1)
031214  000001 000000      !       ?????    UUO00	0,0(1)
031215  000001 000000      !       ?????    UUO00	0,0(1)
031216  000001 000000      !       ?????    UUO00	0,0(1)
031217  000001 000000      !       ?????    UUO00	0,0(1)
031220  000001 000000      !       ?????    UUO00	0,0(1)
031221  000001 000000      !       ?????    UUO00	0,0(1)
031222  000001 000000      !       ?????    UUO00	0,0(1)
031223  000001 000000      !       ?????    UUO00	0,0(1)
031224  000001 000000      !       ?????    UUO00	0,0(1)
031225  000001 000000      !       ?????    UUO00	0,0(1)
031226  000001 000000      !       ?????    UUO00	0,0(1)
031227  000001 000000      !       ?????    UUO00	0,0(1)
031230  000001 000000      !       ?????    UUO00	0,0(1)
031231  000001 000000      !       ?????    UUO00	0,0(1)
031232  000001 000000      !       ?????    UUO00	0,0(1)
031233  000001 000000      !       ?????    UUO00	0,0(1)
031234  000001 000000      !       ?????    UUO00	0,0(1)
031235  000001 000000      !       ?????    UUO00	0,0(1)
031236  000001 000000      !       ?????    UUO00	0,0(1)
031237  000001 000000      !       ?????    UUO00	0,0(1)
031240  000001 000000      !       ?????    UUO00	0,0(1)
031241  000001 000000      !       ?????    UUO00	0,0(1)
031242  000001 000000      !       ?????    UUO00	0,0(1)
031243  000001 000000      !       ?????    UUO00	0,0(1)
031244  000001 000000      !       ?????    UUO00	0,0(1)
031245  000001 000000      !       ?????    UUO00	0,0(1)
031246  000001 000000      !       ?????    UUO00	0,0(1)
031247  000001 000000      !       ?????    UUO00	0,0(1)
031250  000001 000000      !       ?????    UUO00	0,0(1)
031251  000001 000000      !       ?????    UUO00	0,0(1)
031252  000001 000000      !       ?????    UUO00	0,0(1)
031253  000001 000000      !       ?????    UUO00	0,0(1)
031254  000001 000000      !       ?????    UUO00	0,0(1)
031255  000001 000000      !       ?????    UUO00	0,0(1)
031256  000001 000000      !       ?????    UUO00	0,0(1)
031257  000001 000000      !       ?????    UUO00	0,0(1)
031260  000001 000000      !       ?????    UUO00	0,0(1)
031261  000001 000000      !       ?????    UUO00	0,0(1)
031262  000001 000000      !       ?????    UUO00	0,0(1)
031263  000001 000000      !       ?????    UUO00	0,0(1)
031264  000001 000000      !       ?????    UUO00	0,0(1)
031265  000001 000000      !       ?????    UUO00	0,0(1)
031266  000001 000000      !       ?????    UUO00	0,0(1)
031267  000001 000000      !       ?????    UUO00	0,0(1)
031270  000001 000000      !       ?????    UUO00	0,0(1)
031271  000001 000000      !       ?????    UUO00	0,0(1)
031272  000001 000000      !       ?????    UUO00	0,0(1)
031273  000001 000000      !       ?????    UUO00	0,0(1)
031274  000001 000000      !       ?????    UUO00	0,0(1)
031275  000001 000000      !       ?????    UUO00	0,0(1)
031276  000001 000000      !       ?????    UUO00	0,0(1)
031277  000001 000000      !       ?????    UUO00	0,0(1)
031300  000001 000000      !       ?????    UUO00	0,0(1)
031301  000001 000000      !       ?????    UUO00	0,0(1)
031302  000001 000000      !       ?????    UUO00	0,0(1)
031303  000001 000000      !       ?????    UUO00	0,0(1)
031304  000001 000000      !       ?????    UUO00	0,0(1)
031305  000001 000000      !       ?????    UUO00	0,0(1)
031306  000001 000000      !       ?????    UUO00	0,0(1)
031307  000001 000000      !       ?????    UUO00	0,0(1)
031310  000001 000000      !       ?????    UUO00	0,0(1)
031311  000001 000000      !       ?????    UUO00	0,0(1)
031312  000001 000000      !       ?????    UUO00	0,0(1)
031313  000001 000000      !       ?????    UUO00	0,0(1)
031314  000001 000000      !       ?????    UUO00	0,0(1)
031315  000001 000000      !       ?????    UUO00	0,0(1)
031316  000001 000000      !       ?????    UUO00	0,0(1)
031317  000001 000000      !       ?????    UUO00	0,0(1)
031320  000001 000000      !       ?????    UUO00	0,0(1)
031321  000001 000000      !       ?????    UUO00	0,0(1)
031322  000001 000000      !       ?????    UUO00	0,0(1)
031323  000001 000000      !       ?????    UUO00	0,0(1)
031324  000001 000000      !       ?????    UUO00	0,0(1)
031325  000001 000000      !       ?????    UUO00	0,0(1)
031326  000001 000000      !       ?????    UUO00	0,0(1)
031327  000001 000000      !       ?????    UUO00	0,0(1)
031330  000001 000000      !       ?????    UUO00	0,0(1)
031331  000001 000000      !       ?????    UUO00	0,0(1)
031332  000001 000000      !       ?????    UUO00	0,0(1)
031333  000001 000000      !       ?????    UUO00	0,0(1)
031334  000001 000000      !       ?????    UUO00	0,0(1)
031335  000001 000000      !       ?????    UUO00	0,0(1)
031336  000001 000000      !       ?????    UUO00	0,0(1)
031337  000001 000000      !       ?????    UUO00	0,0(1)
031340  000001 000000      !       ?????    UUO00	0,0(1)
031341  000001 000000      !       ?????    UUO00	0,0(1)
031342  000001 000000      !       ?????    UUO00	0,0(1)
031343  000001 000000      !       ?????    UUO00	0,0(1)
031344  000001 000000      !       ?????    UUO00	0,0(1)
031345  000001 000000      !       ?????    UUO00	0,0(1)
031346  000001 000000      !       ?????    UUO00	0,0(1)
031347  000001 000000      !       ?????    UUO00	0,0(1)
031350  000001 000000      !       ?????    UUO00	0,0(1)
031351  000001 000000      !       ?????    UUO00	0,0(1)
031352  000001 000000      !       ?????    UUO00	0,0(1)
031353  000001 000000      !       ?????    UUO00	0,0(1)
031354  000001 000000      !       ?????    UUO00	0,0(1)
031355  000001 000000      !       ?????    UUO00	0,0(1)
031356  000001 000000      !       ?????    UUO00	0,0(1)
031357  000001 000000      !       ?????    UUO00	0,0(1)
031360  000001 000000      !       ?????    UUO00	0,0(1)
031361  000001 000000      !       ?????    UUO00	0,0(1)
031362  000001 000000      !       ?????    UUO00	0,0(1)
031363  000001 000000      !       ?????    UUO00	0,0(1)
031364  000001 000000      !       ?????    UUO00	0,0(1)
031365  000001 000000      !       ?????    UUO00	0,0(1)
031366  000001 000000      !       ?????    UUO00	0,0(1)
031367  000001 000000      !       ?????    UUO00	0,0(1)
031370  000001 000000      !       ?????    UUO00	0,0(1)
031371  000001 000000      !       ?????    UUO00	0,0(1)
031372  000001 000000      !       ?????    UUO00	0,0(1)
031373  000001 000000      !       ?????    UUO00	0,0(1)
031374  000001 000000      !       ?????    UUO00	0,0(1)
031375  000001 000000      !       ?????    UUO00	0,0(1)
031376  000001 000000      !       ?????    UUO00	0,0(1)
031377  000001 000000      !       ?????    UUO00	0,0(1)
031400  000001 000000      !       ?????    UUO00	0,0(1)
031401  000001 000000      !       ?????    UUO00	0,0(1)
031402  000001 000000      !       ?????    UUO00	0,0(1)
031403  000001 000000      !       ?????    UUO00	0,0(1)
031404  000001 000000      !       ?????    UUO00	0,0(1)
031405  000001 000000      !       ?????    UUO00	0,0(1)
031406  000001 000000      !       ?????    UUO00	0,0(1)
031407  000001 000000      !       ?????    UUO00	0,0(1)
031410  000001 000000      !       ?????    UUO00	0,0(1)
031411  000001 000000      !       ?????    UUO00	0,0(1)
031412  000001 000000      !       ?????    UUO00	0,0(1)
031413  000001 000000      !       ?????    UUO00	0,0(1)
031414  000001 000000      !       ?????    UUO00	0,0(1)
031415  000001 000000      !       ?????    UUO00	0,0(1)
031416  000001 000000      !       ?????    UUO00	0,0(1)
031417  000001 000000      !       ?????    UUO00	0,0(1)
031420  000001 000000      !       ?????    UUO00	0,0(1)
031421  000001 000000      !       ?????    UUO00	0,0(1)
031422  000001 000000      !       ?????    UUO00	0,0(1)
031423  000001 000000      !       ?????    UUO00	0,0(1)
031424  000001 000000      !       ?????    UUO00	0,0(1)
031425  000001 000000      !       ?????    UUO00	0,0(1)
031426  000001 000000      !       ?????    UUO00	0,0(1)
031427  000001 000000      !       ?????    UUO00	0,0(1)
031430  000001 000000      !       ?????    UUO00	0,0(1)
031431  000001 000000      !       ?????    UUO00	0,0(1)
031432  000001 000000      !       ?????    UUO00	0,0(1)
031433  000001 000000      !       ?????    UUO00	0,0(1)
031434  000001 000000      !       ?????    UUO00	0,0(1)
031435  000001 000000      !       ?????    UUO00	0,0(1)
031436  000001 000000      !       ?????    UUO00	0,0(1)
031437  000001 000000      !       ?????    UUO00	0,0(1)
031440  000001 000000      !       ?????    UUO00	0,0(1)
031441  000001 000000      !       ?????    UUO00	0,0(1)
031442  000001 000000      !       ?????    UUO00	0,0(1)
031443  000001 000000      !       ?????    UUO00	0,0(1)
031444  000001 000000      !       ?????    UUO00	0,0(1)
031445  000001 000000      !       ?????    UUO00	0,0(1)
031446  000001 000000      !       ?????    UUO00	0,0(1)
031447  000001 000000      !       ?????    UUO00	0,0(1)
031450  000001 000000      !       ?????    UUO00	0,0(1)
031451  000001 000000      !       ?????    UUO00	0,0(1)
031452  000001 000000      !       ?????    UUO00	0,0(1)
031453  000001 000000      !       ?????    UUO00	0,0(1)
031454  000001 000000      !       ?????    UUO00	0,0(1)
031455  000001 000000      !       ?????    UUO00	0,0(1)
031456  000001 000000      !       ?????    UUO00	0,0(1)
031457  000001 000000      !       ?????    UUO00	0,0(1)
031460  000001 000000      !       ?????    UUO00	0,0(1)
031461  000001 000000      !       ?????    UUO00	0,0(1)
031462  000001 000000      !       ?????    UUO00	0,0(1)
031463  000001 000000      !       ?????    UUO00	0,0(1)
031464  000001 000000      !       ?????    UUO00	0,0(1)
031465  000001 000000      !       ?????    UUO00	0,0(1)
031466  000001 000000      !       ?????    UUO00	0,0(1)
031467  000001 000000      !       ?????    UUO00	0,0(1)
031470  000001 000000      !       ?????    UUO00	0,0(1)
031471  000001 000000      !       ?????    UUO00	0,0(1)
031472  000001 000000      !       ?????    UUO00	0,0(1)
031473  000001 000000      !       ?????    UUO00	0,0(1)
031474  000001 000000      !       ?????    UUO00	0,0(1)
031475  000001 000000      !       ?????    UUO00	0,0(1)
031476  000001 000000      !       ?????    UUO00	0,0(1)
031477  000001 000000      !       ?????    UUO00	0,0(1)
031500  000001 000000      !       ?????    UUO00	0,0(1)
031501  000001 000000      !       ?????    UUO00	0,0(1)
031502  000001 000000      !       ?????    UUO00	0,0(1)
031503  000001 000000      !       ?????    UUO00	0,0(1)
031504  000001 000000      !       ?????    UUO00	0,0(1)
031505  000001 000000      !       ?????    UUO00	0,0(1)
031506  000001 000000      !       ?????    UUO00	0,0(1)
031507  000001 000000      !       ?????    UUO00	0,0(1)
031510  000001 000000      !       ?????    UUO00	0,0(1)
031511  000001 000000      !       ?????    UUO00	0,0(1)
031512  000001 000000      !       ?????    UUO00	0,0(1)
031513  000001 000000      !       ?????    UUO00	0,0(1)
031514  000001 000000      !       ?????    UUO00	0,0(1)
031515  000001 000000      !       ?????    UUO00	0,0(1)
031516  000001 000000      !       ?????    UUO00	0,0(1)
031517  000001 000000      !       ?????    UUO00	0,0(1)
031520  000001 000000      !       ?????    UUO00	0,0(1)
031521  000001 000000      !       ?????    UUO00	0,0(1)
031522  000001 000000      !       ?????    UUO00	0,0(1)
031523  000001 000000      !       ?????    UUO00	0,0(1)
031524  000001 000000      !       ?????    UUO00	0,0(1)
031525  000001 000000      !       ?????    UUO00	0,0(1)
031526  000001 000000      !       ?????    UUO00	0,0(1)
031527  000001 000000      !       ?????    UUO00	0,0(1)
031530  000001 000000      !       ?????    UUO00	0,0(1)
031531  000001 000000      !       ?????    UUO00	0,0(1)
031532  000001 000000      !       ?????    UUO00	0,0(1)
031533  000001 000000      !       ?????    UUO00	0,0(1)
031534  000001 000000      !       ?????    UUO00	0,0(1)
031535  000001 000000      !       ?????    UUO00	0,0(1)
031536  000001 000000      !       ?????    UUO00	0,0(1)
031537  000001 000000      !       ?????    UUO00	0,0(1)
031540  000001 000000      !       ?????    UUO00	0,0(1)
031541  000001 000000      !       ?????    UUO00	0,0(1)
031542  000001 000000      !       ?????    UUO00	0,0(1)
031543  000001 000000      !       ?????    UUO00	0,0(1)
031544  000001 000000      !       ?????    UUO00	0,0(1)
031545  000001 000000      !       ?????    UUO00	0,0(1)
031546  000001 000000      !       ?????    UUO00	0,0(1)
031547  000001 000000      !       ?????    UUO00	0,0(1)
031550  000001 000000      !       ?????    UUO00	0,0(1)
031551  000001 000000      !       ?????    UUO00	0,0(1)
031552  000001 000000      !       ?????    UUO00	0,0(1)
031553  000001 000000      !       ?????    UUO00	0,0(1)
031554  000001 000000      !       ?????    UUO00	0,0(1)
031555  000001 000000      !       ?????    UUO00	0,0(1)
031556  000001 000000      !       ?????    UUO00	0,0(1)
031557  000001 000000      !       ?????    UUO00	0,0(1)
031560  000001 000000      !       ?????    UUO00	0,0(1)
031561  000001 000000      !       ?????    UUO00	0,0(1)
031562  000001 000000      !       ?????    UUO00	0,0(1)
031563  000001 000000      !       ?????    UUO00	0,0(1)
031564  000001 000000      !       ?????    UUO00	0,0(1)
031565  000001 000000      !       ?????    UUO00	0,0(1)
031566  000001 000000      !       ?????    UUO00	0,0(1)
031567  000001 000000      !       ?????    UUO00	0,0(1)
031570  000001 000000      !       ?????    UUO00	0,0(1)
031571  000001 000000      !       ?????    UUO00	0,0(1)
031572  000001 000000      !       ?????    UUO00	0,0(1)
031573  000001 000000      !       ?????    UUO00	0,0(1)
031574  000001 000000      !       ?????    UUO00	0,0(1)
031575  000001 000000      !       ?????    UUO00	0,0(1)
031576  000001 000000      !       ?????    UUO00	0,0(1)
031577  000001 000000      !       ?????    UUO00	0,0(1)
031600  000001 000000      !       ?????    UUO00	0,0(1)
031601  000001 000000      !       ?????    UUO00	0,0(1)
031602  000001 000000      !       ?????    UUO00	0,0(1)
031603  000001 000000      !       ?????    UUO00	0,0(1)
031604  000001 000000      !       ?????    UUO00	0,0(1)
031605  000001 000000      !       ?????    UUO00	0,0(1)
031606  000001 000000      !       ?????    UUO00	0,0(1)
031607  000001 000000      !       ?????    UUO00	0,0(1)
031610  000001 000000      !       ?????    UUO00	0,0(1)
031611  000001 000000      !       ?????    UUO00	0,0(1)
031612  000001 000000      !       ?????    UUO00	0,0(1)
031613  000001 000000      !       ?????    UUO00	0,0(1)
031614  000001 000000      !       ?????    UUO00	0,0(1)
031615  000001 000000      !       ?????    UUO00	0,0(1)
031616  000001 000000      !       ?????    UUO00	0,0(1)
031617  000001 000000      !       ?????    UUO00	0,0(1)
031620  000001 000000      !       ?????    UUO00	0,0(1)
031621  000001 000000      !       ?????    UUO00	0,0(1)
031622  000001 000000      !       ?????    UUO00	0,0(1)
031623  000001 000000      !       ?????    UUO00	0,0(1)
031624  000001 000000      !       ?????    UUO00	0,0(1)
031625  000001 000000      !       ?????    UUO00	0,0(1)
031626  000001 000000      !       ?????    UUO00	0,0(1)
031627  000001 000000      !       ?????    UUO00	0,0(1)
031630  000001 000000      !       ?????    UUO00	0,0(1)
031631  000001 000000      !       ?????    UUO00	0,0(1)
031632  000001 000000      !       ?????    UUO00	0,0(1)
031633  000001 000000      !       ?????    UUO00	0,0(1)
031634  000001 000000      !       ?????    UUO00	0,0(1)
031635  000001 000000      !       ?????    UUO00	0,0(1)
031636  000001 000000      !       ?????    UUO00	0,0(1)
031637  000001 000000      !       ?????    UUO00	0,0(1)
031640  000001 000000      !       ?????    UUO00	0,0(1)
031641  000001 000000      !       ?????    UUO00	0,0(1)
031642  000001 000000      !       ?????    UUO00	0,0(1)
031643  000001 000000      !       ?????    UUO00	0,0(1)
031644  000001 000000      !       ?????    UUO00	0,0(1)
031645  000001 000000      !       ?????    UUO00	0,0(1)
031646  000001 000000      !       ?????    UUO00	0,0(1)
031647  000001 000000      !       ?????    UUO00	0,0(1)
031650  000001 000000      !       ?????    UUO00	0,0(1)
031651  000001 000000      !       ?????    UUO00	0,0(1)
031652  000001 000000      !       ?????    UUO00	0,0(1)
031653  000001 000000      !       ?????    UUO00	0,0(1)
031654  000001 000000      !       ?????    UUO00	0,0(1)
031655  000001 000000      !       ?????    UUO00	0,0(1)
031656  000001 000000      !       ?????    UUO00	0,0(1)
031657  000001 000000      !       ?????    UUO00	0,0(1)
031660  000001 000000      !       ?????    UUO00	0,0(1)
031661  000001 000000      !       ?????    UUO00	0,0(1)
031662  000001 000000      !       ?????    UUO00	0,0(1)
031663  000001 000000      !       ?????    UUO00	0,0(1)
031664  000001 000000      !       ?????    UUO00	0,0(1)
031665  000001 000000      !       ?????    UUO00	0,0(1)
031666  000001 000000      !       ?????    UUO00	0,0(1)
031667  000001 000000      !       ?????    UUO00	0,0(1)
031670  000001 000000      !       ?????    UUO00	0,0(1)
031671  000001 000000      !       ?????    UUO00	0,0(1)
031672  000001 000000      !       ?????    UUO00	0,0(1)
031673  000001 000000      !       ?????    UUO00	0,0(1)
031674  000001 000000      !       ?????    UUO00	0,0(1)
031675  000001 000000      !       ?????    UUO00	0,0(1)
031676  000001 000000      !       ?????    UUO00	0,0(1)
031677  000001 000000      !       ?????    UUO00	0,0(1)
031700  000001 000000      !       ?????    UUO00	0,0(1)
031701  000001 000000      !       ?????    UUO00	0,0(1)
031702  000001 000000      !       ?????    UUO00	0,0(1)
031703  000001 000000      !       ?????    UUO00	0,0(1)
031704  000001 000000      !       ?????    UUO00	0,0(1)
031705  000001 000000      !       ?????    UUO00	0,0(1)
031706  000001 000000      !       ?????    UUO00	0,0(1)
031707  000001 000000      !       ?????    UUO00	0,0(1)
031710  000001 000000      !       ?????    UUO00	0,0(1)
031711  000001 000000      !       ?????    UUO00	0,0(1)
031712  000001 000000      !       ?????    UUO00	0,0(1)
031713  000001 000000      !       ?????    UUO00	0,0(1)
031714  000001 000000      !       ?????    UUO00	0,0(1)
031715  000001 000000      !       ?????    UUO00	0,0(1)
031716  000001 000000      !       ?????    UUO00	0,0(1)
031717  000001 000000      !       ?????    UUO00	0,0(1)
031720  000001 000000      !       ?????    UUO00	0,0(1)
031721  000001 000000      !       ?????    UUO00	0,0(1)
031722  000001 000000      !       ?????    UUO00	0,0(1)
031723  000001 000000      !       ?????    UUO00	0,0(1)
031724  000001 000000      !       ?????    UUO00	0,0(1)
031725  000001 000000      !       ?????    UUO00	0,0(1)
031726  000001 000000      !       ?????    UUO00	0,0(1)
031727  000001 000000      !       ?????    UUO00	0,0(1)
031730  000001 000000      !       ?????    UUO00	0,0(1)
031731  000001 000000      !       ?????    UUO00	0,0(1)
031732  000001 000000      !       ?????    UUO00	0,0(1)
031733  000001 000000      !       ?????    UUO00	0,0(1)
031734  000001 000000      !       ?????    UUO00	0,0(1)
031735  000001 000000      !       ?????    UUO00	0,0(1)
031736  000001 000000      !       ?????    UUO00	0,0(1)
031737  000001 000000      !       ?????    UUO00	0,0(1)
031740  000001 000000      !       ?????    UUO00	0,0(1)
031741  000001 000000      !       ?????    UUO00	0,0(1)
031742  000001 000000      !       ?????    UUO00	0,0(1)
031743  000001 000000      !       ?????    UUO00	0,0(1)
031744  000001 000000      !       ?????    UUO00	0,0(1)
031745  000001 000000      !       ?????    UUO00	0,0(1)
031746  000001 000000      !       ?????    UUO00	0,0(1)
031747  000001 000000      !       ?????    UUO00	0,0(1)
031750  000001 000000      !       ?????    UUO00	0,0(1)
031751  000001 000000      !       ?????    UUO00	0,0(1)
031752  000001 000000      !       ?????    UUO00	0,0(1)
031753  000001 000000      !       ?????    UUO00	0,0(1)
031754  000001 000000      !       ?????    UUO00	0,0(1)
031755  000001 000000      !       ?????    UUO00	0,0(1)
031756  000001 000000      !       ?????    UUO00	0,0(1)
031757  000001 000000      !       ?????    UUO00	0,0(1)
031760  000001 000000      !       ?????    UUO00	0,0(1)
031761  000001 000000      !       ?????    UUO00	0,0(1)
031762  000001 000000      !       ?????    UUO00	0,0(1)
031763  000001 000000      !       ?????    UUO00	0,0(1)
031764  000001 000000      !       ?????    UUO00	0,0(1)
031765  000001 000000      !       ?????    UUO00	0,0(1)
031766  000001 000000      !       ?????    UUO00	0,0(1)
031767  000001 000000      !       ?????    UUO00	0,0(1)
031770  000001 000000      !       ?????    UUO00	0,0(1)
031771  000001 000000      !       ?????    UUO00	0,0(1)
031772  000001 000000      !       ?????    UUO00	0,0(1)
031773  000001 000000      !       ?????    UUO00	0,0(1)
031774  000001 000000      !       ?????    UUO00	0,0(1)
031775  000001 000000      !       ?????    UUO00	0,0(1)
031776  000001 000000      !       ?????    UUO00	0,0(1)
031777  000001 000000      !       ?????    UUO00	0,0(1)
